******************************************************************************
               TMS320C6x Linker Unix v7.4.0                    
******************************************************************************
>> Linked Tue Apr  9 10:38:23 2013

OUTPUT FILE NAME:   <omp_rs.out>
ENTRY POINT SYMBOL: "_c_int00"  address: 8003a800


MEMORY CONFIGURATION

         name            origin    length      used     unused   attr    fill
----------------------  --------  ---------  --------  --------  ----  --------
  L2SRAM                00800000   00060000  0002bdc0  00034240  RW X
  L1DSRAM               00f00000   00004000  00000000  00004000  RW  
  MSMCSRAM              0c000000   00300000  00000200  002ffe00  RW X
  MSMCSRAM_CACHE        0c300000   00100000  00000000  00100000  RW X
  DDR3                  80000000   20000000  1003adba  0ffc5246  RW X
  MSMCSRAM_NOCACHE      a0300000   00100000  000949c6  0006b63a  RW X


SEGMENT ALLOCATION MAP

run origin  load origin   length   init length attrs members
----------  ----------- ---------- ----------- ----- -------
00800000    00800000    0002bdc0   0002ac9c    rw-
  00800000    00800000    0002ac9c   0002ac9c    rw- .localfar
  0082ac9c    0082ac9c    00000004   00000000    rw- .tls_tp
  0082aca0    0082aca0    00001000   00000000    rw- .stack
  0082bca0    0082bca0    00000120   00000000    rw- .cio
0c000000    0c000000    00000200   00000000    rw-
  0c000000    0c000000    00000200   00000000    rw- .cppi
80000000    80000000    00035120   00035120    r-x
  80000000    80000000    00035120   00035120    r-x .text
80035270    80035270    00004e4e   00004e4e    r--
  80035270    80035270    00004e4e   00004e4e    r-- .const
8003a0c0    8003a0c0    000000cc   000000cc    r--
  8003a0c0    8003a0c0    000000b0   000000b0    r-- .switch
  8003a170    8003a170    0000001c   0000001c    r-- .binit
8003a400    8003a400    00000200   00000200    r-x
  8003a400    8003a400    00000200   00000200    r-x .vecs
8003a800    8003a800    00000a30   00000a30    r-x
  8003a800    8003a800    000000a0   000000a0    r-x .text:_c_int00
  8003a8a0    8003a8a0    00000990   00000990    r-- .cinit
a0380000    a0380000    000120b0   00000000    rw-
  a0380000    a0380000    000120ac   00000000    rw- .qmss.1
  a03920ac    a03920ac    00000004   00000000    rw- .bss
a03920b0    a03920b0    00000050   00000050    rw-
  a03920b0    a03920b0    00000050   00000050    rw- gomp_data.1
a0392100    a0392100    00002400   00000000    rw-
  a0392100    a0392100    00002400   00000000    rw- .qmss.2
a0394500    a0394500    00000256   00000256    rw-
  a0394500    a0394500    00000256   00000256    rw- gomp_data.2
a0394758    80035120    00000001   00000001    rw-
  a0394758    80035120    00000001   00000001    rw- .neardata
a0394760    80035128    00000148   00000148    rw-
  a0394760    80035128    00000148   00000148    rw- .fardata
a03948a8    a03948a8    00000120   00000000    rw-
  a03948a8    a03948a8    00000120   00000000    rw- .far


SECTION ALLOCATION MAP

 output                                  attributes/
section   page    origin      length       input sections
--------  ----  ----------  ----------   ----------------
.init_array 
*          0    00800000    00000000     UNINITIALIZED

.init_array 
*          0    a0300000    00000000     UNINITIALIZED

.localfar 
*          0    00800000    0002ac9c     
                  00800000    00028040     omp_config_pe66.oe66 (.far) [fill = 0]
                  00828040    00001000     omp_config_pe66.oe66 (.far:taskStackSection) [fill = 0]
                  00829040    00000150     rts6600_elf_mt.lib : _mutex.obj (.far) [fill = 0]
                  00829190    00000140                        : defs.obj (.far) [fill = 0]
                  008292d0    000000c8                        : getenv.obj (.far) [fill = 0]
                  00829398    00000008                        : trgdrv.obj (.far) [fill = 0]
                  008293a0    00000800     omp_config_pe66.oe66 (.fardata:ti_sdo_ipc_GateMP_Module_State_0_remoteCustom1Gates__A)
                  00829ba0    0000037c     omp_config_pe66.oe66 (.fardata)
                  00829f1c    00000004     --HOLE--
                  00829f20    00000180     omp_config_pe66.oe66 (.fardata:ti_sysbios_timers_timer64_Timer_Module_State_0_device__A)
                  0082a0a0    00000118     omp_config_pe66.oe66 (.fardata:ti_sdo_utils_NameServer_Object__table__V)
                  0082a1b8    000000a0     omp_config_pe66.oe66 (.fardata:ti_sdo_ipc_Ipc_Module_State_0_procEntry__A)
                  0082a258    00000098     omp_config_pe66.oe66 (.fardata:ti_sysbios_knl_Task_Object__table__V)
                  0082a2f0    00000098     omp_config_pe66.oe66 (.fardata:ti_sysbios_timers_timer64_Timer_Object__table__V)
                  0082a388    00000090     omp_config_pe66.oe66 (.fardata:ti_sdo_ipc_SharedRegion_Module_State_0_regions__A)
                  0082a418    00000080     omp_config_pe66.oe66 (.fardata:ti_sdo_ipc_GateMP_Module_State_0_remoteSystemGates__A)
                  0082a498    00000080     omp_config_pe66.oe66 (.fardata:ti_sysbios_knl_Swi_Module_State_0_readyQ__A)
                  0082a518    00000080     omp_config_pe66.oe66 (.fardata:ti_sysbios_knl_Task_Module_State_0_readyQ__A)
                  0082a598    00000080     omp_config_pe66.oe66 (.fardata:ti_sysbios_timers_timer64_Timer_Module_State_0_gctrl__A)
                  0082a618    00000080     omp_config_pe66.oe66 (.fardata:ti_sysbios_timers_timer64_Timer_Module_State_0_handles__A)
                  0082a698    00000080     omp_config_pe66.oe66 (.fardata:ti_sysbios_timers_timer64_Timer_Module_State_0_intFreqs__A)
                  0082a718    00000040     omp_config_pe66.oe66 (.fardata:ti_sdo_ipc_MessageQ_Module_State_0_transports__A)
                  0082a758    00000040     omp_config_pe66.oe66 (.fardata:ti_sysbios_gates_GateMutex_Object__table__V)
                  0082a798    00000030     omp_config_pe66.oe66 (.fardata:ti_sysbios_knl_Swi_Object__table__V)
                  0082a7c8    00000020     omp_config_pe66.oe66 (.fardata:ti_sdo_ipc_MessageQ_Module_State_0_heaps__A)
                  0082a7e8    00000020     omp_config_pe66.oe66 (.fardata:ti_sdo_ipc_Notify_Module_State_0_notifyHandles__A)
                  0082a808    00000020     omp_config_pe66.oe66 (.fardata:ti_sdo_ipc_family_c647x_Interrupt_Module_State_0_args__A)
                  0082a828    00000020     omp_config_pe66.oe66 (.fardata:ti_sdo_ipc_transports_TransportShmSetup_Module_State_0_handles__A)
                  0082a848    00000020     omp_config_pe66.oe66 (.fardata:xdc_runtime_System_Module_State_0_atexitHandlers__A)
                  0082a868    00000018     omp_config_pe66.oe66 (.fardata:ti_sysbios_family_c64p_Hwi_Object__table__V)
                  0082a880    00000018     omp_config_pe66.oe66 (.fardata:ti_sysbios_gates_GateMutexPri_Object__table__V)
                  0082a898    00000018     omp_config_pe66.oe66 (.fardata:ti_sysbios_heaps_HeapMem_Object__table__V)
                  0082a8b0    00000010     omp_config_pe66.oe66 (.fardata:ti_sysbios_gates_GateAll_Object__table__V)
                  0082a8c0    0000000c     omp_config_pe66.oe66 (.fardata:ti_omp_utils_HeapOMP_Object__table__V)
                  0082a8cc    00000004     --HOLE--
                  0082a8d0    0000000c     omp_config_pe66.oe66 (.fardata:ti_sysbios_gates_GateSwi_Object__table__V)
                  0082a8dc    00000004     --HOLE--
                  0082a8e0    00000008     omp_config_pe66.oe66 (.fardata:ti_sysbios_hal_Hwi_Object__table__V)
                  0082a8e8    00000008     omp_config_pe66.oe66 (.fardata:ti_sysbios_hal_Timer_Object__table__V)
                  0082a8f0    00000004     omp_config_pe66.oe66 (.fardata:ti_sdo_ipc_GateMP_Module_State_0_remoteCustom2Gates__A)
                  0082a8f4    00000004     --HOLE--
                  0082a8f8    00000004     omp_config_pe66.oe66 (.fardata:ti_sdo_ipc_Notify_Module_State_0_notifyHandles_0__A)
                  0082a8fc    00000004     --HOLE--
                  0082a900    00000004     omp_config_pe66.oe66 (.fardata:ti_sdo_ipc_Notify_Module_State_0_notifyHandles_1__A)
                  0082a904    00000004     --HOLE--
                  0082a908    00000004     omp_config_pe66.oe66 (.fardata:ti_sdo_ipc_Notify_Module_State_0_notifyHandles_2__A)
                  0082a90c    00000004     --HOLE--
                  0082a910    00000004     omp_config_pe66.oe66 (.fardata:ti_sdo_ipc_Notify_Module_State_0_notifyHandles_3__A)
                  0082a914    00000004     --HOLE--
                  0082a918    00000004     omp_config_pe66.oe66 (.fardata:ti_sdo_ipc_Notify_Module_State_0_notifyHandles_4__A)
                  0082a91c    00000004     --HOLE--
                  0082a920    00000004     omp_config_pe66.oe66 (.fardata:ti_sdo_ipc_Notify_Module_State_0_notifyHandles_5__A)
                  0082a924    00000004     --HOLE--
                  0082a928    00000004     omp_config_pe66.oe66 (.fardata:ti_sdo_ipc_Notify_Module_State_0_notifyHandles_6__A)
                  0082a92c    00000004     --HOLE--
                  0082a930    00000004     omp_config_pe66.oe66 (.fardata:ti_sdo_ipc_Notify_Module_State_0_notifyHandles_7__A)
                  0082a934    00000004     --HOLE--
                  0082a938    00000004     omp_config_pe66.oe66 (.fardata:ti_sysbios_gates_GateHwi_Object__table__V)
                  0082a93c    00000004     --HOLE--
                  0082a940    00000004     omp_config_pe66.oe66 (.fardata:ti_sysbios_knl_Task_Module_State_0_idleTask__A)
                  0082a944    00000004     --HOLE--
                  0082a948    00000004     omp_config_pe66.oe66 (.fardata:xdc_runtime_GateNull_Object__table__V)
                  0082a94c    00000004     --HOLE--
                  0082a950    000001e0     rts6600_elf_mt.lib : defs.obj (.fardata:_ftable)
                  0082ab30    000000a0                        : lowlev.obj (.fardata:_stream)
                  0082abd0    00000078                        : lowlev.obj (.fardata:_device)
                  0082ac48    00000018                        : _pthread.obj (.fardata)
                  0082ac60    00000010                        : exit.obj (.fardata)
                  0082ac70    0000000c                        : _data_synch.obj (.fardata)
                  0082ac7c    00000008                        : _lock.obj (.fardata)
                  0082ac84    00000008                        : _mutex.obj (.fardata)
                  0082ac8c    00000004                        : defs.obj (.fardata)
                  0082ac90    00000004                        : dtor_list.obj (.fardata)
                  0082ac94    00000004                        : errno.obj (.fardata)
                  0082ac98    00000004                        : rand.obj (.fardata)

.tls_tp    0    0082ac9c    00000004     UNINITIALIZED
                  0082ac9c    00000004     ti.omp.utils.ae66 : ThreadLocalStorage.oe66 (.tls_tp)

.stack     0    0082aca0    00001000     UNINITIALIZED
                  0082aca0    00000008     boot.ae66 : boot.oe66 (.stack)
                  0082aca8    00000ff8     --HOLE--

.cio       0    0082bca0    00000120     UNINITIALIZED
                  0082bca0    00000120     rts6600_elf_mt.lib : trgmsg.obj (.cio)

.cppi      0    0c000000    00000200     UNINITIALIZED
                  0c000000    00000200     ti.drv.cppi.ae66 : cppi_drv.oe66 (.cppi)

xdc.meta   0    80000000    000000e8     COPY SECTION
                  80000000    000000e8     omp_config_pe66.oe66 (xdc.meta)

.text      0    80000000    00035120     
                  80000000    000011c0     ipc.ae66 : Ipc.obj (.text:ti_sdo_ipc_GateMP_Instance_init__F)
                  800011c0    00000a60              : Ipc.obj (.text:ti_sdo_ipc_heaps_HeapMemMP_alloc__E)
                  80001c20    000009e0              : Ipc.obj (.text:ti_sdo_ipc_heaps_HeapMemMP_free__E)
                  80002600    000009a0              : Ipc.obj (.text:Ipc_attach)
                  80002fa0    000009a0     ti.targets.rts6000.ae66 : System.oe66 (.text:xdc_runtime_System_doPrint__I)
                  80003940    00000920     ipc.ae66 : Ipc.obj (.text:ti_sdo_ipc_transports_TransportShm_Instance_init__F)
                  80004260    000008e0     omp_rs.obj (.text)
                  80004b40    000008a0     ipc.ae66 : Ipc.obj (.text:ti_sdo_ipc_ListMP_Instance_init__F)
                  800053e0    00000860              : Ipc.obj (.text:ti_sdo_ipc_GateMP_Instance_finalize__F)
                  80005c40    00000840              : Ipc.obj (.text:MessageQ_put)
                  80006480    000007e0     ti.drv.qmss.ae66 : qmss_drv.oe66 (.text:Qmss_insertMemoryRegion)
                  80006c60    00000780     ipc.ae66 : Ipc.obj (.text:ti_sdo_ipc_heaps_HeapMemMP_Instance_init__F)
                  800073e0    00000780     sysbios.ae66 : BIOS.obj (.text:ti_sysbios_family_c64p_Exception_handler__I)
                  80007b60    00000700     ipc.ae66 : Ipc.obj (.text:Notify_registerEvent)
                  80008260    000006c0              : Ipc.obj (.text:ti_sdo_ipc_nsremote_NameServerRemoteNotify_Instance_init__F)
                  80008920    000006a0              : Ipc.obj (.text:NameServer_add)
                  80008fc0    00000680     sysbios.ae66 : BIOS.obj (.text:ti_sysbios_knl_Task_Instance_finalize__F)
                  80009640    00000620     ipc.ae66 : Ipc.obj (.text:Notify_sendEvent)
                  80009c60    00000600     ti.omp.ae66 : team.oe66 (.text:gomp_team_start)
                  8000a260    00000600     sysbios.ae66 : BIOS.obj (.text:ti_sysbios_heaps_HeapMem_alloc__E)
                  8000a860    00000600                  : BIOS.obj (.text:ti_sysbios_heaps_HeapMem_free__E)
                  8000ae60    000005e0     ipc.ae66 : Ipc.obj (.text:Notify_registerEventSingle)
                  8000b440    000005e0              : Ipc.obj (.text:SharedRegion_setEntry)
                  8000ba20    000005c0              : Ipc.obj (.text:ListMP_getHead)
                  8000bfe0    000005c0              : Ipc.obj (.text:Notify_unregisterEventSingle)
                  8000c5a0    000005c0     rts6600_elf_mt.lib : divd.obj (.text:__c6xabi_divd)
                  8000cb60    000005c0                        : _printfi.obj (.text:_getarg_diouxp)
                  8000d120    000005c0     ipc.ae66 : Ipc.obj (.text:ti_sdo_ipc_SharedRegion_start__F)
                  8000d6e0    000005c0     sysbios.ae66 : BIOS.obj (.text:ti_sysbios_timers_timer64_Timer_Module_startup__F)
                  8000dca0    00000580     ipc.ae66 : Ipc.obj (.text:ti_sdo_ipc_nsremote_NameServerRemoteNotify_get__F)
                  8000e220    00000580              : Ipc.obj (.text:ti_sdo_ipc_transports_TransportShm_put__E)
                  8000e7a0    00000540              : Ipc.obj (.text:ti_sdo_ipc_Ipc_procSyncStart__I)
                  8000ece0    000004e0              : Ipc.obj (.text:ti_sdo_ipc_notifyDrivers_NotifyDriverShm_Instance_init__F)
                  8000f1c0    000004e0     sysbios.ae66 : BIOS.obj (.text:ti_sysbios_knl_Semaphore_pend__E)
                  8000f6a0    000004a0     ipc.ae66 : Ipc.obj (.text:ti_sdo_ipc_gates_GatePeterson_Instance_init__F)
                  8000fb40    00000480     sysbios.ae66 : BIOS.obj (.text:ti_sysbios_knl_Task_Module_startup__F)
                  8000ffc0    00000460     rts6600_elf_mt.lib : _printfi.obj (.text:_printfi)
                  80010420    00000460                        : _printfi.obj (.text:_setfield)
                  80010880    00000460     ipc.ae66 : Ipc.obj (.text:ti_sdo_ipc_GateMP_setRegion0Reserved__F)
                  80010ce0    00000460              : Ipc.obj (.text:ti_sdo_ipc_Ipc_procSyncFinish__I)
                  80011140    00000440              : Ipc.obj (.text:ListMP_putTail)
                  80011580    00000440              : Ipc.obj (.text:ti_sdo_ipc_heaps_HeapMemMP_getStats__E)
                  800119c0    00000440              : Ipc.obj (.text:ti_sdo_ipc_heaps_HeapMemMP_postInit__I)
                  80011e00    00000400              : Ipc.obj (.text:ti_sdo_ipc_Notify_Instance_init__F)
                  80012200    000003c0     ti.drv.cppi.ae66 : cppi_desc.oe66 (.text:Cppi_initDescriptor)
                  800125c0    000003c0     rts6600_elf_mt.lib : fputs.obj (.text:fputs)
                  80012980    000003c0     ti.omp.utils.ae66 : ThreadLocal.oe66 (.text:ti_omp_utils_ThreadLocal_setspecific__E)
                  80012d40    000003c0     ipc.ae66 : Ipc.obj (.text:ti_sdo_ipc_SharedRegion_reserveMemory__F)
                  80013100    000003c0     sysbios.ae66 : BIOS.obj (.text:ti_sysbios_knl_Task_Instance_init__F)
                  800134c0    000003c0                  : BIOS.obj (.text:ti_sysbios_knl_Task_setPri__E)
                  80013880    00000380     ipc.ae66 : Ipc.obj (.text:HeapMemMP_sharedMemReq)
                  80013c00    00000360     ti.omp.ae66 : task.oe66 (.text:gomp_barrier_handle_tasks)
                  80013f60    00000360                 : iter.oe66 (.text:gomp_iter_static_next)
                  800142c0    00000340     ipc.ae66 : Ipc.obj (.text:GateMP_sharedMemReq)
                  80014600    00000340     ti.drv.qmss.ae66 : qmss_drv.oe66 (.text:Qmss_init)
                  80014940    00000340     ipc.ae66 : Ipc.obj (.text:ti_sdo_ipc_nsremote_NameServerRemoteNotify_swiFxn__I)
                  80014c80    00000320     rts6600_elf_mt.lib : _printfi.obj (.text:_pproc_fge)
                  80014fa0    00000320                        : strtoul.obj (.text:strtoul)
                  800152c0    00000320     ti.omp.navigator.ae66 : Navigator.oe66 (.text:sysInit)
                  800155e0    00000320     ti.omp.utils.ae66 : ThreadLocal.oe66 (.text:ti_omp_utils_ThreadLocal_getspecific__E)
                  80015900    00000300     ipc.ae66 : Ipc.obj (.text:GateMP_openByAddr)
                  80015c00    00000300              : Ipc.obj (.text:ti_sdo_ipc_transports_TransportShm_openByAddr__F)
                  80015f00    00000300     sysbios.ae66 : BIOS.obj (.text:ti_sysbios_family_c64p_Hwi_dispatchC__I)
                  80016200    000002e0     ipc.ae66 : Ipc.obj (.text:SharedRegion_getEntry)
                  800164e0    000002e0              : Ipc.obj (.text:SharedRegion_getPtr)
                  800167c0    000002e0     rts6600_elf_mt.lib : _printfi.obj (.text:_pproc_fwp)
                  80016aa0    000002e0     sysbios.ae66 : BIOS.obj (.text:ti_sysbios_gates_GateMutexPri_enter__E)
                  80016d80    000002e0                  : BIOS.obj (.text:ti_sysbios_heaps_HeapMem_Instance_init__F)
                  80017060    000002c0     ti.omp.ae66 : env.oe66 (.text:parse_affinity)
                  80017320    000002c0     ipc.ae66 : Ipc.obj (.text:ti_sdo_ipc_notifyDrivers_NotifyDriverShm_isr__I)
                  800175e0    000002c0     sysbios.ae66 : BIOS.obj (.text:ti_sysbios_knl_Task_exit__E)
                  800178a0    000002a0     ipc.ae66 : Ipc.obj (.text:Ipc_start)
                  80017b40    000002a0              : Ipc.obj (.text:NameServer_getLocal)
                  80017de0    000002a0     rts6600_elf_mt.lib : _printfi.obj (.text:fcvt)
                  80018080    000002a0     sysbios.ae66 : BIOS.obj (.text:ti_sysbios_knl_Clock_workFunc__E)
                  80018320    00000280     ipc.ae66 : Ipc.obj (.text:SharedRegion_getSRPtr)
                  800185a0    00000280     rts6600_elf_mt.lib : divf.obj (.text:__c6xabi_divf)
                  80018820    00000280     sysbios.ae66 : BIOS.obj (.text:deviceConfig$47)
                  80018aa0    00000280     rts6600_elf_mt.lib : _printfi.obj (.text:ecvt)
                  80018d20    00000280     ti.omp.ae66 : env.oe66 (.text:initialize_env)
                  80018fa0    00000280     ti.omp.utils.ae66 : OpenMP.oe66 (.text:ti_omp_utils_OpenMP_masterTask__I)
                  80019220    00000280     ipc.ae66 : Ipc.obj (.text:ti_sdo_ipc_notifyDrivers_NotifyDriverShm_sharedMemReq__F)
                  800194a0    00000280     sysbios.ae66 : BIOS.obj (.text:ti_sysbios_knl_Clock_Instance_init__F)
                  80019720    00000280     ti.targets.rts6000.ae66 : Core-mem.oe66 (.text:xdc_runtime_Core_createObject__I)
                  800199a0    00000280                             : Error.oe66 (.text:xdc_runtime_Error_raiseX__F)
                  80019c20    00000260     ipc.ae66 : Ipc.obj (.text:ListMP_sharedMemReq)
                  80019e80    00000260     ti.omp.ae66 : env.oe66 (.text:parse_spincount)
                  8001a0e0    00000260     ipc.ae66 : Ipc.obj (.text:ti_sdo_ipc_ListMP_Instance_finalize__F)
                  8001a340    00000260              : Ipc.obj (.text:ti_sdo_ipc_SharedRegion_checkOverlap__I)
                  8001a5a0    00000260              : Ipc.obj (.text:ti_sdo_ipc_heaps_HeapMemMP_Instance_finalize__F)
                  8001a800    00000260              : Ipc.obj (.text:ti_sdo_ipc_notifyDrivers_NotifyDriverShm_disableEvent__E)
                  8001aa60    00000260     ti.targets.rts6000.ae66 : Startup.oe66 (.text:xdc_runtime_Startup_startMods__I)
                  8001acc0    00000240     ti.drv.cppi.ae66 : cppi_drv.oe66 (.text:Cppi_open)
                  8001af00    00000240     rts6600_elf_mt.lib : imath64.obj (.text:__c6xabi_divull)
                  8001b140    00000240                        : _printfi.obj (.text:_pconv_e)
                  8001b380    00000240                        : _printfi.obj (.text:_pproc_diouxp)
                  8001b5c0    00000240                        : fputc.obj (.text:fputc)
                  8001b800    00000240     sysbios.ae66 : BIOS.obj (.text:ti_sysbios_family_c64p_Exception_internalHandler__I)
                  8001ba40    00000240                  : BIOS.obj (.text:ti_sysbios_knl_Semaphore_post__E)
                  8001bc80    00000220     rts6600_elf_mt.lib : _printfi.obj (.text:_pproc_str)
                  8001bea0    00000220     ti.omp.ae66 : env.oe66 (.text:parse_schedule)
                  8001c0c0    00000220     rts6600_elf_mt.lib : setvbuf.obj (.text:setvbuf)
                  8001c2e0    00000220     ti.omp.utils.ae66 : OpenMP.oe66 (.text:ti_omp_utils_OpenMP_createThread__E)
                  8001c500    00000220     ipc.ae66 : Ipc.obj (.text:ti_sdo_ipc_GateMP_start__F)
                  8001c720    00000220     sysbios.ae66 : BIOS.obj (.text:ti_sysbios_family_c64p_Hwi_reconfig__E)
                  8001c940    00000220                  : BIOS.obj (.text:ti_sysbios_knl_Swi_run__I)
                  8001cb60    00000220                  : BIOS.obj (.text:ti_sysbios_knl_Task_schedule__I)
                  8001cd80    00000220                  : BIOS.obj (.text:ti_sysbios_knl_Task_startCore__E)
                  8001cfa0    00000200     ipc.ae66 : Ipc.obj (.text:GateMP_enter)
                  8001d1a0    00000200              : Ipc.obj (.text:GateMP_leave)
                  8001d3a0    00000200              : Ipc.obj (.text:ListMP_openByAddr)
                  8001d5a0    00000200     ti.drv.qmss.ae66 : qmss_drv.oe66 (.text:Qmss_internalQueueOpen)
                  8001d7a0    00000200     rts6600_elf_mt.lib : _printfi.obj (.text:_pconv_g)
                  8001d9a0    00000200     sysbios.ae66 : c64p_Hwi_disp_always.obj (.text:_ti_sysbios_family_c64p_Hwi_dispatchAlways)
                  8001dba0    00000200                  : BIOS.obj (.text:block$59)
                  8001dda0    00000200     ti.omp.ae66 : team.oe66 (.text:gomp_thread_start)
                  8001dfa0    00000200     ipc.ae66 : Ipc.obj (.text:ti_sdo_ipc_notifyDrivers_NotifyDriverShm_sendEvent__E)
                  8001e1a0    00000200              : Ipc.obj (.text:ti_sdo_ipc_transports_TransportShm_Instance_finalize__F)
                  8001e3a0    00000200     omp_config_pe66.oe66 (.text:xdc_runtime_System_printfExtend__I)
                  8001e5a0    000001e0     ipc.ae66 : Ipc.obj (.text:ti_sdo_ipc_GateMP_attach__F)
                  8001e780    000001e0              : Ipc.obj (.text:ti_sdo_ipc_GateMP_getFreeResource__I)
                  8001e960    000001e0     sysbios.ae66 : BIOS.obj (.text:ti_sysbios_knl_Task_postInit__I)
                  8001eb40    000001e0                  : BIOS.obj (.text:ti_sysbios_timers_timer64_Timer_getFreq__E)
                  8001ed20    000001c0     ipc.ae66 : Ipc.obj (.text:HeapMemMP_openByAddr)
                  8001eee0    000001c0     ti.drv.qmss.ae66 : qmss_drv.oe66 (.text:Qmss_internaldownloadFirmware)
                  8001f0a0    000001c0     rts6600_elf_mt.lib : _printfi.obj (.text:_mcpy)
                  8001f260    000001c0     ti.omp.config.sysbios.ae66 : bar.oe66 (.text:gomp_barrier_init)
                  8001f420    000001c0     ti.omp.utils.ae66 : ThreadLocal.oe66 (.text:ti_omp_utils_ThreadLocal_key_delete__E)
                  8001f5e0    000001c0     ipc.ae66 : Ipc.obj (.text:ti_sdo_ipc_notifyDrivers_NotifyDriverShm_registerEvent__E)
                  8001f7a0    000001c0     sysbios.ae66 : BIOS.obj (.text:ti_sysbios_knl_Swi_Instance_init__F)
                  8001f960    000001c0                  : BIOS.obj (.text:ti_sysbios_knl_Task_checkStacks__E)
                  8001fb20    000001c0                  : BIOS.obj (.text:ti_sysbios_timers_timer64_Timer_setPeriodMicroSecs__E)
                  8001fce0    000001a0     ipc.ae66 : Ipc.obj (.text:SharedRegion_getCacheLineSize)
                  8001fe80    000001a0              : Ipc.obj (.text:SharedRegion_getHeap)
                  80020020    000001a0              : Ipc.obj (.text:SharedRegion_isCacheEnabled)
                  800201c0    000001a0     rts6600_elf_mt.lib : imath40.obj (.text:__c6xabi_divul)
                  80020360    000001a0     ti.omp.ae66 : team.oe66 (.text:gomp_new_team)
                  80020500    000001a0     ti.omp.utils.ae66 : SemaphoreMP.oe66 (.text:ti_omp_utils_SemaphoreMP_registerEvent__I)
                  800206a0    000001a0     ipc.ae66 : Ipc.obj (.text:ti_sdo_ipc_GateMP_openRegion0Reserved__F)
                  80020840    000001a0              : Ipc.obj (.text:ti_sdo_ipc_notifyDrivers_NotifyDriverShm_enableEvent__E)
                  800209e0    000001a0              : Ipc.obj (.text:ti_sdo_ipc_notifyDrivers_NotifyDriverShm_unregisterEvent__E)
                  80020b80    000001a0              : Ipc.obj (.text:ti_sdo_ipc_nsremote_NameServerRemoteNotify_attach__E)
                  80020d20    000001a0     sysbios.ae66 : BIOS.obj (.text:ti_sysbios_gates_GateMutex_enter__E)
                  80020ec0    000001a0                  : BIOS.obj (.text:ti_sysbios_timers_timer64_Timer_start__E)
                  80021060    00000180     rts6600_elf_mt.lib : trgdrv.obj (.text:HOSTrename)
                  800211e0    00000180     ipc.ae66 : Ipc.obj (.text:MultiProc_setLocalId)
                  80021360    00000180              : Ipc.obj (.text:NameServer_getHandle)
                  800214e0    00000180              : Ipc.obj (.text:Notify_intLineRegistered)
                  80021660    00000180     rts6600_elf_mt.lib : copy_decompress_rle.obj (.text:__TI_decompress_rle_core)
                  800217e0    00000180     ti.omp.ae66 : work.oe66 (.text:alloc_work_share)
                  80021960    00000180     ti.omp.config.sysbios.ae66 : bar.oe66 (.text:gomp_barrier_wait)
                  80021ae0    00000180     ti.omp.ae66 : parallel.oe66 (.text:gomp_resolve_num_threads)
                  80021c60    00000180                 : team.oe66 (.text:gomp_team_end)
                  80021de0    00000180                 : env.oe66 (.text:parse_stacksize)
                  80021f60    00000180     sysbios.ae66 : c64p_Exception_asm.obj (.text)
                  800220e0    00000180     ipc.ae66 : Ipc.obj (.text:ti_sdo_ipc_MessageQ_registerTransport__F)
                  80022260    00000180              : Ipc.obj (.text:ti_sdo_ipc_Notify_Module_startup__F)
                  800223e0    00000180              : Ipc.obj (.text:ti_sdo_ipc_gates_GatePeterson_enter__E)
                  80022560    00000180              : Ipc.obj (.text:ti_sdo_utils_NameServer_Module_startup__F)
                  800226e0    00000180     sysbios.ae66 : BIOS.obj (.text:ti_sysbios_heaps_HeapBuf_Module_startup__F)
                  80022860    00000180                  : BIOS.obj (.text:ti_sysbios_knl_Swi_schedule__I)
                  800229e0    00000180                  : BIOS.obj (.text:ti_sysbios_knl_Task_unblockI__E)
                  80022b60    00000180     ti.targets.rts6000.ae66 : Text.oe66 (.text:xdc_runtime_Text_putSite__F)
                  80022ce0    00000160     ti.omp.utils.C6678.ae66 : OpenMPDnldCore.oe66 (.text:reset_run_core)
                  80022e40    00000160     ti.omp.utils.ae66 : OpenMP.oe66 (.text:ti_omp_utils_OpenMP_mainTaskExit__F)
                  80022fa0    00000160     ipc.ae66 : Ipc.obj (.text:ti_sdo_ipc_GateMP_createLocal__F)
                  80023100    00000160              : Ipc.obj (.text:ti_sdo_ipc_MessageQ_unregisterTransport__F)
                  80023260    00000160              : Ipc.obj (.text:ti_sdo_ipc_gates_GateHWSem_Instance_init__F)
                  800233c0    00000160              : Ipc.obj (.text:ti_sdo_ipc_transports_TransportShm_sharedMemReq__F)
                  80023520    00000160              : Ipc.obj (.text:ti_sdo_utils_NameServer_isRegistered__E)
                  80023680    00000160              : Ipc.obj (.text:ti_sdo_utils_NameServer_registerRemoteDriver__E)
                  800237e0    00000160              : Ipc.obj (.text:ti_sdo_utils_NameServer_unregisterRemoteDriver__E)
                  80023940    00000140     ti.csl.ae66 : csl_chip.oe66 (.text:CSL_chipReadReg)
                  80023a80    00000140     ipc.ae66 : Ipc.obj (.text:GateMP_close)
                  80023bc0    00000140              : Ipc.obj (.text:Notify_attach)
                  80023d00    00000140     boot.ae66 : autoinit.oe66 (.text:_auto_init_elf)
                  80023e40    00000140     rts6600_elf_mt.lib : _printfi.obj (.text:_pproc_fflags)
                  80023f80    00000140                        : fseek.obj (.text:fseek)
                  800240c0    00000140                        : lowlev.obj (.text:getdevice)
                  80024200    00000140     ti.omp.navigator.ae66 : Navigator.oe66 (.text:getsysHandles)
                  80024340    00000140     ti.omp.config.sysbios.ae66 : bar.oe66 (.text:gomp_team_barrier_wait_end)
                  80024480    00000140     ipc.ae66 : Ipc.obj (.text:ti_sdo_ipc_Notify_exec__F)
                  800245c0    00000140     sysbios.ae66 : BIOS.obj (.text:ti_sysbios_family_c64p_Hwi_Module_startup__F)
                  80024700    00000140                  : BIOS.obj (.text:ti_sysbios_family_c66_Cache_Module_startup__F)
                  80024840    00000140                  : BIOS.obj (.text:ti_sysbios_gates_GateSwi_enter__E)
                  80024980    00000140                  : BIOS.obj (.text:ti_sysbios_knl_Clock_Instance_finalize__F)
                  80024ac0    00000140                  : BIOS.obj (.text:ti_sysbios_knl_Semaphore_Instance_init__F)
                  80024c00    00000140                  : BIOS.obj (.text:ti_sysbios_knl_Swi_post__E)
                  80024d40    00000140                  : BIOS.obj (.text:ti_sysbios_knl_Task_blockI__E)
                  80024e80    00000140                  : BIOS.obj (.text:ti_sysbios_knl_Task_yield__E)
                  80024fc0    00000120     ti.omp.config.sysbios.ae66 : preinit.oe66 (.text:CSL_XMC_setXMPAXL)
                  800250e0    00000120     rts6600_elf_mt.lib : fclose.obj (.text:_closefile)
                  80025200    00000120                        : _printfi.obj (.text:_ltostr)
                  80025320    00000120     ti.omp.ae66 : team.oe66 (.text:gomp_free_thread)
                  80025440    00000120     sysbios.ae66 : BIOS.obj (.text:rtsUnlock$0)
                  80025560    00000120     ipc.ae66 : Ipc.obj (.text:ti_sdo_ipc_MessageQ_Module_startup__F)
                  80025680    00000120              : Ipc.obj (.text:ti_sdo_ipc_family_c647x_Interrupt_intRegister__E)
                  800257a0    00000120              : Ipc.obj (.text:ti_sdo_ipc_nsremote_NameServerRemoteNotify_Instance_finalize__F)
                  800258c0    00000100     rts6600_elf_mt.lib : _io_perm.obj (.text:_wrt_ok)
                  800259c0    00000100                        : cpy_tbl.obj (.text:copy_in)
                  80025ac0    00000100     sysbios.ae66 : BIOS.obj (.text:initDevice$47)
                  80025bc0    00000100     ti.omp.ae66 : env.oe66 (.text:parse_boolean)
                  80025cc0    00000100                 : env.oe66 (.text:parse_unsigned_long)
                  80025dc0    00000100                 : env.oe66 (.text:parse_wait_policy)
                  80025ec0    00000100     ti.omp.utils.C6678.ae66 : OpenMPDnldCore.oe66 (.text:siu_ibl_download_core)
                  80025fc0    00000100     ipc.ae66 : Ipc.obj (.text:ti_sdo_ipc_Notify_Instance_finalize__F)
                  800260c0    00000100              : Ipc.obj (.text:ti_sdo_ipc_SharedRegion_attach__F)
                  800261c0    00000100              : Ipc.obj (.text:ti_sdo_ipc_SharedRegion_clearReservedMemory__F)
                  800262c0    00000100              : Ipc.obj (.text:ti_sdo_ipc_family_c647x_Interrupt_Module_startup__F)
                  800263c0    00000100              : Ipc.obj (.text:ti_sdo_ipc_gates_GateHWSem_Module_startup__F)
                  800264c0    00000100              : Ipc.obj (.text:ti_sdo_ipc_gates_GateMPSupportNull_enter__E)
                  800265c0    00000100              : Ipc.obj (.text:ti_sdo_ipc_gates_GateMPSupportNull_leave__E)
                  800266c0    00000100              : Ipc.obj (.text:ti_sdo_ipc_transports_TransportShmSetup_attach__E)
                  800267c0    00000100     sysbios.ae66 : BIOS.obj (.text:ti_sysbios_gates_GateMutexPri_leave__E)
                  800268c0    00000100                  : BIOS.obj (.text:ti_sysbios_knl_Clock_startI__E)
                  800269c0    00000100                  : BIOS.obj (.text:ti_sysbios_knl_Swi_restoreHwi__E)
                  80026ac0    00000100     ti.targets.rts6000.ae66 : Core-mem.oe66 (.text:xdc_runtime_Core_deleteObject__I)
                  80026bc0    00000100                             : Startup.oe66 (.text:xdc_runtime_Startup_exec__F)
                  80026cc0    00000100                             : Text.oe66 (.text:xdc_runtime_Text_putMod__F)
                  80026dc0    00000100                             : Text.oe66 (.text:xdc_runtime_Text_visitRope2__I)
                  80026ec0    000000e0     rts6600_elf_mt.lib : trgdrv.obj (.text:HOSTgetenv)
                  80026fa0    000000e0                        : trgdrv.obj (.text:HOSTlseek)
                  80027080    000000e0                        : trgdrv.obj (.text:HOSTopen)
                  80027160    000000e0                        : fltllid.obj (.text:__c6xabi_fltllid)
                  80027240    000000e0                        : divi.obj (.text:__divi)
                  80027320    000000e0                        : _printfi.obj (.text:_div)
                  80027400    000000e0                        : atoi.obj (.text:atoi)
                  800274e0    000000e0                        : lowlev.obj (.text:close)
                  800275c0    000000e0                        : copy_zero_init.obj (.text:decompress:ZI:__TI_zero_init)
                  800276a0    000000e0                        : exit.obj (.text:exit)
                  80027780    000000e0     ti.omp.ae66 : work.oe66 (.text:gomp_init_work_share)
                  80027860    000000e0                 : team.oe66 (.text:initialize_team)
                  80027940    000000e0     rts6600_elf_mt.lib : ltoa.obj (.text:ltoa)
                  80027a20    000000e0                        : memset.obj (.text:memset)
                  80027b00    000000e0                        : printf.obj (.text:printf)
                  80027be0    000000e0     ti.omp.utils.ae66 : ThreadLocal.oe66 (.text:ti_omp_utils_ThreadLocal_key_create__E)
                  80027cc0    000000e0     omp_config_pe66.oe66 (.text:ti_sdo_ipc_Notify_Object__create__S)
                  80027da0    000000e0     ipc.ae66 : Ipc.obj (.text:ti_sdo_ipc_family_c647x_Interrupt_intShmStub__I)
                  80027e80    000000e0              : Ipc.obj (.text:ti_sdo_ipc_family_c647x_NotifySetup_attach__E)
                  80027f60    000000e0              : Ipc.obj (.text:ti_sdo_ipc_gates_GateHWSem_enter__E)
                  80028040    000000e0     sysbios.ae66 : BIOS.obj (.text:ti_sysbios_family_c64p_Hwi_Instance_finalize__F)
                  80028120    000000e0                  : BIOS.obj (.text:ti_sysbios_family_c64p_Hwi_Instance_init__F)
                  80028200    000000e0     omp_config_pe66.oe66 (.text:ti_sysbios_family_c64p_Hwi_Object__create__S)
                  800282e0    000000e0     sysbios.ae66 : BIOS.obj (.text:ti_sysbios_knl_Clock_start__E)
                  800283c0    000000e0                  : BIOS.obj (.text:ti_sysbios_timers_timer64_Timer_startup__E)
                  800284a0    000000e0     ti.targets.rts6000.ae66 : Error.oe66 (.text:xdc_runtime_Error_print__F)
                  80028580    000000e0                             : Memory.oe66 (.text:xdc_runtime_Memory_alloc__F)
                  80028660    000000c0     rts6600_elf_mt.lib : trgdrv.obj (.text:HOSTread)
                  80028720    000000c0                        : trgdrv.obj (.text:HOSTwrite)
                  800287e0    000000c0     ipc.ae66 : Ipc.obj (.text:HeapMemMP_create)
                  800288a0    000000c0              : Ipc.obj (.text:ListMP_create)
                  80028960    000000c0              : Ipc.obj (.text:SharedRegion_getId)
                  80028a20    000000c0     rts6600_elf_mt.lib : dtor_list.obj (.text:__cxa_finalize)
                  80028ae0    000000c0                        : divu.obj (.text:__divu)
                  80028ba0    000000c0                        : fflush.obj (.text:_doflush)
                  80028c60    000000c0     ti.omp.ae66 : parallel.oe66 (.text:gomp_sem_wait)
                  80028d20    000000c0                 : task.oe66 (.text:gomp_sem_wait)
                  80028de0    000000c0                 : team.oe66 (.text:gomp_sem_wait)
                  80028ea0    000000c0                 : work.oe66 (.text:gomp_sem_wait)
                  80028f60    000000c0     ti.omp.config.sysbios.ae66 : bar.oe66 (.text:gomp_sem_wait)
                  80029020    000000c0     ti.omp.ae66 : work.oe66 (.text:gomp_work_share_start)
                  800290e0    000000c0     ti.omp.config.sysbios.ae66 : preinit.oe66 (.text:initMPAX)
                  800291a0    000000c0     rts6600_elf_mt.lib : _mutex.obj (.text:mutex_init)
                  80029260    000000c0                        : _pthread.obj (.text:pthread_mutex_lock)
                  80029320    000000c0                        : _pthread.obj (.text:pthread_mutex_unlock)
                  800293e0    000000c0                        : _pthread.obj (.text:pthread_once)
                  800294a0    000000c0     ti.omp.utils.C6678.ae66 : OpenMPDnldCore.oe66 (.text:reset_core)
                  80029560    000000c0     ti.omp.utils.ae66 : OpenMP.oe66 (.text:ti_omp_utils_OpenMP_threadSpawnLoop__I)
                  80029620    000000c0                       : ThreadLocal.oe66 (.text:ti_omp_utils_ThreadLocal_exitFxn__F)
                  800296e0    000000c0     omp_config_pe66.oe66 (.text:ti_sdo_ipc_GateMP_Object__create__S)
                  800297a0    000000c0     ipc.ae66 : Ipc.obj (.text:ti_sdo_ipc_GateMP_getRegion0ReservedSize__F)
                  80029860    000000c0     omp_config_pe66.oe66 (.text:ti_sdo_ipc_ListMP_Object__create__S)
                  80029920    000000c0     ipc.ae66 : Ipc.obj (.text:ti_sdo_ipc_Notify_execMany__I)
                  800299e0    000000c0     omp_config_pe66.oe66 (.text:ti_sdo_ipc_gates_GatePeterson_Object__create__S)
                  80029aa0    000000c0     omp_config_pe66.oe66 (.text:ti_sdo_ipc_heaps_HeapMemMP_Object__create__S)
                  80029b60    000000c0     omp_config_pe66.oe66 (.text:ti_sdo_ipc_notifyDrivers_NotifyDriverShm_Object__create__S)
                  80029c20    000000c0     omp_config_pe66.oe66 (.text:ti_sdo_ipc_nsremote_NameServerRemoteNotify_Object__create__S)
                  80029ce0    000000c0     omp_config_pe66.oe66 (.text:ti_sdo_ipc_transports_TransportShm_Object__create__S)
                  80029da0    000000c0     sysbios.ae66 : BIOS.obj (.text:ti_sysbios_BIOS_errorRaiseHook__I)
                  80029e60    000000c0                  : BIOS.obj (.text:ti_sysbios_gates_GateAll_leave__E)
                  80029f20    000000c0                  : BIOS.obj (.text:ti_sysbios_heaps_HeapMem_getStats__E)
                  80029fe0    000000c0                  : BIOS.obj (.text:ti_sysbios_knl_Clock_logTick__E)
                  8002a0a0    000000c0                  : BIOS.obj (.text:ti_sysbios_knl_Swi_Instance_finalize__F)
                  8002a160    000000c0     omp_config_pe66.oe66 (.text:ti_sysbios_knl_Swi_Object__create__S)
                  8002a220    000000c0     omp_config_pe66.oe66 (.text:ti_sysbios_knl_Task_Object__create__S)
                  8002a2e0    000000c0     sysbios.ae66 : BIOS.obj (.text:ti_sysbios_knl_Task_allBlockedFunction__I)
                  8002a3a0    000000c0                  : BIOS.obj (.text:ti_sysbios_timers_timer64_Timer_stop__E)
                  8002a460    000000c0     rts6600_elf_mt.lib : tls.obj (.text:tls:init:__TI_tls_init)
                  8002a520    000000c0                        : vfprintf.obj (.text:vfprintf)
                  8002a5e0    000000c0     ti.targets.rts6000.ae66 : System.oe66 (.text:xdc_runtime_System_formatNum__I)
                  8002a6a0    000000c0     omp_config_pe66.oe66 (.text:xdc_runtime_knl_GateThread_Object__create__S)
                  8002a760    000000a0     ti.omp.config.sysbios.ae66 : preinit.oe66 (.text:CSL_XMC_getXMPAXL)
                  8002a800    000000a0     ti.omp.ae66 : parallel.oe66 (.text:GOMP_parallel_end)
                  8002a8a0    000000a0     rts6600_elf_mt.lib : trgdrv.obj (.text:HOSTunlink)
                  8002a940    000000a0     ti.drv.qmss.ae66 : qmss_drv.oe66 (.text:Qmss_startCfg)
                  8002a9e0    000000a0     rts6600_elf_mt.lib : dtor_list.obj (.text:_Z11__TI_atexitPFYvPvES_S_)
                  8002aa80    000000a0                        : remu.obj (.text:__remu)
                  8002ab20    000000a0                        : fopen.obj (.text:_cleanup)
                  8002abc0    000000a0                        : _printfi.obj (.text:_ecpy)
                  8002ac60    000000a0                        : _printfi.obj (.text:_fcpy)
                  8002ad00    000000a0                        : _printfi.obj (.text:_pconv_f)
                  8002ada0    000000a0     sysbios.ae66 : c64p_Hwi_asm.obj (.text:_ti_sysbios_family_c64p_Hwi_plug__E)
                  8002ae40    000000a0     rts6600_elf_mt.lib : lowlev.obj (.text:finddevice)
                  8002aee0    000000a0     ti.omp.config.sysbios.ae66 : bar.oe66 (.text:gomp_barrier_wait_end)
                  8002af80    000000a0     ti.omp.ae66 : loop.oe66 (.text:gomp_loop_init)
                  8002b020    000000a0                 : work.oe66 (.text:gomp_work_share_end)
                  8002b0c0    000000a0     ti.omp.navigator.ae66 : Navigator.oe66 (.text:init_Navigator)
                  8002b160    000000a0     rts6600_elf_mt.lib : lowlev.obj (.text:lseek)
                  8002b200    000000a0                        : memcpy64.obj (.text:memcpy)
                  8002b2a0    000000a0                        : _mutex.obj (.text:mutex_unlock)
                  8002b340    000000a0     omp_config_pe66.oe66 (.text:realloc)
                  8002b3e0    000000a0     rts6600_elf_mt.lib : strerror.obj (.text:strerror)
                  8002b480    000000a0     ipc.ae66 : Ipc.obj (.text:ti_sdo_ipc_family_c647x_Interrupt_intUnregister__E)
                  8002b520    000000a0              : Ipc.obj (.text:ti_sdo_ipc_gates_GatePeterson_leave__E)
                  8002b5c0    000000a0              : Ipc.obj (.text:ti_sdo_ipc_notifyDrivers_NotifyDriverShm_Instance_finalize__F)
                  8002b660    000000a0     sysbios.ae66 : BIOS.obj (.text:ti_sysbios_heaps_HeapMem_init__I)
                  8002b700    000000a0                  : BIOS.obj (.text:ti_sysbios_knl_Idle_run__E)
                  8002b7a0    000000a0                  : BIOS.obj (.text:ti_sysbios_knl_Task_deleteTerminatedTasksFunc__I)
                  8002b840    000000a0     rts6600_elf_mt.lib : lowlev.obj (.text:write)
                  8002b8e0    000000a0     ti.targets.rts6000.ae66 : Assert.oe66 (.text:xdc_runtime_Assert_raise__I)
                  8002b980    000000a0                             : SysMin.oe66 (.text:xdc_runtime_SysMin_abort__F)
                  8002ba20    000000a0                             : SysMin.oe66 (.text:xdc_runtime_SysMin_flush__F)
                  8002bac0    000000a0                             : SysMin.oe66 (.text:xdc_runtime_SysMin_putch__F)
                  8002bb60    00000080     rts6600_elf_mt.lib : trgdrv.obj (.text:HOSTclose)
                  8002bbe0    00000080                        : trgdrv.obj (.text:HOSTtime)
                  8002bc60    00000080     ti.drv.qmss.ae66 : qmss_drv.oe66 (.text:Qmss_getMemRegQueueHandle)
                  8002bce0    00000080                      : qmss_drv.oe66 (.text:Qmss_queueOpen)
                  8002bd60    00000080     rts6600_elf_mt.lib : _mutex.obj (.text:__TI_resource_lock)
                  8002bde0    00000080                        : llshift.obj (.text:__c6xabi_llshl)
                  8002be60    00000080     sysbios.ae66 : c62_TaskSupport_asm.obj (.text:_ti_sysbios_family_c62_TaskSupport_swap__E)
                  8002bee0    00000080     ti.omp.ae66 : work.oe66 (.text:free_work_share)
                  8002bf60    00000080                 : task.oe66 (.text:gomp_init_task)
                  8002bfe0    00000080                 : loop.oe66 (.text:gomp_loop_static_start)
                  8002c060    00000080                 : alloc.oe66 (.text:gomp_realloc)
                  8002c0e0    00000080                 : loop.oe66 (.text:gomp_sem_post)
                  8002c160    00000080                 : parallel.oe66 (.text:gomp_sem_post)
                  8002c1e0    00000080                 : task.oe66 (.text:gomp_sem_post)
                  8002c260    00000080                 : team.oe66 (.text:gomp_sem_post)
                  8002c2e0    00000080                 : work.oe66 (.text:gomp_sem_post)
                  8002c360    00000080     ti.omp.config.sysbios.ae66 : bar.oe66 (.text:gomp_sem_post)
                  8002c3e0    00000080     omp_config_pe66.oe66 (.text:malloc)
                  8002c460    00000080     rts6600_elf_mt.lib : _mutex.obj (.text:mutex_lock)
                  8002c4e0    00000080                        : _pthread.obj (.text:pthread_mutex_init)
                  8002c560    00000080     ti.omp.navigator.ae66 : Navigator.oe66 (.text:queue_pop_elem_wait)
                  8002c5e0    00000080     rts6600_elf_mt.lib : trgmsg.obj (.text:readmsg)
                  8002c660    00000080     omp_config_pe66.oe66 (.text:ti_omp_utils_HeapOMP_Object__create__S)
                  8002c6e0    00000080     ti.omp.utils.ae66 : OpenMP.oe66 (.text:ti_omp_utils_OpenMP_exitThread__F)
                  8002c760    00000080                       : OpenMP.oe66 (.text:ti_omp_utils_OpenMP_mainTask__I)
                  8002c7e0    00000080                       : ThreadLocalStorage.oe66 (.text:ti_omp_utils_ThreadLocalStorage_createFxn__F)
                  8002c860    00000080     omp_config_pe66.oe66 (.text:ti_sdo_ipc_gates_GateHWSem_Object__create__S)
                  8002c8e0    00000080     omp_config_pe66.oe66 (.text:ti_sdo_ipc_gates_GateMPSupportNull_Object__create__S)
                  8002c960    00000080     ipc.ae66 : Ipc.obj (.text:ti_sdo_ipc_nsremote_NameServerRemoteNotify_detach__E)
                  8002c9e0    00000080              : Ipc.obj (.text:ti_sdo_ipc_transports_TransportShm_swiFxn__I)
                  8002ca60    00000080     omp_config_pe66.oe66 (.text:ti_sdo_utils_List_Object__create__S)
                  8002cae0    00000080     sysbios.ae66 : BIOS.obj (.text:ti_sysbios_BIOS_exit__E)
                  8002cb60    00000080                  : BIOS.obj (.text:ti_sysbios_family_c62_TaskSupport_start__E)
                  8002cbe0    00000080                  : BIOS.obj (.text:ti_sysbios_family_c64p_Exception_Module_startup__F)
                  8002cc60    00000080                  : BIOS.obj (.text:ti_sysbios_family_c64p_Hwi_eventMap__E)
                  8002cce0    00000080                  : BIOS.obj (.text:ti_sysbios_family_c66_Cache_invL1pAll__E)
                  8002cd60    00000080     omp_config_pe66.oe66 (.text:ti_sysbios_gates_GateAll_Object__create__S)
                  8002cde0    00000080     omp_config_pe66.oe66 (.text:ti_sysbios_gates_GateHwi_Object__create__S)
                  8002ce60    00000080     omp_config_pe66.oe66 (.text:ti_sysbios_gates_GateMutexPri_Object__create__S)
                  8002cee0    00000080     omp_config_pe66.oe66 (.text:ti_sysbios_gates_GateMutex_Object__create__S)
                  8002cf60    00000080     omp_config_pe66.oe66 (.text:ti_sysbios_gates_GateSwi_Object__create__S)
                  8002cfe0    00000080     sysbios.ae66 : BIOS.obj (.text:ti_sysbios_gates_GateSwi_leave__E)
                  8002d060    00000080                  : BIOS.obj (.text:ti_sysbios_hal_Hwi_checkStack:ti_sysbios_hal_Hwi_checkStack)
                  8002d0e0    00000080     omp_config_pe66.oe66 (.text:ti_sysbios_heaps_HeapMem_Object__create__S)
                  8002d160    00000080     sysbios.ae66 : BIOS.obj (.text:ti_sysbios_knl_Clock_Module_startup__F)
                  8002d1e0    00000080     omp_config_pe66.oe66 (.text:ti_sysbios_knl_Clock_Object__create__S)
                  8002d260    00000080     sysbios.ae66 : BIOS.obj (.text:ti_sysbios_knl_Clock_getTicks__E)
                  8002d2e0    00000080     omp_config_pe66.oe66 (.text:ti_sysbios_knl_Queue_Object__create__S)
                  8002d360    00000080     omp_config_pe66.oe66 (.text:ti_sysbios_knl_Semaphore_Object__create__S)
                  8002d3e0    00000080     sysbios.ae66 : BIOS.obj (.text:ti_sysbios_knl_Semaphore_pendTimeout__I)
                  8002d460    00000080                  : BIOS.obj (.text:ti_sysbios_knl_Swi_startup__E)
                  8002d4e0    00000080                  : BIOS.obj (.text:ti_sysbios_knl_Task_restore__E)
                  8002d560    00000080                  : BIOS.obj (.text:ti_sysbios_timers_timer64_Timer_getCount__E)
                  8002d5e0    00000080                  : BIOS.obj (.text:ti_sysbios_timers_timer64_Timer_getPeriod__E)
                  8002d660    00000080     omp_config_pe66.oe66 (.text:ti_sysbios_xdcruntime_GateThreadSupport_Object__create__S)
                  8002d6e0    00000080     rts6600_elf_mt.lib : trgmsg.obj (.text:writemsg)
                  8002d760    00000080     ti.targets.rts6000.ae66 : Core-label.oe66 (.text:xdc_runtime_Core_assignLabel__I)
                  8002d7e0    00000080                             : Core-params.oe66 (.text:xdc_runtime_Core_assignParams__I)
                  8002d860    00000080                             : System.oe66 (.text:xdc_runtime_System_atexit__F)
                  8002d8e0    00000080                             : System.oe66 (.text:xdc_runtime_System_rtsExit__I)
                  8002d960    00000080                             : Text.oe66 (.text:xdc_runtime_Text_printVisFxn__I)
                  8002d9e0    00000080                             : Text.oe66 (.text:xdc_runtime_Text_xprintf__I)
                  8002da60    00000060     ti.omp.navigator.ae66 : Navigator.oe66 (.text:CACHE_invL1d)
                  8002dac0    00000060     ti.omp.navigatorOsal.ae66 : Navigatorosal.oe66 (.text:CACHE_invL1d)
                  8002db20    00000060     ti.omp.navigator.ae66 : Navigator.oe66 (.text:CACHE_wbL1d)
                  8002db80    00000060     ti.omp.navigatorOsal.ae66 : Navigatorosal.oe66 (.text:CACHE_wbL1d)
                  8002dbe0    00000060     ti.omp.config.sysbios.ae66 : preinit.oe66 (.text:CSL_XMC_getXMPAXH)
                  8002dc40    00000060     ti.omp.navigator.ae66 : Navigator.oe66 (.text:Cppi_setSoftwareInfo0)
                  8002dca0    00000060     ipc.ae66 : Ipc.obj (.text:GateMP_Params_init)
                  8002dd00    00000060              : Ipc.obj (.text:HeapMemMP_Params_init)
                  8002dd60    00000060     ti.omp.utils.ae66 : HeapOMP.oe66 (.text:HeapOMP_getHeapFromAddr)
                  8002ddc0    00000060     ipc.ae66 : Ipc.obj (.text:Notify_numIntLines)
                  8002de20    00000060     rts6600_elf_mt.lib : frcmpyd_div.obj (.text:__c6xabi_frcmpyd_div)
                  8002de80    00000060                        : llshift.obj (.text:__c6xabi_llshru)
                  8002dee0    00000060                        : imath64.obj (.text:_subcull)
                  8002df40    00000060     omp_config_pe66.oe66 (.text:calloc)
                  8002dfa0    00000060     rts6600_elf_mt.lib : _mutex.obj (.text:create_resource_mutexes)
                  8002e000    00000060                        : _mutex.obj (.text:destroy_resource_mutexes)
                  8002e060    00000060     ti.omp.ae66 : work.oe66 (.text:gomp_barrier_wait_start)
                  8002e0c0    00000060     ti.omp.config.sysbios.ae66 : bar.oe66 (.text:gomp_barrier_wait_start)
                  8002e120    00000060     ti.omp.ae66 : task.oe66 (.text:gomp_clear_parent)
                  8002e180    00000060                 : work.oe66 (.text:gomp_fini_work_share)
                  8002e1e0    00000060                 : task.oe66 (.text:gomp_flush0)
                  8002e240    00000060     ti.omp.config.sysbios.ae66 : bar.oe66 (.text:gomp_flush0)
                  8002e2a0    00000060     ti.omp.ae66 : env.oe66 (.text:gomp_icv)
                  8002e300    00000060                 : parallel.oe66 (.text:gomp_icv)
                  8002e360    00000060                 : alloc.oe66 (.text:gomp_malloc)
                  8002e3c0    00000060                 : team.oe66 (.text:gomp_new_icv)
                  8002e420    00000060                 : work.oe66 (.text:gomp_ptrlock_get)
                  8002e480    00000060     ti.omp.config.sysbios.ae66 : bar.oe66 (.text:gomp_team_barrier_wake)
                  8002e4e0    00000060     ti.omp.ae66 : error.oe66 (.text:gomp_verror)
                  8002e540    00000060     rts6600_elf_mt.lib : memccpy.obj (.text:memccpy)
                  8002e5a0    00000060                        : _pthread.obj (.text:pthread_mutex_destroy)
                  8002e600    00000060     ti.omp.navigator.ae66 : Navigator.oe66 (.text:queue_push_elem)
                  8002e660    00000060     rts6600_elf_mt.lib : rand.obj (.text:rand)
                  8002e6c0    00000060                        : strncmp.obj (.text:strncmp)
                  8002e720    00000060     ti.omp.ae66 : team.oe66 (.text:team_destructor)
                  8002e780    00000060     ti.omp.utils.ae66 : HeapOMP.oe66 (.text:ti_omp_utils_HeapOMP_alloc__E)
                  8002e7e0    00000060                       : OpenMP.oe66 (.text:ti_omp_utils_OpenMP_setProcId__I)
                  8002e840    00000060                       : ThreadLocalStorage.oe66 (.text:ti_omp_utils_ThreadLocalStorage_deleteFxn__F)
                  8002e8a0    00000060     omp_config_pe66.oe66 (.text:ti_sdo_ipc_MessageQ_Object__get__S)
                  8002e900    00000060     ipc.ae66 : Ipc.obj (.text:ti_sdo_ipc_family_c647x_NotifySetup_sharedMemReq__E)
                  8002e960    00000060              : Ipc.obj (.text:ti_sdo_ipc_gates_GateHWSem_leave__E)
                  8002e9c0    00000060              : Ipc.obj (.text:ti_sdo_ipc_gates_GatePeterson_Instance_finalize__F)
                  8002ea20    00000060              : Ipc.obj (.text:ti_sdo_ipc_gates_GatePeterson_sharedMemReq__E)
                  8002ea80    00000060              : Ipc.obj (.text:ti_sdo_ipc_notifyDrivers_NotifyDriverShm_setNotifyHandle__E)
                  8002eae0    00000060              : Ipc.obj (.text:ti_sdo_ipc_transports_TransportShmSetup_sharedMemReq__E)
                  8002eb40    00000060     omp_config_pe66.oe66 (.text:ti_sdo_utils_List_Object__get__S)
                  8002eba0    00000060     omp_config_pe66.oe66 (.text:ti_sdo_utils_NameServer_Object__get__S)
                  8002ec00    00000060     omp_config_pe66.oe66 (.text:ti_sysbios_BIOS_exitFunc__I)
                  8002ec60    00000060     sysbios.ae66 : BIOS.obj (.text:ti_sysbios_BIOS_registerRTSLock__I)
                  8002ecc0    00000060                  : BIOS.obj (.text:ti_sysbios_gates_GateAll_enter__E)
                  8002ed20    00000060                  : BIOS.obj (.text:ti_sysbios_gates_GateMutex_Instance_init__F)
                  8002ed80    00000060                  : BIOS.obj (.text:ti_sysbios_hal_Hwi_initStack:ti_sysbios_hal_Hwi_initStack)
                  8002ede0    00000060     omp_config_pe66.oe66 (.text:ti_sysbios_heaps_HeapBuf_Object__get__S)
                  8002ee40    00000060     omp_config_pe66.oe66 (.text:ti_sysbios_heaps_HeapMem_Object__get__S)
                  8002eea0    00000060     omp_config_pe66.oe66 (.text:ti_sysbios_knl_Clock_doTick__I)
                  8002ef00    00000060     omp_config_pe66.oe66 (.text:ti_sysbios_knl_Queue_Object__get__S)
                  8002ef60    00000060     sysbios.ae66 : BIOS.obj (.text:ti_sysbios_knl_Swi_Module_startup__F)
                  8002efc0    00000060     omp_config_pe66.oe66 (.text:ti_sysbios_knl_Swi_Object__get__S)
                  8002f020    00000060     omp_config_pe66.oe66 (.text:ti_sysbios_knl_Task_Object__get__S)
                  8002f080    00000060     sysbios.ae66 : BIOS.obj (.text:ti_sysbios_knl_Task_enter__I)
                  8002f0e0    00000060     rts6600_elf_mt.lib : lowlev.obj (.text:unlink)
                  8002f140    00000060     omp_config_pe66.oe66 (.text:xdc_runtime_GateNull_Object__create__S)
                  8002f1a0    00000060     ti.targets.rts6000.ae66 : Memory.oe66 (.text:xdc_runtime_Memory_calloc__F)
                  8002f200    00000060                             : Memory.oe66 (.text:xdc_runtime_Memory_valloc__F)
                  8002f260    00000060                             : SysMin.oe66 (.text:xdc_runtime_SysMin_Module_startup__F)
                  8002f2c0    00000060                             : SysMin.oe66 (.text:xdc_runtime_SysMin_exit__F)
                  8002f320    00000060     omp_config_pe66.oe66 (.text:xdc_runtime_SysMin_output__I)
                  8002f380    00000060     ti.targets.rts6000.ae66 : System.oe66 (.text:xdc_runtime_System_avprintf__F)
                  8002f3e0    00000060                             : System.oe66 (.text:xdc_runtime_System_vprintf__F)
                  8002f440    00000060                             : Text.oe66 (.text:xdc_runtime_Text_cordText__F)
                  8002f4a0    00000040     ti.omp.ae66 : task.oe66 (.text:CACHE_invAllL2)
                  8002f4e0    00000040     ti.omp.config.sysbios.ae66 : bar.oe66 (.text:CACHE_invAllL2)
                  8002f520    00000040     ti.omp.ae66 : task.oe66 (.text:CACHE_invAllL2Wait)
                  8002f560    00000040     ti.omp.config.sysbios.ae66 : bar.oe66 (.text:CACHE_invAllL2Wait)
                  8002f5a0    00000040     ti.omp.navigator.ae66 : Navigator.oe66 (.text:CACHE_invL1dWait)
                  8002f5e0    00000040     ti.omp.navigatorOsal.ae66 : Navigatorosal.oe66 (.text:CACHE_invL1dWait)
                  8002f620    00000040     ti.omp.ae66 : task.oe66 (.text:CACHE_wbInvAllL1d)
                  8002f660    00000040     ti.omp.config.sysbios.ae66 : bar.oe66 (.text:CACHE_wbInvAllL1d)
                  8002f6a0    00000040     ti.omp.ae66 : task.oe66 (.text:CACHE_wbInvAllL1dWait)
                  8002f6e0    00000040     ti.omp.config.sysbios.ae66 : bar.oe66 (.text:CACHE_wbInvAllL1dWait)
                  8002f720    00000040     ti.omp.navigator.ae66 : Navigator.oe66 (.text:CACHE_wbL1dWait)
                  8002f760    00000040     ti.omp.navigatorOsal.ae66 : Navigatorosal.oe66 (.text:CACHE_wbL1dWait)
                  8002f7a0    00000040     ti.omp.config.sysbios.ae66 : preinit.oe66 (.text:CSL_XMC_setXMPAXH)
                  8002f7e0    00000040     ti.omp.ae66 : loop.oe66 (.text:CSL_semAcquireDirect)
                  8002f820    00000040                 : parallel.oe66 (.text:CSL_semAcquireDirect)
                  8002f860    00000040                 : task.oe66 (.text:CSL_semAcquireDirect)
                  8002f8a0    00000040                 : team.oe66 (.text:CSL_semAcquireDirect)
                  8002f8e0    00000040                 : work.oe66 (.text:CSL_semAcquireDirect)
                  8002f920    00000040     ti.omp.config.sysbios.ae66 : bar.oe66 (.text:CSL_semAcquireDirect)
                  8002f960    00000040     ti.omp.navigatorOsal.ae66 : Navigatorosal.oe66 (.text:CSL_semAcquireDirect)
                  8002f9a0    00000040     ti.omp.ae66 : loop.oe66 (.text:CSL_semReleaseSemaphore)
                  8002f9e0    00000040                 : parallel.oe66 (.text:CSL_semReleaseSemaphore)
                  8002fa20    00000040                 : task.oe66 (.text:CSL_semReleaseSemaphore)
                  8002fa60    00000040                 : team.oe66 (.text:CSL_semReleaseSemaphore)
                  8002faa0    00000040                 : work.oe66 (.text:CSL_semReleaseSemaphore)
                  8002fae0    00000040     ti.omp.config.sysbios.ae66 : bar.oe66 (.text:CSL_semReleaseSemaphore)
                  8002fb20    00000040     ti.omp.navigatorOsal.ae66 : Navigatorosal.oe66 (.text:CSL_semReleaseSemaphore)
                  8002fb60    00000040     ti.omp.navigator.ae66 : Navigator.oe66 (.text:Cppi_getSoftwareInfo0)
                  8002fba0    00000040                           : Navigator.oe66 (.text:Create_Queue)
                  8002fbe0    00000040     ti.omp.ae66 : loop.oe66 (.text:GOMP_loop_static_start)
                  8002fc20    00000040                 : parallel.oe66 (.text:GOMP_parallel_start)
                  8002fc60    00000040     ti.omp.navigatorOsal.ae66 : Navigatorosal.oe66 (.text:Osal_cppiCsEnter)
                  8002fca0    00000040                               : Navigatorosal.oe66 (.text:Osal_qmssBeginMemAccess)
                  8002fce0    00000040                               : Navigatorosal.oe66 (.text:Osal_qmssCsEnter)
                  8002fd20    00000040                               : Navigatorosal.oe66 (.text:Osal_qmssEndMemAccess)
                  8002fd60    00000040     ti.drv.qmss.ae66 : qmss_drv.oe66 (.text:Qmss_getMemRegDescSize)
                  8002fda0    00000040     ti.omp.navigator.ae66 : Navigator.oe66 (.text:Qmss_getQueueEntryCount)
                  8002fde0    00000040                           : Navigator.oe66 (.text:Qmss_queueEmpty)
                  8002fe20    00000040                           : Navigator.oe66 (.text:Qmss_queuePop)
                  8002fe60    00000040                           : Navigator.oe66 (.text:Qmss_queuePushDesc)
                  8002fea0    00000040     rts6600_elf_mt.lib : _data_synch.obj (.text:__TI_data_synch_WB)
                  8002fee0    00000040                        : _data_synch.obj (.text:__TI_data_synch_WBINV)
                  8002ff20    00000040                        : _mutex.obj (.text:__TI_resource_unlock)
                  8002ff60    00000040                        : isinf.obj (.text:__c6xabi_isinf)
                  8002ffa0    00000040                        : _printfi.obj (.text:__c6xabi_isnan)
                  8002ffe0    00000040                        : args_main.obj (.text:_args_main)
                  80030020    00000040     sysbios.ae66 : c62_TaskSupport_asm.obj (.text:_ti_sysbios_family_c62_TaskSupport_buildTaskStack)
                  80030060    00000040                  : c64p_Hwi_asm_switch.obj (.text:_ti_sysbios_family_xxx_Hwi_switchToIsrStack)
                  800300a0    00000040     omp_config_pe66.oe66 (.text:free)
                  800300e0    00000040     ti.omp.ae66 : team.oe66 (.text:free_team)
                  80030120    00000040     ti.omp.config.sysbios.ae66 : bar.oe66 (.text:gomp_barrier_destroy)
                  80030160    00000040                                : bar.oe66 (.text:gomp_barrier_reinit)
                  800301a0    00000040     ti.omp.ae66 : task.oe66 (.text:gomp_end_task)
                  800301e0    00000040                 : error.oe66 (.text:gomp_error)
                  80030220    00000040                 : error.oe66 (.text:gomp_fatal)
                  80030260    00000040                 : alloc.oe66 (.text:gomp_free)
                  800302a0    00000040                 : team.oe66 (.text:gomp_free_pool_helper)
                  800302e0    00000040                 : team.oe66 (.text:gomp_new_thread_pool)
                  80030320    00000040                 : work.oe66 (.text:gomp_ptrlock_init)
                  80030360    00000040                 : loop.oe66 (.text:gomp_ptrlock_set)
                  800303a0    00000040                 : critical.oe66 (.text:gomp_sem_init)
                  800303e0    00000040                 : env.oe66 (.text:gomp_sem_init)
                  80030420    00000040                 : task.oe66 (.text:gomp_sem_init)
                  80030460    00000040                 : team.oe66 (.text:gomp_sem_init)
                  800304a0    00000040                 : work.oe66 (.text:gomp_sem_init)
                  800304e0    00000040     ti.omp.config.sysbios.ae66 : bar.oe66 (.text:gomp_sem_init)
                  80030520    00000040     ti.omp.ae66 : task.oe66 (.text:gomp_team_barrier_waiting_for_tasks)
                  80030560    00000040     ti.omp.config.sysbios.ae66 : thread.oe66 (.text:gomp_thread_create)
                  800305a0    00000040     ti.omp.ae66 : loop.oe66 (.text:gomp_work_share_init_done)
                  800305e0    00000040     rts6600_elf_mt.lib : _mutex.obj (.text:init_mutexes)
                  80030620    00000040     ti.omp.ae66 : critical.oe66 (.text:initialize_critical)
                  80030660    00000040     ti.omp.utils.ae66 : ThreadLocalStorage.oe66 (.text:isTLSRequired)
                  800306a0    00000040     ti.omp.navigator.ae66 : Navigator.oe66 (.text:l2_global_address)
                  800306e0    00000040     ti.omp.ae66 : env.oe66 (.text:omp_check_defines)
                  80030720    00000040                 : env.oe66 (.text:omp_set_num_threads)
                  80030760    00000040     rts6600_elf_mt.lib : _pthread.obj (.text:pthread_self)
                  800307a0    00000040     sysbios.ae66 : BIOS.obj (.text:rtsLock$0)
                  800307e0    00000040     rts6600_elf_mt.lib : rand.obj (.text:srand)
                  80030820    00000040     omp_config_pe66.oe66 (.text:ti_omp_utils_HeapOMP_Handle__label__S)
                  80030860    00000040     ti.omp.utils.ae66 : HeapOMP.oe66 (.text:ti_omp_utils_HeapOMP_Instance_init__F)
                  800308a0    00000040     omp_config_pe66.oe66 (.text:ti_omp_utils_HeapOMP_Object__delete__S)
                  800308e0    00000040     ti.omp.utils.ae66 : HeapOMP.oe66 (.text:ti_omp_utils_HeapOMP_free__E)
                  80030920    00000040                       : SemaphoreMP.oe66 (.text:ti_omp_utils_SemaphoreMP_cbFxn__I)
                  80030960    00000040                       : SemaphoreMP.oe66 (.text:ti_omp_utils_SemaphoreMP_start__F)
                  800309a0    00000040                       : ThreadLocalStorage.oe66 (.text:ti_omp_utils_ThreadLocalStorage_switchFxn__F)
                  800309e0    00000040                       : ThreadLocal.oe66 (.text:ti_omp_utils_ThreadLocal_createFxn__F)
                  80030a20    00000040     omp_config_pe66.oe66 (.text:ti_sdo_ipc_GateMP_Object__delete__S)
                  80030a60    00000040     omp_config_pe66.oe66 (.text:ti_sdo_ipc_GateMP_Params__init__S)
                  80030aa0    00000040     omp_config_pe66.oe66 (.text:ti_sdo_ipc_GateMP_RemoteCustom1Proxy_Object__create__S)
                  80030ae0    00000040     omp_config_pe66.oe66 (.text:ti_sdo_ipc_GateMP_RemoteCustom2Proxy_Object__create__S)
                  80030b20    00000040     omp_config_pe66.oe66 (.text:ti_sdo_ipc_GateMP_RemoteSystemProxy_Object__create__S)
                  80030b60    00000040     omp_config_pe66.oe66 (.text:ti_sdo_ipc_ListMP_Object__delete__S)
                  80030ba0    00000040     omp_config_pe66.oe66 (.text:ti_sdo_ipc_ListMP_Params__init__S)
                  80030be0    00000040     omp_config_pe66.oe66 (.text:ti_sdo_ipc_MessageQ_registerTransport__E)
                  80030c20    00000040     ipc.ae66 : Ipc.obj (.text:ti_sdo_ipc_family_c647x_Interrupt_intClear__E)
                  80030c60    00000040              : Ipc.obj (.text:ti_sdo_ipc_family_c647x_Interrupt_intSend__E)
                  80030ca0    00000040     omp_config_pe66.oe66 (.text:ti_sdo_ipc_gates_GateHWSem_Handle__label__S)
                  80030ce0    00000040     omp_config_pe66.oe66 (.text:ti_sdo_ipc_gates_GateHWSem_Object__delete__S)
                  80030d20    00000040     omp_config_pe66.oe66 (.text:ti_sdo_ipc_gates_GateHWSem_Params__init__S)
                  80030d60    00000040     omp_config_pe66.oe66 (.text:ti_sdo_ipc_gates_GateMPSupportNull_Handle__label__S)
                  80030da0    00000040     omp_config_pe66.oe66 (.text:ti_sdo_ipc_gates_GateMPSupportNull_Object__delete__S)
                  80030de0    00000040     omp_config_pe66.oe66 (.text:ti_sdo_ipc_gates_GateMPSupportNull_Params__init__S)
                  80030e20    00000040     omp_config_pe66.oe66 (.text:ti_sdo_ipc_gates_GatePeterson_Handle__label__S)
                  80030e60    00000040     omp_config_pe66.oe66 (.text:ti_sdo_ipc_gates_GatePeterson_Object__delete__S)
                  80030ea0    00000040     omp_config_pe66.oe66 (.text:ti_sdo_ipc_gates_GatePeterson_Params__init__S)
                  80030ee0    00000040     omp_config_pe66.oe66 (.text:ti_sdo_ipc_heaps_HeapMemMP_Handle__label__S)
                  80030f20    00000040     omp_config_pe66.oe66 (.text:ti_sdo_ipc_heaps_HeapMemMP_Object__delete__S)
                  80030f60    00000040     omp_config_pe66.oe66 (.text:ti_sdo_ipc_heaps_HeapMemMP_Params__init__S)
                  80030fa0    00000040     omp_config_pe66.oe66 (.text:ti_sdo_ipc_notifyDrivers_NotifyDriverShm_Handle__label__S)
                  80030fe0    00000040     omp_config_pe66.oe66 (.text:ti_sdo_ipc_notifyDrivers_NotifyDriverShm_InterruptProxy_intRegister__E)
                  80031020    00000040     omp_config_pe66.oe66 (.text:ti_sdo_ipc_notifyDrivers_NotifyDriverShm_Object__delete__S)
                  80031060    00000040     omp_config_pe66.oe66 (.text:ti_sdo_ipc_notifyDrivers_NotifyDriverShm_Params__init__S)
                  800310a0    00000040     ipc.ae66 : Ipc.obj (.text:ti_sdo_ipc_notifyDrivers_NotifyDriverShm_disable__E)
                  800310e0    00000040              : Ipc.obj (.text:ti_sdo_ipc_notifyDrivers_NotifyDriverShm_enable__E)
                  80031120    00000040     omp_config_pe66.oe66 (.text:ti_sdo_ipc_nsremote_NameServerRemoteNotify_Handle__label__S)
                  80031160    00000040     omp_config_pe66.oe66 (.text:ti_sdo_ipc_nsremote_NameServerRemoteNotify_Object__delete__S)
                  800311a0    00000040     omp_config_pe66.oe66 (.text:ti_sdo_ipc_nsremote_NameServerRemoteNotify_Object__first__S)
                  800311e0    00000040     omp_config_pe66.oe66 (.text:ti_sdo_ipc_nsremote_NameServerRemoteNotify_Object__next__S)
                  80031220    00000040     omp_config_pe66.oe66 (.text:ti_sdo_ipc_nsremote_NameServerRemoteNotify_Params__init__S)
                  80031260    00000040     omp_config_pe66.oe66 (.text:ti_sdo_ipc_nsremote_NameServerRemoteNotify_get__E)
                  800312a0    00000040     ipc.ae66 : Ipc.obj (.text:ti_sdo_ipc_nsremote_NameServerRemoteNotify_sharedMemReq__E)
                  800312e0    00000040     omp_config_pe66.oe66 (.text:ti_sdo_ipc_transports_TransportShm_Handle__label__S)
                  80031320    00000040     omp_config_pe66.oe66 (.text:ti_sdo_ipc_transports_TransportShm_Object__delete__S)
                  80031360    00000040     omp_config_pe66.oe66 (.text:ti_sdo_ipc_transports_TransportShm_Params__init__S)
                  800313a0    00000040     omp_config_pe66.oe66 (.text:ti_sdo_utils_List_Object__destruct__S)
                  800313e0    00000040     omp_config_pe66.oe66 (.text:ti_sdo_utils_NameServer_Module__startupDone__F)
                  80031420    00000040     omp_config_pe66.oe66 (.text:ti_sdo_utils_NameServer_Object__first__S)
                  80031460    00000040     omp_config_pe66.oe66 (.text:ti_sdo_utils_NameServer_Object__next__S)
                  800314a0    00000040     omp_config_pe66.oe66 (.text:ti_sysbios_BIOS_startFunc__I)
                  800314e0    00000040     sysbios.ae66 : BIOS.obj (.text:ti_sysbios_BIOS_start__E)
                  80031520    00000040     omp_config_pe66.oe66 (.text:ti_sysbios_family_c64p_Hwi_Module__startupDone__F)
                  80031560    00000040     omp_config_pe66.oe66 (.text:ti_sysbios_family_c64p_Hwi_Object__delete__S)
                  800315a0    00000040     omp_config_pe66.oe66 (.text:ti_sysbios_family_c64p_Hwi_Params__init__S)
                  800315e0    00000040     sysbios.ae66 : BIOS.obj (.text:ti_sysbios_family_c64p_Hwi_disableInterrupt__E)
                  80031620    00000040                  : BIOS.obj (.text:ti_sysbios_family_c64p_Hwi_enableInterrupt__E)
                  80031660    00000040     omp_config_pe66.oe66 (.text:ti_sysbios_gates_GateAll_Handle__label__S)
                  800316a0    00000040     omp_config_pe66.oe66 (.text:ti_sysbios_gates_GateAll_Object__delete__S)
                  800316e0    00000040     omp_config_pe66.oe66 (.text:ti_sysbios_gates_GateHwi_Handle__label__S)
                  80031720    00000040     omp_config_pe66.oe66 (.text:ti_sysbios_gates_GateHwi_Object__delete__S)
                  80031760    00000040     omp_config_pe66.oe66 (.text:ti_sysbios_gates_GateMutexPri_Handle__label__S)
                  800317a0    00000040     sysbios.ae66 : BIOS.obj (.text:ti_sysbios_gates_GateMutexPri_Instance_finalize__F)
                  800317e0    00000040                  : BIOS.obj (.text:ti_sysbios_gates_GateMutexPri_Instance_init__F)
                  80031820    00000040     omp_config_pe66.oe66 (.text:ti_sysbios_gates_GateMutexPri_Object__delete__S)
                  80031860    00000040     omp_config_pe66.oe66 (.text:ti_sysbios_gates_GateMutexPri_Object__destruct__S)
                  800318a0    00000040     omp_config_pe66.oe66 (.text:ti_sysbios_gates_GateMutex_Handle__label__S)
                  800318e0    00000040     sysbios.ae66 : BIOS.obj (.text:ti_sysbios_gates_GateMutex_Instance_finalize__F)
                  80031920    00000040     omp_config_pe66.oe66 (.text:ti_sysbios_gates_GateMutex_Object__delete__S)
                  80031960    00000040     sysbios.ae66 : BIOS.obj (.text:ti_sysbios_gates_GateMutex_leave__E)
                  800319a0    00000040     omp_config_pe66.oe66 (.text:ti_sysbios_gates_GateSwi_Handle__label__S)
                  800319e0    00000040     omp_config_pe66.oe66 (.text:ti_sysbios_gates_GateSwi_Object__delete__S)
                  80031a20    00000040     omp_config_pe66.oe66 (.text:ti_sysbios_hal_Cache_CacheProxy_inv__E)
                  80031a60    00000040     omp_config_pe66.oe66 (.text:ti_sysbios_hal_Cache_CacheProxy_wbInv__E)
                  80031aa0    00000040     omp_config_pe66.oe66 (.text:ti_sysbios_hal_Timer_Module__startupDone__F)
                  80031ae0    00000040     omp_config_pe66.oe66 (.text:ti_sysbios_heaps_HeapMem_Handle__label__S)
                  80031b20    00000040     omp_config_pe66.oe66 (.text:ti_sysbios_heaps_HeapMem_Object__delete__S)
                  80031b60    00000040     omp_config_pe66.oe66 (.text:ti_sysbios_knl_Clock_Object__destruct__S)
                  80031ba0    00000040     omp_config_pe66.oe66 (.text:ti_sysbios_knl_Clock_Params__init__S)
                  80031be0    00000040     omp_config_pe66.oe66 (.text:ti_sysbios_knl_Queue_Object__destruct__S)
                  80031c20    00000040     sysbios.ae66 : BIOS.obj (.text:ti_sysbios_knl_Semaphore_Instance_finalize__F)
                  80031c60    00000040     omp_config_pe66.oe66 (.text:ti_sysbios_knl_Semaphore_Object__destruct__S)
                  80031ca0    00000040     omp_config_pe66.oe66 (.text:ti_sysbios_knl_Semaphore_Params__init__S)
                  80031ce0    00000040     omp_config_pe66.oe66 (.text:ti_sysbios_knl_Swi_Object__destruct__S)
                  80031d20    00000040     omp_config_pe66.oe66 (.text:ti_sysbios_knl_Swi_Params__init__S)
                  80031d60    00000040     omp_config_pe66.oe66 (.text:ti_sysbios_knl_Task_Object__delete__S)
                  80031da0    00000040     omp_config_pe66.oe66 (.text:ti_sysbios_knl_Task_Object__first__S)
                  80031de0    00000040     omp_config_pe66.oe66 (.text:ti_sysbios_knl_Task_Object__next__S)
                  80031e20    00000040     omp_config_pe66.oe66 (.text:ti_sysbios_knl_Task_Params__init__S)
                  80031e60    00000040     ti.omp.utils.ae66 : OpenMP.oe66 (.text:ti_sysbios_knl_Task_create)
                  80031ea0    00000040     sysbios.ae66 : BIOS.obj (.text:ti_sysbios_knl_Task_unblock__E)
                  80031ee0    00000040     omp_config_pe66.oe66 (.text:ti_sysbios_timers_timer64_Timer_Module__startupDone__F)
                  80031f20    00000040     sysbios.ae66 : BIOS.obj (.text:ti_sysbios_xdcruntime_GateThreadSupport_Instance_finalize__F)
                  80031f60    00000040                  : BIOS.obj (.text:ti_sysbios_xdcruntime_GateThreadSupport_Instance_init__F)
                  80031fa0    00000040     omp_config_pe66.oe66 (.text:ti_sysbios_xdcruntime_GateThreadSupport_Object__delete__S)
                  80031fe0    00000040     sysbios.ae66 : BIOS.obj (.text:ti_sysbios_xdcruntime_GateThreadSupport_enter__F)
                  80032020    00000040                  : BIOS.obj (.text:ti_sysbios_xdcruntime_GateThreadSupport_leave__F)
                  80032060    00000040     rts6600_elf_mt.lib : time.obj (.text:time)
                  800320a0    00000040     ti.targets.rts6000.ae66 : Error.oe66 (.text:xdc_runtime_Error_check__F)
                  800320e0    00000040                             : Error.oe66 (.text:xdc_runtime_Error_init__F)
                  80032120    00000040     omp_config_pe66.oe66 (.text:xdc_runtime_Error_raiseX__E)
                  80032160    00000040     omp_config_pe66.oe66 (.text:xdc_runtime_GateNull_Handle__label__S)
                  800321a0    00000040     omp_config_pe66.oe66 (.text:xdc_runtime_GateNull_Object__delete__S)
                  800321e0    00000040     ti.targets.rts6000.ae66 : Gate.oe66 (.text:xdc_runtime_Gate_leaveSystem__F)
                  80032220    00000040     omp_config_pe66.oe66 (.text:xdc_runtime_IHeap_alloc)
                  80032260    00000040     omp_config_pe66.oe66 (.text:xdc_runtime_IHeap_free)
                  800322a0    00000040     ti.targets.rts6000.ae66 : Memory.oe66 (.text:xdc_runtime_Memory_free__F)
                  800322e0    00000040     omp_config_pe66.oe66 (.text:xdc_runtime_Memory_valloc__E)
                  80032320    00000040     ti.targets.rts6000.ae66 : Registry.oe66 (.text:xdc_runtime_Registry_findById__F)
                  80032360    00000040     omp_config_pe66.oe66 (.text:xdc_runtime_Startup_exec__I)
                  800323a0    00000040     ti.targets.rts6000.ae66 : System.oe66 (.text:xdc_runtime_System_abort__F)
                  800323e0    00000040     omp_config_pe66.oe66 (.text:xdc_runtime_System_aprintf__E)
                  80032420    00000040     omp_config_pe66.oe66 (.text:xdc_runtime_System_printf__E)
                  80032460    00000040     ti.targets.rts6000.ae66 : Text.oe66 (.text:xdc_runtime_Text_ropeText__F)
                  800324a0    00000040     omp_config_pe66.oe66 (.text:xdc_runtime_Text_visitRope__I)
                  800324e0    00000040     omp_config_pe66.oe66 (.text:xdc_runtime_knl_GateThread_Handle__label__S)
                  80032520    00000040     ti.targets.rts6000.ae66 : GateThread.oe66 (.text:xdc_runtime_knl_GateThread_Instance_finalize__F)
                  80032560    00000040                             : GateThread.oe66 (.text:xdc_runtime_knl_GateThread_Instance_init__F)
                  800325a0    00000040     omp_config_pe66.oe66 (.text:xdc_runtime_knl_GateThread_Object__delete__S)
                  800325e0    00000040     omp_config_pe66.oe66 (.text:xdc_runtime_knl_GateThread_Proxy_Object__create__S)
                  80032620    00000020     ti.omp.ae66 : task.oe66 (.text:CSL_XMC_invalidatePrefetchBuffer)
                  80032640    00000020     ti.omp.config.sysbios.ae66 : bar.oe66 (.text:CSL_XMC_invalidatePrefetchBuffer)
                  80032660    00000020     ti.omp.navigatorOsal.ae66 : Navigatorosal.oe66 (.text:CSL_XMC_invalidatePrefetchBuffer)
                  80032680    00000020     ti.omp.ae66 : loop.oe66 (.text:GOMP_loop_end)
                  800326a0    00000020                 : loop.oe66 (.text:GOMP_loop_static_next)
                  800326c0    00000020     ipc.ae66 : Ipc.obj (.text:GateMP_getDefaultRemote)
                  800326e0    00000020              : Ipc.obj (.text:MultiProc_getBaseIdOfCluster)
                  80032700    00000020              : Ipc.obj (.text:MultiProc_getNumProcsInCluster)
                  80032720    00000020              : Ipc.obj (.text:MultiProc_self)
                  80032740    00000020     ti.omp.navigatorOsal.ae66 : Navigatorosal.oe66 (.text:Osal_cppiBeginMemAccess)
                  80032760    00000020                               : Navigatorosal.oe66 (.text:Osal_cppiCsExit)
                  80032780    00000020                               : Navigatorosal.oe66 (.text:Osal_cppiEndMemAccess)
                  800327a0    00000020                               : Navigatorosal.oe66 (.text:Osal_qmssCsExit)
                  800327c0    00000020     ti.drv.qmss.ae66 : qmss_drv.oe66 (.text:Qmss_getQueueNumber)
                  800327e0    00000020                      : qmss_drv.oe66 (.text:Qmss_start)
                  80032800    00000020     ti.omp.navigator.ae66 : Navigator.oe66 (.text:Queue_empty)
                  80032820    00000020     rts6600_elf_mt.lib : _data_synch.obj (.text:__TI_data_synch_INV)
                  80032840    00000020                        : errno.obj (.text:__c6xabi_errno_addr)
                  80032860    00000020                        : negll.obj (.text:__c6xabi_negll)
                  80032880    00000020                        : dtor_list.obj (.text:__cxa_atexit)
                  800328a0    00000020                        : dtor_list.obj (.text:__cxa_ia64_exit)
                  800328c0    00000020     ti.targets.rts6000.ae66 : xdc_noinit.oe66 (.text:__xdc__init)
                  800328e0    00000020     rts6600_elf_mt.lib : _lock.obj (.text:_nop)
                  80032900    00000020                        : printf.obj (.text:_outc)
                  80032920    00000020                        : vfprintf.obj (.text:_outc)
                  80032940    00000020                        : printf.obj (.text:_outs)
                  80032960    00000020                        : vfprintf.obj (.text:_outs)
                  80032980    00000020                        : _lock.obj (.text:_register_lock)
                  800329a0    00000020                        : _lock.obj (.text:_register_unlock)
                  800329c0    00000020     ti.omp.config.sysbios.ae66 : preinit.oe66 (.text:_system_pre_init)
                  800329e0    00000020     sysbios.ae66 : c62_TaskSupport_asm.obj (.text:_ti_sysbios_family_c62_TaskSupport_glue)
                  80032a00    00000020                  : c64p_Hwi_asm_switch.obj (.text:_ti_sysbios_family_xxx_Hwi_switchToTaskStack)
                  80032a20    00000020     rts6600_elf_mt.lib : exit.obj (.text:abort)
                  80032a40    00000020                        : dtor_list.obj (.text:atexit)
                  80032a60    00000020                        : copy_decompress_none.obj (.text:decompress:none:__TI_decompress_none)
                  80032a80    00000020                        : copy_decompress_rle.obj (.text:decompress:rle24:__TI_decompress_rle24)
                  80032aa0    00000020                        : _mutex.obj (.text:delete_mutexes)
                  80032ac0    00000020                        : getenv.obj (.text:getenv)
                  80032ae0    00000020     ti.omp.ae66 : env.oe66 (.text:getenv)
                  80032b00    00000020                 : task.oe66 (.text:gomp_barrier_last_thread)
                  80032b20    00000020                 : work.oe66 (.text:gomp_barrier_last_thread)
                  80032b40    00000020                 : team.oe66 (.text:gomp_barrier_wait_last)
                  80032b60    00000020     ti.omp.config.sysbios.ae66 : proc.oe66 (.text:gomp_dynamic_max_threads)
                  80032b80    00000020     ti.omp.ae66 : task.oe66 (.text:gomp_finish_task)
                  80032ba0    00000020                 : team.oe66 (.text:gomp_finish_task)
                  80032bc0    00000020     ti.omp.config.sysbios.ae66 : affinity.oe66 (.text:gomp_init_affinity)
                  80032be0    00000020                                : proc.oe66 (.text:gomp_init_num_threads)
                  80032c00    00000020                                : affinity.oe66 (.text:gomp_init_thread_affinity)
                  80032c20    00000020     ti.omp.ae66 : loop.oe66 (.text:gomp_loop_static_next)
                  80032c40    00000020                 : team.oe66 (.text:gomp_mutex_destroy)
                  80032c60    00000020                 : work.oe66 (.text:gomp_mutex_destroy)
                  80032c80    00000020     ti.omp.config.sysbios.ae66 : bar.oe66 (.text:gomp_mutex_destroy)
                  80032ca0    00000020     ti.omp.ae66 : critical.oe66 (.text:gomp_mutex_init)
                  80032cc0    00000020                 : env.oe66 (.text:gomp_mutex_init)
                  80032ce0    00000020                 : team.oe66 (.text:gomp_mutex_init)
                  80032d00    00000020                 : work.oe66 (.text:gomp_mutex_init)
                  80032d20    00000020     ti.omp.config.sysbios.ae66 : bar.oe66 (.text:gomp_mutex_init)
                  80032d40    00000020     ti.omp.ae66 : parallel.oe66 (.text:gomp_mutex_lock)
                  80032d60    00000020                 : task.oe66 (.text:gomp_mutex_lock)
                  80032d80    00000020                 : team.oe66 (.text:gomp_mutex_lock)
                  80032da0    00000020                 : work.oe66 (.text:gomp_mutex_lock)
                  80032dc0    00000020     ti.omp.config.sysbios.ae66 : bar.oe66 (.text:gomp_mutex_lock)
                  80032de0    00000020     ti.omp.ae66 : loop.oe66 (.text:gomp_mutex_unlock)
                  80032e00    00000020                 : parallel.oe66 (.text:gomp_mutex_unlock)
                  80032e20    00000020                 : task.oe66 (.text:gomp_mutex_unlock)
                  80032e40    00000020                 : team.oe66 (.text:gomp_mutex_unlock)
                  80032e60    00000020                 : work.oe66 (.text:gomp_mutex_unlock)
                  80032e80    00000020     ti.omp.config.sysbios.ae66 : bar.oe66 (.text:gomp_mutex_unlock)
                  80032ea0    00000020     ti.omp.ae66 : work.oe66 (.text:gomp_ptrlock_destroy)
                  80032ec0    00000020                 : task.oe66 (.text:gomp_sem_destroy)
                  80032ee0    00000020                 : team.oe66 (.text:gomp_sem_destroy)
                  80032f00    00000020                 : work.oe66 (.text:gomp_sem_destroy)
                  80032f20    00000020     ti.omp.config.sysbios.ae66 : bar.oe66 (.text:gomp_sem_destroy)
                  80032f40    00000020     ti.omp.ae66 : task.oe66 (.text:gomp_team_barrier_clear_task_pending)
                  80032f60    00000020                 : task.oe66 (.text:gomp_team_barrier_done)
                  80032f80    00000020                 : task.oe66 (.text:gomp_team_barrier_set_waiting_for_tasks)
                  80032fa0    00000020     ti.omp.config.sysbios.ae66 : bar.oe66 (.text:gomp_team_barrier_wait)
                  80032fc0    00000020     ti.omp.ae66 : env.oe66 (.text:gomp_thread)
                  80032fe0    00000020                 : iter.oe66 (.text:gomp_thread)
                  80033000    00000020                 : loop.oe66 (.text:gomp_thread)
                  80033020    00000020                 : parallel.oe66 (.text:gomp_thread)
                  80033040    00000020                 : task.oe66 (.text:gomp_thread)
                  80033060    00000020                 : team.oe66 (.text:gomp_thread)
                  80033080    00000020                 : work.oe66 (.text:gomp_thread)
                  800330a0    00000020     ti.omp.config.sysbios.ae66 : bar.oe66 (.text:gomp_thread)
                  800330c0    00000020     ti.omp.ae66 : team.oe66 (.text:gomp_thread_attr_destroy)
                  800330e0    00000020                 : team.oe66 (.text:gomp_thread_attr_getstacksize)
                  80033100    00000020                 : env.oe66 (.text:gomp_thread_attr_init)
                  80033120    00000020                 : team.oe66 (.text:gomp_thread_attr_init)
                  80033140    00000020                 : env.oe66 (.text:gomp_thread_attr_setdetachstate)
                  80033160    00000020                 : env.oe66 (.text:gomp_thread_attr_setstacksize)
                  80033180    00000020                 : team.oe66 (.text:gomp_thread_attr_setstacksize)
                  800331a0    00000020     ti.omp.utils.ae66 : OpenMP.oe66 (.text:gomp_thread_attr_setstacksize)
                  800331c0    00000020     ti.omp.ae66 : team.oe66 (.text:gomp_thread_exit)
                  800331e0    00000020     ti.omp.config.sysbios.ae66 : thread.oe66 (.text:gomp_thread_getspecific)
                  80033200    00000020                                : thread.oe66 (.text:gomp_thread_key_create)
                  80033220    00000020                                : thread.oe66 (.text:gomp_thread_key_delete)
                  80033240    00000020                                : thread.oe66 (.text:gomp_thread_setspecific)
                  80033260    00000020     rts6600_elf_mt.lib : isspace.obj (.text:isspace)
                  80033280    00000020                        : _mutex.obj (.text:mutex_destroy)
                  800332a0    00000020     sysbios.ae66 : BIOS.obj (.text:nullFunc$0)
                  800332c0    00000020     ti.omp.ae66 : parallel.oe66 (.text:omp_get_thread_num)
                  800332e0    00000020     rts6600_elf_mt.lib : _pthread.obj (.text:pthread_equal)
                  80033300    00000020     ti.omp.utils.ae66 : HeapOMP.oe66 (.text:ti_omp_utils_HeapOMP_getStats__E)
                  80033320    00000020     omp_config_pe66.oe66 (.text:ti_omp_utils_HeapOMP_isBlocking__E)
                  80033340    00000020     ti.omp.utils.ae66 : HeapOMP.oe66 (.text:ti_omp_utils_HeapOMP_isBlocking__F)
                  80033360    00000020     omp_config_pe66.oe66 (.text:ti_omp_utils_OpenMP_exitThread__E)
                  80033380    00000020     omp_config_pe66.oe66 (.text:ti_omp_utils_OpenMP_mainTaskExit__E)
                  800333a0    00000020     omp_config_pe66.oe66 (.text:ti_omp_utils_OpenMP_useSharedHeap__E)
                  800333c0    00000020     ti.omp.utils.ae66 : OpenMP.oe66 (.text:ti_omp_utils_OpenMP_useSharedHeap__F)
                  800333e0    00000020     omp_config_pe66.oe66 (.text:ti_omp_utils_SemaphoreMP_start__E)
                  80033400    00000020     ti.omp.utils.ae66 : ThreadLocalStorage.oe66 (.text:ti_omp_utils_ThreadLocalStorage_registerFxn__F)
                  80033420    00000020                       : ThreadLocal.oe66 (.text:ti_omp_utils_ThreadLocal_registerFxn__F)
                  80033440    00000020     omp_config_pe66.oe66 (.text:ti_sdo_ipc_GateMP_RemoteCustom1Proxy_Object__delete__S)
                  80033460    00000020     omp_config_pe66.oe66 (.text:ti_sdo_ipc_GateMP_RemoteCustom1Proxy_Params__init__S)
                  80033480    00000020     omp_config_pe66.oe66 (.text:ti_sdo_ipc_GateMP_RemoteCustom1Proxy_Proxy__abstract__S)
                  800334a0    00000020     omp_config_pe66.oe66 (.text:ti_sdo_ipc_GateMP_RemoteCustom1Proxy_Proxy__delegate__S)
                  800334c0    00000020     omp_config_pe66.oe66 (.text:ti_sdo_ipc_GateMP_RemoteCustom1Proxy_getReservedMask__E)
                  800334e0    00000020     omp_config_pe66.oe66 (.text:ti_sdo_ipc_GateMP_RemoteCustom1Proxy_sharedMemReq__E)
                  80033500    00000020     omp_config_pe66.oe66 (.text:ti_sdo_ipc_GateMP_RemoteCustom2Proxy_Object__delete__S)
                  80033520    00000020     omp_config_pe66.oe66 (.text:ti_sdo_ipc_GateMP_RemoteCustom2Proxy_Params__init__S)
                  80033540    00000020     omp_config_pe66.oe66 (.text:ti_sdo_ipc_GateMP_RemoteCustom2Proxy_Proxy__abstract__S)
                  80033560    00000020     omp_config_pe66.oe66 (.text:ti_sdo_ipc_GateMP_RemoteCustom2Proxy_Proxy__delegate__S)
                  80033580    00000020     omp_config_pe66.oe66 (.text:ti_sdo_ipc_GateMP_RemoteCustom2Proxy_getReservedMask__E)
                  800335a0    00000020     omp_config_pe66.oe66 (.text:ti_sdo_ipc_GateMP_RemoteCustom2Proxy_sharedMemReq__E)
                  800335c0    00000020     omp_config_pe66.oe66 (.text:ti_sdo_ipc_GateMP_RemoteSystemProxy_Object__delete__S)
                  800335e0    00000020     omp_config_pe66.oe66 (.text:ti_sdo_ipc_GateMP_RemoteSystemProxy_Params__init__S)
                  80033600    00000020     omp_config_pe66.oe66 (.text:ti_sdo_ipc_GateMP_RemoteSystemProxy_Proxy__abstract__S)
                  80033620    00000020     omp_config_pe66.oe66 (.text:ti_sdo_ipc_GateMP_RemoteSystemProxy_Proxy__delegate__S)
                  80033640    00000020     omp_config_pe66.oe66 (.text:ti_sdo_ipc_GateMP_RemoteSystemProxy_getReservedMask__E)
                  80033660    00000020     omp_config_pe66.oe66 (.text:ti_sdo_ipc_GateMP_RemoteSystemProxy_sharedMemReq__E)
                  80033680    00000020     omp_config_pe66.oe66 (.text:ti_sdo_ipc_GateMP_attach__E)
                  800336a0    00000020     omp_config_pe66.oe66 (.text:ti_sdo_ipc_GateMP_getRegion0ReservedSize__E)
                  800336c0    00000020     omp_config_pe66.oe66 (.text:ti_sdo_ipc_GateMP_getSharedAddr__E)
                  800336e0    00000020     ipc.ae66 : Ipc.obj (.text:ti_sdo_ipc_GateMP_getSharedAddr__F)
                  80033700    00000020     omp_config_pe66.oe66 (.text:ti_sdo_ipc_GateMP_start__E)
                  80033720    00000020     omp_config_pe66.oe66 (.text:ti_sdo_ipc_MessageQ_Module_startup__E)
                  80033740    00000020     omp_config_pe66.oe66 (.text:ti_sdo_ipc_MessageQ_SetupTransportProxy_attach__E)
                  80033760    00000020     omp_config_pe66.oe66 (.text:ti_sdo_ipc_MessageQ_SetupTransportProxy_isRegistered__E)
                  80033780    00000020     omp_config_pe66.oe66 (.text:ti_sdo_ipc_MessageQ_SetupTransportProxy_sharedMemReq__E)
                  800337a0    00000020     omp_config_pe66.oe66 (.text:ti_sdo_ipc_MessageQ_unregisterTransport__E)
                  800337c0    00000020     omp_config_pe66.oe66 (.text:ti_sdo_ipc_Notify_Module_GateProxy_enter__E)
                  800337e0    00000020     omp_config_pe66.oe66 (.text:ti_sdo_ipc_Notify_Module_GateProxy_leave__E)
                  80033800    00000020     omp_config_pe66.oe66 (.text:ti_sdo_ipc_Notify_Module_startup__E)
                  80033820    00000020     omp_config_pe66.oe66 (.text:ti_sdo_ipc_Notify_SetupProxy_attach__E)
                  80033840    00000020     omp_config_pe66.oe66 (.text:ti_sdo_ipc_Notify_SetupProxy_numIntLines__E)
                  80033860    00000020     omp_config_pe66.oe66 (.text:ti_sdo_ipc_Notify_SetupProxy_sharedMemReq__E)
                  80033880    00000020     omp_config_pe66.oe66 (.text:ti_sdo_ipc_Notify_exec__E)
                  800338a0    00000020     omp_config_pe66.oe66 (.text:ti_sdo_ipc_SharedRegion_attach__E)
                  800338c0    00000020     omp_config_pe66.oe66 (.text:ti_sdo_ipc_SharedRegion_clearReservedMemory__E)
                  800338e0    00000020     omp_config_pe66.oe66 (.text:ti_sdo_ipc_SharedRegion_reserveMemory__E)
                  80033900    00000020     omp_config_pe66.oe66 (.text:ti_sdo_ipc_SharedRegion_start__E)
                  80033920    00000020     omp_config_pe66.oe66 (.text:ti_sdo_ipc_family_c647x_Interrupt_Module_startup__E)
                  80033940    00000020     ipc.ae66 : Ipc.obj (.text:ti_sdo_ipc_family_c647x_Interrupt_intDisable__E)
                  80033960    00000020              : Ipc.obj (.text:ti_sdo_ipc_family_c647x_Interrupt_intEnable__E)
                  80033980    00000020              : Ipc.obj (.text:ti_sdo_ipc_family_c647x_NotifySetup_numIntLines__E)
                  800339a0    00000020     omp_config_pe66.oe66 (.text:ti_sdo_ipc_gates_GateHWSem_Module_startup__E)
                  800339c0    00000020     ipc.ae66 : Ipc.obj (.text:ti_sdo_ipc_gates_GateHWSem_getReservedMask__E)
                  800339e0    00000020     omp_config_pe66.oe66 (.text:ti_sdo_ipc_gates_GateHWSem_query__E)
                  80033a00    00000020     ipc.ae66 : Ipc.obj (.text:ti_sdo_ipc_gates_GateHWSem_query__F)
                  80033a20    00000020              : Ipc.obj (.text:ti_sdo_ipc_gates_GateHWSem_sharedMemReq__E)
                  80033a40    00000020              : Ipc.obj (.text:ti_sdo_ipc_gates_GateMPSupportNull_Instance_init__F)
                  80033a60    00000020              : Ipc.obj (.text:ti_sdo_ipc_gates_GateMPSupportNull_getReservedMask__E)
                  80033a80    00000020     omp_config_pe66.oe66 (.text:ti_sdo_ipc_gates_GateMPSupportNull_query__E)
                  80033aa0    00000020     ipc.ae66 : Ipc.obj (.text:ti_sdo_ipc_gates_GateMPSupportNull_query__F)
                  80033ac0    00000020              : Ipc.obj (.text:ti_sdo_ipc_gates_GateMPSupportNull_sharedMemReq__E)
                  80033ae0    00000020              : Ipc.obj (.text:ti_sdo_ipc_gates_GatePeterson_getReservedMask__E)
                  80033b00    00000020     omp_config_pe66.oe66 (.text:ti_sdo_ipc_gates_GatePeterson_query__E)
                  80033b20    00000020     ipc.ae66 : Ipc.obj (.text:ti_sdo_ipc_gates_GatePeterson_query__F)
                  80033b40    00000020     omp_config_pe66.oe66 (.text:ti_sdo_ipc_heaps_HeapMemMP_isBlocking__E)
                  80033b60    00000020     ipc.ae66 : Ipc.obj (.text:ti_sdo_ipc_heaps_HeapMemMP_isBlocking__F)
                  80033b80    00000020     omp_config_pe66.oe66 (.text:ti_sdo_ipc_notifyDrivers_NotifyDriverShm_InterruptProxy_intClear__E)
                  80033ba0    00000020     omp_config_pe66.oe66 (.text:ti_sdo_ipc_notifyDrivers_NotifyDriverShm_InterruptProxy_intDisable__E)
                  80033bc0    00000020     omp_config_pe66.oe66 (.text:ti_sdo_ipc_notifyDrivers_NotifyDriverShm_InterruptProxy_intEnable__E)
                  80033be0    00000020     omp_config_pe66.oe66 (.text:ti_sdo_ipc_notifyDrivers_NotifyDriverShm_InterruptProxy_intSend__E)
                  80033c00    00000020     omp_config_pe66.oe66 (.text:ti_sdo_ipc_notifyDrivers_NotifyDriverShm_InterruptProxy_intUnregister__E)
                  80033c20    00000020     omp_config_pe66.oe66 (.text:ti_sdo_ipc_notifyDrivers_NotifyDriverShm_sharedMemReq__E)
                  80033c40    00000020     ipc.ae66 : Ipc.obj (.text:ti_sdo_ipc_nsremote_NameServerRemoteNotify_cbFxn__I)
                  80033c60    00000020              : Ipc.obj (.text:ti_sdo_ipc_transports_TransportShmSetup_isRegistered__E)
                  80033c80    00000020              : Ipc.obj (.text:ti_sdo_ipc_transports_TransportShm_control__E)
                  80033ca0    00000020              : Ipc.obj (.text:ti_sdo_ipc_transports_TransportShm_getStatus__E)
                  80033cc0    00000020              : Ipc.obj (.text:ti_sdo_ipc_transports_TransportShm_notifyFxn__I)
                  80033ce0    00000020     omp_config_pe66.oe66 (.text:ti_sdo_ipc_transports_TransportShm_openByAddr__E)
                  80033d00    00000020     omp_config_pe66.oe66 (.text:ti_sdo_ipc_transports_TransportShm_setErrFxn__E)
                  80033d20    00000020     ipc.ae66 : Ipc.obj (.text:ti_sdo_ipc_transports_TransportShm_setErrFxn__F)
                  80033d40    00000020     omp_config_pe66.oe66 (.text:ti_sdo_ipc_transports_TransportShm_sharedMemReq__E)
                  80033d60    00000020     ipc.ae66 : Ipc.obj (.text:ti_sdo_utils_List_Instance_init__F)
                  80033d80    00000020     omp_config_pe66.oe66 (.text:ti_sdo_utils_MultiProc_getClusterId__E)
                  80033da0    00000020     ipc.ae66 : Ipc.obj (.text:ti_sdo_utils_MultiProc_getClusterId__F)
                  80033dc0    00000020     omp_config_pe66.oe66 (.text:ti_sdo_utils_NameServer_Module__startupDone__S)
                  80033de0    00000020     omp_config_pe66.oe66 (.text:ti_sdo_utils_NameServer_Module_startup__E)
                  80033e00    00000020     omp_config_pe66.oe66 (.text:ti_sdo_utils_NameServer_SetupProxy_attach__E)
                  80033e20    00000020     omp_config_pe66.oe66 (.text:ti_sdo_utils_NameServer_SetupProxy_sharedMemReq__E)
                  80033e40    00000020     omp_config_pe66.oe66 (.text:ti_sysbios_BIOS_RtsGateProxy_enter__E)
                  80033e60    00000020     omp_config_pe66.oe66 (.text:ti_sysbios_BIOS_RtsGateProxy_leave__E)
                  80033e80    00000020     sysbios.ae66 : BIOS.obj (.text:ti_sysbios_BIOS_getThreadType__E)
                  80033ea0    00000020                  : BIOS.obj (.text:ti_sysbios_BIOS_setThreadType__E)
                  80033ec0    00000020     omp_config_pe66.oe66 (.text:ti_sysbios_family_c62_TaskSupport_Module__startupDone__S)
                  80033ee0    00000020     sysbios.ae66 : BIOS.obj (.text:ti_sysbios_family_c62_TaskSupport_checkStack__E)
                  80033f00    00000020                  : BIOS.obj (.text:ti_sysbios_family_c62_TaskSupport_getStackAlignment__E)
                  80033f20    00000020     omp_config_pe66.oe66 (.text:ti_sysbios_family_c64p_Exception_Module_startup__E)
                  80033f40    00000020     omp_config_pe66.oe66 (.text:ti_sysbios_family_c64p_Hwi_Module__startupDone__S)
                  80033f60    00000020     omp_config_pe66.oe66 (.text:ti_sysbios_family_c64p_Hwi_Module_startup__E)
                  80033f80    00000020     sysbios.ae66 : BIOS.obj (.text:ti_sysbios_family_c64p_Hwi_clearInterrupt__E)
                  80033fa0    00000020                  : BIOS.obj (.text:ti_sysbios_family_c64p_Hwi_getHandle__E)
                  80033fc0    00000020                  : BIOS.obj (.text:ti_sysbios_family_c64p_Hwi_startup__E)
                  80033fe0    00000020                  : BIOS.obj (.text:ti_sysbios_family_c64p_Hwi_switchFromBootStack__E)
                  80034000    00000020                  : BIOS.obj (.text:ti_sysbios_family_c64p_Hwi_unPluggedInterrupt__I)
                  80034020    00000020     omp_config_pe66.oe66 (.text:ti_sysbios_family_c64p_TimestampProvider_Module_startup__E)
                  80034040    00000020     sysbios.ae66 : BIOS.obj (.text:ti_sysbios_family_c64p_TimestampProvider_Module_startup__F)
                  80034060    00000020                  : BIOS.obj (.text:ti_sysbios_family_c64p_TimestampProvider_get64__E)
                  80034080    00000020                  : BIOS.obj (.text:ti_sysbios_family_c64p_tci6488_TimerSupport_enable__E)
                  800340a0    00000020     omp_config_pe66.oe66 (.text:ti_sysbios_family_c66_Cache_Module_startup__E)
                  800340c0    00000020     sysbios.ae66 : BIOS.obj (.text:ti_sysbios_family_c66_Cache_inv__E)
                  800340e0    00000020                  : BIOS.obj (.text:ti_sysbios_family_c66_Cache_wbInv__E)
                  80034100    00000020                  : BIOS.obj (.text:ti_sysbios_gates_GateAll_Instance_init__F)
                  80034120    00000020     omp_config_pe66.oe66 (.text:ti_sysbios_gates_GateAll_query__E)
                  80034140    00000020     sysbios.ae66 : BIOS.obj (.text:ti_sysbios_gates_GateAll_query__F)
                  80034160    00000020                  : BIOS.obj (.text:ti_sysbios_gates_GateHwi_Instance_init__F)
                  80034180    00000020                  : BIOS.obj (.text:ti_sysbios_gates_GateHwi_enter__E)
                  800341a0    00000020                  : BIOS.obj (.text:ti_sysbios_gates_GateHwi_leave__E)
                  800341c0    00000020     omp_config_pe66.oe66 (.text:ti_sysbios_gates_GateHwi_query__E)
                  800341e0    00000020     sysbios.ae66 : BIOS.obj (.text:ti_sysbios_gates_GateHwi_query__F)
                  80034200    00000020     omp_config_pe66.oe66 (.text:ti_sysbios_gates_GateMutexPri_query__E)
                  80034220    00000020     sysbios.ae66 : BIOS.obj (.text:ti_sysbios_gates_GateMutexPri_query__F)
                  80034240    00000020     omp_config_pe66.oe66 (.text:ti_sysbios_gates_GateMutex_query__E)
                  80034260    00000020     sysbios.ae66 : BIOS.obj (.text:ti_sysbios_gates_GateMutex_query__F)
                  80034280    00000020                  : BIOS.obj (.text:ti_sysbios_gates_GateSwi_Instance_init__F)
                  800342a0    00000020     omp_config_pe66.oe66 (.text:ti_sysbios_gates_GateSwi_query__E)
                  800342c0    00000020     sysbios.ae66 : BIOS.obj (.text:ti_sysbios_gates_GateSwi_query__F)
                  800342e0    00000020     omp_config_pe66.oe66 (.text:ti_sysbios_hal_Hwi_HwiProxy_Module__startupDone__S)
                  80034300    00000020     omp_config_pe66.oe66 (.text:ti_sysbios_hal_Hwi_HwiProxy_clearInterrupt__E)
                  80034320    00000020     omp_config_pe66.oe66 (.text:ti_sysbios_hal_Hwi_HwiProxy_disableInterrupt__E)
                  80034340    00000020     omp_config_pe66.oe66 (.text:ti_sysbios_hal_Hwi_HwiProxy_enableInterrupt__E)
                  80034360    00000020     omp_config_pe66.oe66 (.text:ti_sysbios_hal_Hwi_HwiProxy_startup__E)
                  80034380    00000020     omp_config_pe66.oe66 (.text:ti_sysbios_hal_Hwi_HwiProxy_switchFromBootStack__E)
                  800343a0    00000020     omp_config_pe66.oe66 (.text:ti_sysbios_hal_Hwi_Module_startup__E)
                  800343c0    00000020     sysbios.ae66 : BIOS.obj (.text:ti_sysbios_hal_Hwi_Module_startup__F)
                  800343e0    00000020     omp_config_pe66.oe66 (.text:ti_sysbios_hal_Timer_Module__startupDone__S)
                  80034400    00000020     omp_config_pe66.oe66 (.text:ti_sysbios_hal_Timer_Module_startup__E)
                  80034420    00000020     sysbios.ae66 : BIOS.obj (.text:ti_sysbios_hal_Timer_Module_startup__F)
                  80034440    00000020     omp_config_pe66.oe66 (.text:ti_sysbios_hal_Timer_TimerProxy_Module__startupDone__S)
                  80034460    00000020     omp_config_pe66.oe66 (.text:ti_sysbios_hal_Timer_TimerProxy_getExpiredCounts__E)
                  80034480    00000020     omp_config_pe66.oe66 (.text:ti_sysbios_hal_Timer_TimerProxy_getPeriod__E)
                  800344a0    00000020     omp_config_pe66.oe66 (.text:ti_sysbios_hal_Timer_TimerProxy_setNextTick__E)
                  800344c0    00000020     omp_config_pe66.oe66 (.text:ti_sysbios_hal_Timer_TimerProxy_startup__E)
                  800344e0    00000020     omp_config_pe66.oe66 (.text:ti_sysbios_heaps_HeapBuf_Module_startup__E)
                  80034500    00000020     omp_config_pe66.oe66 (.text:ti_sysbios_heaps_HeapMem_Module_GateProxy_enter__E)
                  80034520    00000020     omp_config_pe66.oe66 (.text:ti_sysbios_heaps_HeapMem_Module_GateProxy_leave__E)
                  80034540    00000020     omp_config_pe66.oe66 (.text:ti_sysbios_heaps_HeapMem_Module_GateProxy_query__E)
                  80034560    00000020     sysbios.ae66 : BIOS.obj (.text:ti_sysbios_heaps_HeapMem_isBlocking__E)
                  80034580    00000020     omp_config_pe66.oe66 (.text:ti_sysbios_knl_Clock_Module_State_clockQ)
                  800345a0    00000020     omp_config_pe66.oe66 (.text:ti_sysbios_knl_Clock_Module_startup__E)
                  800345c0    00000020     sysbios.ae66 : BIOS.obj (.text:ti_sysbios_knl_Idle_loop__E)
                  800345e0    00000020                  : BIOS.obj (.text:ti_sysbios_knl_Queue_Instance_init__F)
                  80034600    00000020                  : BIOS.obj (.text:ti_sysbios_knl_Queue_empty__E)
                  80034620    00000020     omp_config_pe66.oe66 (.text:ti_sysbios_knl_Swi_Module_startup__E)
                  80034640    00000020     sysbios.ae66 : BIOS.obj (.text:ti_sysbios_knl_Swi_disable__E)
                  80034660    00000020     omp_config_pe66.oe66 (.text:ti_sysbios_knl_Task_Module_startup__E)
                  80034680    00000020     ti.omp.ae66 : env.oe66 (.text:ti_sysbios_knl_Task_Params_init)
                  800346a0    00000020                 : team.oe66 (.text:ti_sysbios_knl_Task_Params_init)
                  800346c0    00000020     ti.omp.utils.ae66 : OpenMP.oe66 (.text:ti_sysbios_knl_Task_Params_init)
                  800346e0    00000020     omp_config_pe66.oe66 (.text:ti_sysbios_knl_Task_SupportProxy_Module__startupDone__S)
                  80034700    00000020     omp_config_pe66.oe66 (.text:ti_sysbios_knl_Task_SupportProxy_checkStack__E)
                  80034720    00000020     omp_config_pe66.oe66 (.text:ti_sysbios_knl_Task_SupportProxy_getStackAlignment__E)
                  80034740    00000020     omp_config_pe66.oe66 (.text:ti_sysbios_knl_Task_SupportProxy_start__E)
                  80034760    00000020     omp_config_pe66.oe66 (.text:ti_sysbios_knl_Task_SupportProxy_swap__E)
                  80034780    00000020     sysbios.ae66 : BIOS.obj (.text:ti_sysbios_knl_Task_disable__E)
                  800347a0    00000020                  : BIOS.obj (.text:ti_sysbios_knl_Task_getHookContext__E)
                  800347c0    00000020                  : BIOS.obj (.text:ti_sysbios_knl_Task_getPri__E)
                  800347e0    00000020                  : BIOS.obj (.text:ti_sysbios_knl_Task_self__E)
                  80034800    00000020                  : BIOS.obj (.text:ti_sysbios_knl_Task_setHookContext__E)
                  80034820    00000020                  : BIOS.obj (.text:ti_sysbios_knl_Task_startup__E)
                  80034840    00000020     omp_config_pe66.oe66 (.text:ti_sysbios_timers_timer64_Timer_Module__startupDone__S)
                  80034860    00000020     omp_config_pe66.oe66 (.text:ti_sysbios_timers_timer64_Timer_Module_startup__E)
                  80034880    00000020     omp_config_pe66.oe66 (.text:ti_sysbios_timers_timer64_Timer_TimerSupportProxy_enable__E)
                  800348a0    00000020     sysbios.ae66 : BIOS.obj (.text:ti_sysbios_timers_timer64_Timer_setNextTick__E)
                  800348c0    00000020     omp_config_pe66.oe66 (.text:ti_sysbios_xdcruntime_GateThreadSupport_enter__E)
                  800348e0    00000020     omp_config_pe66.oe66 (.text:ti_sysbios_xdcruntime_GateThreadSupport_leave__E)
                  80034900    00000020     omp_config_pe66.oe66 (.text:ti_sysbios_xdcruntime_GateThreadSupport_query__E)
                  80034920    00000020     rts6600_elf_mt.lib : tls.obj (.text:tls:block_size:__TI_tls_block_size)
                  80034940    00000020                        : tolower.obj (.text:tolower)
                  80034960    00000020     omp_config_pe66.oe66 (.text:xdc_iargToPtr)
                  80034980    00000020     omp_config_pe66.oe66 (.text:xdc_runtime_Error_check__E)
                  800349a0    00000020     omp_config_pe66.oe66 (.text:xdc_runtime_Error_init__E)
                  800349c0    00000020     omp_config_pe66.oe66 (.text:xdc_runtime_Error_print__E)
                  800349e0    00000020     omp_config_pe66.oe66 (.text:xdc_runtime_GateNull_enter__E)
                  80034a00    00000020     ti.targets.rts6000.ae66 : GateNull.oe66 (.text:xdc_runtime_GateNull_enter__F)
                  80034a20    00000020     omp_config_pe66.oe66 (.text:xdc_runtime_GateNull_leave__E)
                  80034a40    00000020     ti.targets.rts6000.ae66 : GateNull.oe66 (.text:xdc_runtime_GateNull_leave__F)
                  80034a60    00000020     omp_config_pe66.oe66 (.text:xdc_runtime_GateNull_query__E)
                  80034a80    00000020     ti.targets.rts6000.ae66 : GateNull.oe66 (.text:xdc_runtime_GateNull_query__F)
                  80034aa0    00000020     omp_config_pe66.oe66 (.text:xdc_runtime_Gate_enterSystem__E)
                  80034ac0    00000020     ti.targets.rts6000.ae66 : Gate.oe66 (.text:xdc_runtime_Gate_enterSystem__F)
                  80034ae0    00000020     omp_config_pe66.oe66 (.text:xdc_runtime_Gate_leaveSystem__E)
                  80034b00    00000020     omp_config_pe66.oe66 (.text:xdc_runtime_Memory_HeapProxy_alloc__E)
                  80034b20    00000020     omp_config_pe66.oe66 (.text:xdc_runtime_Memory_HeapProxy_free__E)
                  80034b40    00000020     omp_config_pe66.oe66 (.text:xdc_runtime_Memory_alloc__E)
                  80034b60    00000020     omp_config_pe66.oe66 (.text:xdc_runtime_Memory_calloc__E)
                  80034b80    00000020     omp_config_pe66.oe66 (.text:xdc_runtime_Memory_free__E)
                  80034ba0    00000020     omp_config_pe66.oe66 (.text:xdc_runtime_Memory_getMaxDefaultTypeAlign__E)
                  80034bc0    00000020     ti.targets.rts6000.ae66 : Memory.oe66 (.text:xdc_runtime_Memory_getMaxDefaultTypeAlign__F)
                  80034be0    00000020     omp_config_pe66.oe66 (.text:xdc_runtime_Registry_findById__E)
                  80034c00    00000020     omp_config_pe66.oe66 (.text:xdc_runtime_Startup_Module__startupDone__S)
                  80034c20    00000020     omp_config_pe66.oe66 (.text:xdc_runtime_Startup_exec__E)
                  80034c40    00000020     omp_config_pe66.oe66 (.text:xdc_runtime_Startup_reset__I)
                  80034c60    00000020     omp_config_pe66.oe66 (.text:xdc_runtime_Startup_rtsDone__E)
                  80034c80    00000020     ti.targets.rts6000.ae66 : Startup.oe66 (.text:xdc_runtime_Startup_rtsDone__F)
                  80034ca0    00000020     omp_config_pe66.oe66 (.text:xdc_runtime_SysMin_Module_startup__E)
                  80034cc0    00000020     omp_config_pe66.oe66 (.text:xdc_runtime_SysMin_abort__E)
                  80034ce0    00000020     omp_config_pe66.oe66 (.text:xdc_runtime_SysMin_exit__E)
                  80034d00    00000020     omp_config_pe66.oe66 (.text:xdc_runtime_SysMin_putch__E)
                  80034d20    00000020     omp_config_pe66.oe66 (.text:xdc_runtime_SysMin_ready__E)
                  80034d40    00000020     ti.targets.rts6000.ae66 : SysMin.oe66 (.text:xdc_runtime_SysMin_ready__F)
                  80034d60    00000020     omp_config_pe66.oe66 (.text:xdc_runtime_System_Module_GateProxy_enter__E)
                  80034d80    00000020     omp_config_pe66.oe66 (.text:xdc_runtime_System_Module_GateProxy_leave__E)
                  80034da0    00000020     omp_config_pe66.oe66 (.text:xdc_runtime_System_Module_startup__E)
                  80034dc0    00000020     ti.targets.rts6000.ae66 : System.oe66 (.text:xdc_runtime_System_Module_startup__F)
                  80034de0    00000020     omp_config_pe66.oe66 (.text:xdc_runtime_System_SupportProxy_abort__E)
                  80034e00    00000020     omp_config_pe66.oe66 (.text:xdc_runtime_System_SupportProxy_exit__E)
                  80034e20    00000020     omp_config_pe66.oe66 (.text:xdc_runtime_System_SupportProxy_putch__E)
                  80034e40    00000020     omp_config_pe66.oe66 (.text:xdc_runtime_System_SupportProxy_ready__E)
                  80034e60    00000020     omp_config_pe66.oe66 (.text:xdc_runtime_System_abort__E)
                  80034e80    00000020     omp_config_pe66.oe66 (.text:xdc_runtime_System_atexit__E)
                  80034ea0    00000020     omp_config_pe66.oe66 (.text:xdc_runtime_System_exit__E)
                  80034ec0    00000020     ti.targets.rts6000.ae66 : System.oe66 (.text:xdc_runtime_System_exit__F)
                  80034ee0    00000020                             : System.oe66 (.text:xdc_runtime_System_lastFxn__I)
                  80034f00    00000020     omp_config_pe66.oe66 (.text:xdc_runtime_System_vsprintf__E)
                  80034f20    00000020     ti.targets.rts6000.ae66 : System.oe66 (.text:xdc_runtime_System_vsprintf__F)
                  80034f40    00000020     omp_config_pe66.oe66 (.text:xdc_runtime_Text_cordText__E)
                  80034f60    00000020     omp_config_pe66.oe66 (.text:xdc_runtime_Text_putSite__E)
                  80034f80    00000020     omp_config_pe66.oe66 (.text:xdc_runtime_Text_ropeText__E)
                  80034fa0    00000020     omp_config_pe66.oe66 (.text:xdc_runtime_Timestamp_SupportProxy_get64__E)
                  80034fc0    00000020     omp_config_pe66.oe66 (.text:xdc_runtime_Timestamp_get64__E)
                  80034fe0    00000020     omp_config_pe66.oe66 (.text:xdc_runtime_knl_GateThread_Module__startupDone__S)
                  80035000    00000020     omp_config_pe66.oe66 (.text:xdc_runtime_knl_GateThread_Proxy_Object__delete__S)
                  80035020    00000020     omp_config_pe66.oe66 (.text:xdc_runtime_knl_GateThread_Proxy_enter__E)
                  80035040    00000020     omp_config_pe66.oe66 (.text:xdc_runtime_knl_GateThread_Proxy_leave__E)
                  80035060    00000020     omp_config_pe66.oe66 (.text:xdc_runtime_knl_GateThread_Proxy_query__E)
                  80035080    00000020     omp_config_pe66.oe66 (.text:xdc_runtime_knl_GateThread_enter__E)
                  800350a0    00000020     ti.targets.rts6000.ae66 : GateThread.oe66 (.text:xdc_runtime_knl_GateThread_enter__F)
                  800350c0    00000020     omp_config_pe66.oe66 (.text:xdc_runtime_knl_GateThread_leave__E)
                  800350e0    00000020     ti.targets.rts6000.ae66 : GateThread.oe66 (.text:xdc_runtime_knl_GateThread_leave__F)
                  80035100    00000020     omp_config_pe66.oe66 (.text:xdc_runtime_knl_GateThread_query__E)

.neardata 
*          0    80035120    00000001     RUN ADDR = a0394758
                  80035120    00000001     ti.drv.qmss.ae66 : qmss_drv.oe66 (.neardata)

.fardata   0    80035128    00000148     RUN ADDR = a0394760
                  80035128    00000120     ti.omp.navigator.C6678.ae66 : qmss_device.oe66 (.fardata:omp_qmssGblCfgParams)
                  80035248    00000028     omp_rs.obj (.fardata:tenPowers)

.const     0    80035270    00004e4e     
                  80035270    00002886     omp_config_pe66.oe66 (.const:xdc_runtime_Text_charTab__A)
                  80037af6    00000002     --HOLE-- [fill = 0]
                  80037af8    00000500     sysbios.ae66 : BIOS.obj (.const:.string)
                  80037ff8    00000400     omp_config_pe66.oe66 (.const:ti_sysbios_family_c66_Cache_marvalues__C)
                  800383f8    00000250     ti.omp.ae66 : env.oe66 (.const:.string)
                  80038648    00000204     ti.omp.navigator.ae66 : Navigator.oe66 (.const:.string)
                  8003884c    00000004     ti.targets.rts6000.ae66 : Assert.oe66 (.const:.string)
                  80038850    000001a0     omp_config_pe66.oe66 (.const:xdc_runtime_Text_nodeTab__A)
                  800389f0    00000101     rts6600_elf_mt.lib : ctype.obj (.const:.string:_ctypes_)
                  80038af1    00000003     --HOLE-- [fill = 0]
                  80038af4    000000e8     omp_config_pe66.oe66 (.const:.string)
                  80038bdc    000000c8     ti.omp.config.sysbios.ae66 : bar.oe66 (.const:.string)
                  80038ca4    00000088     omp_rs.obj (.const:.string)
                  80038d2c    0000006c     ti.omp.ae66 : team.oe66 (.const:.string)
                  80038d98    00000061     rts6600_elf_mt.lib : strerror.obj (.const:.string)
                  80038df9    00000003     --HOLE-- [fill = 0]
                  80038dfc    00000058     ti.targets.rts6000.ae66 : Error.oe66 (.const:.string)
                  80038e54    00000050     ti.omp.utils.ae66 : OpenMP.oe66 (.const:.string)
                  80038ea4    00000004     omp_config_pe66.oe66 (.const:ti_omp_utils_OpenMP_baseIdOfCluster__C)
                  80038ea8    00000048     omp_config_pe66.oe66 (.const:ti_sysbios_knl_Task_hooks__A)
                  80038ef0    00000048     omp_config_pe66.oe66 (.const:xdc_runtime_Startup_sfxnTab__A)
                  80038f38    00000040     ti.targets.rts6000.ae66 : Text.oe66 (.const:.string)
                  80038f78    0000003c     omp_config_pe66.oe66 (.const:ti_sysbios_knl_Task_Object__PARAMS__C)
                  80038fb4    00000038     omp_config_pe66.oe66 (.const:ti_sdo_ipc_notifyDrivers_NotifyDriverShm_Module__FXNS__C)
                  80038fec    00000034     omp_config_pe66.oe66 (.const:ti_sdo_ipc_GateMP_Object__PARAMS__C)
                  80039020    00000034     omp_config_pe66.oe66 (.const:ti_sdo_ipc_notifyDrivers_NotifyDriverShm_Object__PARAMS__C)
                  80039054    00000030     omp_config_pe66.oe66 (.const:ti_sdo_ipc_heaps_HeapMemMP_Object__PARAMS__C)
                  80039084    00000030     omp_config_pe66.oe66 (.const:ti_sysbios_family_c64p_Hwi_Object__PARAMS__C)
                  800390b4    0000002c     ti.targets.rts6000.ae66 : Startup.oe66 (.const:.string)
                  800390e0    0000002c     omp_config_pe66.oe66 (.const:ti_sdo_ipc_ListMP_Object__PARAMS__C)
                  8003910c    0000002c     omp_config_pe66.oe66 (.const:ti_sdo_ipc_gates_GateHWSem_Module__FXNS__C)
                  80039138    0000002c     omp_config_pe66.oe66 (.const:ti_sdo_ipc_gates_GateMPSupportNull_Module__FXNS__C)
                  80039164    0000002c     omp_config_pe66.oe66 (.const:ti_sdo_ipc_gates_GatePeterson_Module__FXNS__C)
                  80039190    00000028     ti.omp.utils.C6678.ae66 : OpenMPDnldCore.oe66 (.const:.string)
                  800391b8    00000028     omp_config_pe66.oe66 (.const:ti_omp_utils_HeapOMP_Module__FXNS__C)
                  800391e0    00000028     omp_config_pe66.oe66 (.const:ti_sdo_ipc_heaps_HeapMemMP_Module__FXNS__C)
                  80039208    00000028     omp_config_pe66.oe66 (.const:ti_sdo_ipc_nsremote_NameServerRemoteNotify_Module__FXNS__C)
                  80039230    00000028     omp_config_pe66.oe66 (.const:ti_sdo_ipc_transports_TransportShm_Module__FXNS__C)
                  80039258    00000028     omp_config_pe66.oe66 (.const:ti_sdo_ipc_transports_TransportShm_Object__PARAMS__C)
                  80039280    00000028     omp_config_pe66.oe66 (.const:ti_sysbios_heaps_HeapMem_Module__FXNS__C)
                  800392a8    00000028     omp_config_pe66.oe66 (.const:ti_sysbios_knl_Swi_Object__PARAMS__C)
                  800392d0    00000024     ti.omp.ae66 : alloc.oe66 (.const:.string)
                  800392f4    00000024     omp_config_pe66.oe66 (.const:ti_sdo_ipc_gates_GateHWSem_Object__PARAMS__C)
                  80039318    00000024     omp_config_pe66.oe66 (.const:ti_sdo_ipc_gates_GateMPSupportNull_Object__PARAMS__C)
                  8003933c    00000024     omp_config_pe66.oe66 (.const:ti_sdo_ipc_gates_GatePeterson_Object__PARAMS__C)
                  80039360    00000024     omp_config_pe66.oe66 (.const:ti_sysbios_gates_GateAll_Module__FXNS__C)
                  80039384    00000024     omp_config_pe66.oe66 (.const:ti_sysbios_gates_GateHwi_Module__FXNS__C)
                  800393a8    00000024     omp_config_pe66.oe66 (.const:ti_sysbios_gates_GateMutexPri_Module__FXNS__C)
                  800393cc    00000024     omp_config_pe66.oe66 (.const:ti_sysbios_gates_GateMutex_Module__FXNS__C)
                  800393f0    00000024     omp_config_pe66.oe66 (.const:ti_sysbios_gates_GateSwi_Module__FXNS__C)
                  80039414    00000024     omp_config_pe66.oe66 (.const:ti_sysbios_heaps_HeapMem_Object__PARAMS__C)
                  80039438    00000024     omp_config_pe66.oe66 (.const:ti_sysbios_knl_Clock_Object__PARAMS__C)
                  8003945c    00000024     omp_config_pe66.oe66 (.const:ti_sysbios_knl_Semaphore_Object__PARAMS__C)
                  80039480    00000024     omp_config_pe66.oe66 (.const:xdc_runtime_GateNull_Module__FXNS__C)
                  800394a4    00000004     omp_config_pe66.oe66 (.const:ti_omp_utils_OpenMP_cppiHwSem__C)
                  800394a8    00000024     omp_config_pe66.oe66 (.const:xdc_runtime_Startup_sfxnRts__A)
                  800394cc    00000024     omp_config_pe66.oe66 (.const:xdc_runtime_knl_GateThread_Module__FXNS__C)
                  800394f0    00000023     rts6600_elf_mt.lib : _printfi.obj (.const:.string)
                  80039513    00000001     --HOLE-- [fill = 0]
                  80039514    00000020     ti.targets.rts6000.ae66 : Core-mem.oe66 (.const:.string)
                  80039534    00000020     omp_config_pe66.oe66 (.const:ti_omp_utils_HeapOMP_Object__DESC__C)
                  80039554    00000020     omp_config_pe66.oe66 (.const:ti_omp_utils_HeapOMP_Object__PARAMS__C)
                  80039574    00000020     omp_config_pe66.oe66 (.const:ti_sdo_ipc_GateMP_Object__DESC__C)
                  80039594    00000020     omp_config_pe66.oe66 (.const:ti_sdo_ipc_ListMP_Object__DESC__C)
                  800395b4    00000020     omp_config_pe66.oe66 (.const:ti_sdo_ipc_Notify_Object__DESC__C)
                  800395d4    00000020     omp_config_pe66.oe66 (.const:ti_sdo_ipc_gates_GateHWSem_Object__DESC__C)
                  800395f4    00000020     omp_config_pe66.oe66 (.const:ti_sdo_ipc_gates_GateMPSupportNull_Object__DESC__C)
                  80039614    00000020     omp_config_pe66.oe66 (.const:ti_sdo_ipc_gates_GatePeterson_Object__DESC__C)
                  80039634    00000020     omp_config_pe66.oe66 (.const:ti_sdo_ipc_heaps_HeapMemMP_Object__DESC__C)
                  80039654    00000020     omp_config_pe66.oe66 (.const:ti_sdo_ipc_notifyDrivers_NotifyDriverShm_Object__DESC__C)
                  80039674    00000020     omp_config_pe66.oe66 (.const:ti_sdo_ipc_nsremote_NameServerRemoteNotify_Object__DESC__C)
                  80039694    00000020     omp_config_pe66.oe66 (.const:ti_sdo_ipc_nsremote_NameServerRemoteNotify_Object__PARAMS__C)
                  800396b4    00000020     omp_config_pe66.oe66 (.const:ti_sdo_ipc_transports_TransportShm_Object__DESC__C)
                  800396d4    00000020     omp_config_pe66.oe66 (.const:ti_sdo_utils_List_Object__DESC__C)
                  800396f4    00000020     omp_config_pe66.oe66 (.const:ti_sysbios_family_c64p_Hwi_Object__DESC__C)
                  80039714    00000020     omp_config_pe66.oe66 (.const:ti_sysbios_gates_GateAll_Object__DESC__C)
                  80039734    00000020     omp_config_pe66.oe66 (.const:ti_sysbios_gates_GateHwi_Object__DESC__C)
                  80039754    00000020     omp_config_pe66.oe66 (.const:ti_sysbios_gates_GateMutexPri_Object__DESC__C)
                  80039774    00000020     omp_config_pe66.oe66 (.const:ti_sysbios_gates_GateMutex_Object__DESC__C)
                  80039794    00000020     omp_config_pe66.oe66 (.const:ti_sysbios_gates_GateSwi_Object__DESC__C)
                  800397b4    00000020     omp_config_pe66.oe66 (.const:ti_sysbios_heaps_HeapMem_Object__DESC__C)
                  800397d4    00000020     omp_config_pe66.oe66 (.const:ti_sysbios_knl_Clock_Object__DESC__C)
                  800397f4    00000020     omp_config_pe66.oe66 (.const:ti_sysbios_knl_Queue_Object__DESC__C)
                  80039814    00000020     omp_config_pe66.oe66 (.const:ti_sysbios_knl_Semaphore_Object__DESC__C)
                  80039834    00000020     omp_config_pe66.oe66 (.const:ti_sysbios_knl_Swi_Object__DESC__C)
                  80039854    00000020     omp_config_pe66.oe66 (.const:ti_sysbios_knl_Task_Object__DESC__C)
                  80039874    00000020     omp_config_pe66.oe66 (.const:ti_sysbios_xdcruntime_GateThreadSupport_Object__DESC__C)
                  80039894    00000020     omp_config_pe66.oe66 (.const:xdc_runtime_GateNull_Object__DESC__C)
                  800398b4    00000020     omp_config_pe66.oe66 (.const:xdc_runtime_knl_GateThread_Object__DESC__C)
                  800398d4    00000018     omp_config_pe66.oe66 (.const:ti_sdo_ipc_Notify_Object__PARAMS__C)
                  800398ec    00000018     omp_config_pe66.oe66 (.const:ti_sdo_utils_List_Object__PARAMS__C)
                  80039904    00000018     omp_config_pe66.oe66 (.const:ti_sysbios_gates_GateAll_Object__PARAMS__C)
                  8003991c    00000018     omp_config_pe66.oe66 (.const:ti_sysbios_gates_GateHwi_Object__PARAMS__C)
                  80039934    00000018     omp_config_pe66.oe66 (.const:ti_sysbios_gates_GateMutexPri_Object__PARAMS__C)
                  8003994c    00000018     omp_config_pe66.oe66 (.const:ti_sysbios_gates_GateMutex_Object__PARAMS__C)
                  80039964    00000018     omp_config_pe66.oe66 (.const:ti_sysbios_gates_GateSwi_Object__PARAMS__C)
                  8003997c    00000018     omp_config_pe66.oe66 (.const:ti_sysbios_knl_Queue_Object__PARAMS__C)
                  80039994    00000018     omp_config_pe66.oe66 (.const:ti_sysbios_xdcruntime_GateThreadSupport_Object__PARAMS__C)
                  800399ac    00000018     omp_config_pe66.oe66 (.const:xdc_runtime_GateNull_Object__PARAMS__C)
                  800399c4    00000018     omp_config_pe66.oe66 (.const:xdc_runtime_knl_GateThread_Object__PARAMS__C)
                  800399dc    00000004     omp_config_pe66.oe66 (.const:ti_omp_utils_OpenMP_masterFxn__C)
                  800399e0    00000011     ti.targets.rts6000.ae66 : System.oe66 (.const:digtohex)
                  800399f1    00000003     --HOLE-- [fill = 0]
                  800399f4    00000004     omp_config_pe66.oe66 (.const:ti_omp_utils_OpenMP_mpaxIndex__C)
                  800399f8    00000010     omp_config_pe66.oe66 (.const:ti_sdo_ipc_family_c647x_MultiProcSetup_procMap__A)
                  80039a08    0000000c     ti.omp.ae66 : error.oe66 (.const:.string)
                  80039a14    00000004     omp_config_pe66.oe66 (.const:ti_omp_utils_OpenMP_mpaxRaddr__C)
                  80039a18    0000000c     omp_config_pe66.oe66 (.const:ti_sdo_ipc_Ipc_userFxns__A)
                  80039a24    0000000c     omp_config_pe66.oe66 (.const:ti_sysbios_family_c66_Cache_initSize__C)
                  80039a30    0000000c     omp_config_pe66.oe66 (.const:xdc_runtime_Startup_firstFxns__A)
                  80039a3c    00000008     ti.targets.rts6000.ae66 : System.oe66 (.const:.string)
                  80039a44    00000004     omp_config_pe66.oe66 (.const:ti_omp_utils_OpenMP_noncachedMsmcAlias__C)
                  80039a48    00000008     omp_config_pe66.oe66 (.const:ti_sysbios_knl_Idle_coreList__A)
                  80039a50    00000008     omp_config_pe66.oe66 (.const:ti_sysbios_knl_Idle_coreList__C)
                  80039a58    00000008     omp_config_pe66.oe66 (.const:ti_sysbios_knl_Idle_funcList__A)
                  80039a60    00000008     omp_config_pe66.oe66 (.const:ti_sysbios_knl_Idle_funcList__C)
                  80039a68    00000008     omp_config_pe66.oe66 (.const:ti_sysbios_knl_Task_hooks__C)
                  80039a70    00000008     omp_config_pe66.oe66 (.const:xdc_runtime_Startup_firstFxns__C)
                  80039a78    00000008     omp_config_pe66.oe66 (.const:xdc_runtime_Startup_lastFxns__A)
                  80039a80    00000008     omp_config_pe66.oe66 (.const:xdc_runtime_Startup_lastFxns__C)
                  80039a88    00000004     omp_config_pe66.oe66 (.const:ti_omp_utils_OpenMP_ompHwSem__C)
                  80039a8c    00000004     omp_config_pe66.oe66 (.const:ti_omp_utils_OpenMP_qmssDestQueueNum__C)
                  80039a90    00000004     omp_config_pe66.oe66 (.const:ti_omp_utils_OpenMP_qmssHwSem__C)
                  80039a94    00000004     omp_config_pe66.oe66 (.const:ti_omp_utils_OpenMP_qmssMemRegion__C)
                  80039a98    00000004     omp_config_pe66.oe66 (.const:ti_omp_utils_OpenMP_qmssStartIndex__C)
                  80039a9c    00000004     omp_config_pe66.oe66 (.const:ti_omp_utils_OpenMP_stackRegionId__C)
                  80039aa0    00000004     omp_config_pe66.oe66 (.const:ti_omp_utils_OpenMP_stackSize__C)
                  80039aa4    00000004     omp_config_pe66.oe66 (.const:ti_omp_utils_OpenMP_threadPriority__C)
                  80039aa8    00000004     omp_config_pe66.oe66 (.const:ti_omp_utils_SemaphoreMP_Module__diagsEnabled__C)
                  80039aac    00000004     omp_config_pe66.oe66 (.const:ti_omp_utils_SemaphoreMP_Module__diagsIncluded__C)
                  80039ab0    00000004     omp_config_pe66.oe66 (.const:ti_omp_utils_SemaphoreMP_Module__diagsMask__C)
                  80039ab4    00000004     omp_config_pe66.oe66 (.const:ti_omp_utils_SemaphoreMP_notifyEventId__C)
                  80039ab8    00000004     omp_config_pe66.oe66 (.const:ti_omp_utils_ThreadLocal_A_invalidContext__C)
                  80039abc    00000004     omp_config_pe66.oe66 (.const:ti_omp_utils_ThreadLocal_A_invalidKey__C)
                  80039ac0    00000004     omp_config_pe66.oe66 (.const:ti_omp_utils_ThreadLocal_Module__diagsEnabled__C)
                  80039ac4    00000004     omp_config_pe66.oe66 (.const:ti_omp_utils_ThreadLocal_Module__diagsIncluded__C)
                  80039ac8    00000004     omp_config_pe66.oe66 (.const:ti_omp_utils_ThreadLocal_Module__diagsMask__C)
                  80039acc    00000004     omp_config_pe66.oe66 (.const:ti_sdo_ipc_GateMP_A_invalidClose__C)
                  80039ad0    00000004     omp_config_pe66.oe66 (.const:ti_sdo_ipc_GateMP_A_invalidDelete__C)
                  80039ad4    00000004     omp_config_pe66.oe66 (.const:ti_sdo_ipc_GateMP_E_gateUnavailable__C)
                  80039ad8    00000004     omp_config_pe66.oe66 (.const:ti_sdo_ipc_GateMP_E_localGate__C)
                  80039adc    00000004     omp_config_pe66.oe66 (.const:ti_sdo_ipc_GateMP_LM_create__C)
                  80039ae0    00000004     omp_config_pe66.oe66 (.const:ti_sdo_ipc_GateMP_LM_delete__C)
                  80039ae4    00000004     omp_config_pe66.oe66 (.const:ti_sdo_ipc_GateMP_LM_enter__C)
                  80039ae8    00000004     omp_config_pe66.oe66 (.const:ti_sdo_ipc_GateMP_LM_leave__C)
                  80039aec    00000004     omp_config_pe66.oe66 (.const:ti_sdo_ipc_GateMP_LM_open__C)
                  80039af0    00000004     omp_config_pe66.oe66 (.const:ti_sdo_ipc_GateMP_Module__diagsEnabled__C)
                  80039af4    00000004     omp_config_pe66.oe66 (.const:ti_sdo_ipc_GateMP_Module__diagsIncluded__C)
                  80039af8    00000004     omp_config_pe66.oe66 (.const:ti_sdo_ipc_GateMP_Module__diagsMask__C)
                  80039afc    00000004     omp_config_pe66.oe66 (.const:ti_sdo_ipc_GateMP_Module__loggerFxn2__C)
                  80039b00    00000004     omp_config_pe66.oe66 (.const:ti_sdo_ipc_GateMP_Module__loggerFxn4__C)
                  80039b04    00000004     omp_config_pe66.oe66 (.const:ti_sdo_ipc_GateMP_Module__loggerObj__C)
                  80039b08    00000004     omp_config_pe66.oe66 (.const:ti_sdo_ipc_Ipc_A_addrNotCacheAligned__C)
                  80039b0c    00000004     omp_config_pe66.oe66 (.const:ti_sdo_ipc_Ipc_A_addrNotInSharedRegion__C)
                  80039b10    00000004     omp_config_pe66.oe66 (.const:ti_sdo_ipc_Ipc_A_internal__C)
                  80039b14    00000004     omp_config_pe66.oe66 (.const:ti_sdo_ipc_Ipc_A_invArgument__C)
                  80039b18    00000004     omp_config_pe66.oe66 (.const:ti_sdo_ipc_Ipc_A_invParam__C)
                  80039b1c    00000004     omp_config_pe66.oe66 (.const:ti_sdo_ipc_Ipc_A_nullArgument__C)
                  80039b20    00000004     omp_config_pe66.oe66 (.const:ti_sdo_ipc_Ipc_A_nullPointer__C)
                  80039b24    00000004     omp_config_pe66.oe66 (.const:ti_sdo_ipc_Ipc_E_internal__C)
                  80039b28    00000004     omp_config_pe66.oe66 (.const:ti_sdo_ipc_Ipc_E_nameFailed__C)
                  80039b2c    00000004     omp_config_pe66.oe66 (.const:ti_sdo_ipc_Ipc_E_versionMismatch__C)
                  80039b30    00000004     omp_config_pe66.oe66 (.const:ti_sdo_ipc_Ipc_Module__diagsEnabled__C)
                  80039b34    00000004     omp_config_pe66.oe66 (.const:ti_sdo_ipc_Ipc_Module__diagsIncluded__C)
                  80039b38    00000004     omp_config_pe66.oe66 (.const:ti_sdo_ipc_Ipc_Module__diagsMask__C)
                  80039b3c    00000004     omp_config_pe66.oe66 (.const:ti_sdo_ipc_Ipc_numUserFxns__C)
                  80039b40    00000004     omp_config_pe66.oe66 (.const:ti_sdo_ipc_Ipc_procSync__C)
                  80039b44    00000004     omp_config_pe66.oe66 (.const:ti_sdo_ipc_Ipc_userFxns__C)
                  80039b48    00000004     omp_config_pe66.oe66 (.const:ti_sdo_ipc_ListMP_Module__diagsEnabled__C)
                  80039b4c    00000004     omp_config_pe66.oe66 (.const:ti_sdo_ipc_ListMP_Module__diagsIncluded__C)
                  80039b50    00000004     omp_config_pe66.oe66 (.const:ti_sdo_ipc_ListMP_Module__diagsMask__C)
                  80039b54    00000004     omp_config_pe66.oe66 (.const:ti_sdo_ipc_MessageQ_A_invalidMsg__C)
                  80039b58    00000004     omp_config_pe66.oe66 (.const:ti_sdo_ipc_MessageQ_A_invalidObj__C)
                  80039b5c    00000004     omp_config_pe66.oe66 (.const:ti_sdo_ipc_MessageQ_A_invalidQueueId__C)
                  80039b60    00000004     omp_config_pe66.oe66 (.const:ti_sdo_ipc_MessageQ_A_procIdInvalid__C)
                  80039b64    00000004     omp_config_pe66.oe66 (.const:ti_sdo_ipc_MessageQ_A_unregisteredTransport__C)
                  80039b68    00000004     omp_config_pe66.oe66 (.const:ti_sdo_ipc_MessageQ_Instance_State_highList__O)
                  80039b6c    00000004     omp_config_pe66.oe66 (.const:ti_sdo_ipc_MessageQ_Instance_State_normalList__O)
                  80039b70    00000004     omp_config_pe66.oe66 (.const:ti_sdo_ipc_MessageQ_LM_putLocal__C)
                  80039b74    00000004     omp_config_pe66.oe66 (.const:ti_sdo_ipc_MessageQ_Module__diagsEnabled__C)
                  80039b78    00000004     omp_config_pe66.oe66 (.const:ti_sdo_ipc_MessageQ_Module__diagsIncluded__C)
                  80039b7c    00000004     omp_config_pe66.oe66 (.const:ti_sdo_ipc_MessageQ_Module__diagsMask__C)
                  80039b80    00000004     omp_config_pe66.oe66 (.const:ti_sdo_ipc_MessageQ_Module__loggerFxn4__C)
                  80039b84    00000004     omp_config_pe66.oe66 (.const:ti_sdo_ipc_MessageQ_Module__loggerObj__C)
                  80039b88    00000004     omp_config_pe66.oe66 (.const:ti_sdo_ipc_MessageQ_Object__count__C)
                  80039b8c    00000004     omp_config_pe66.oe66 (.const:ti_sdo_ipc_MessageQ_Object__table__C)
                  80039b90    00000004     omp_config_pe66.oe66 (.const:ti_sdo_ipc_Notify_A_alreadyRegistered__C)
                  80039b94    00000004     omp_config_pe66.oe66 (.const:ti_sdo_ipc_Notify_A_internal__C)
                  80039b98    00000004     omp_config_pe66.oe66 (.const:ti_sdo_ipc_Notify_A_invArgument__C)
                  80039b9c    00000004     omp_config_pe66.oe66 (.const:ti_sdo_ipc_Notify_A_notRegistered__C)
                  80039ba0    00000004     omp_config_pe66.oe66 (.const:ti_sdo_ipc_Notify_A_reservedEvent__C)
                  80039ba4    00000004     omp_config_pe66.oe66 (.const:ti_sdo_ipc_Notify_Module__diagsEnabled__C)
                  80039ba8    00000004     omp_config_pe66.oe66 (.const:ti_sdo_ipc_Notify_Module__diagsIncluded__C)
                  80039bac    00000004     omp_config_pe66.oe66 (.const:ti_sdo_ipc_Notify_Module__diagsMask__C)
                  80039bb0    00000004     omp_config_pe66.oe66 (.const:ti_sdo_ipc_Notify_Module__gateObj__C)
                  80039bb4    00000004     omp_config_pe66.oe66 (.const:ti_sdo_ipc_Notify_Object__heap__C)
                  80039bb8    00000004     omp_config_pe66.oe66 (.const:ti_sdo_ipc_Notify_numEvents__C)
                  80039bbc    00000004     omp_config_pe66.oe66 (.const:ti_sdo_ipc_Notify_sendEventPollCount__C)
                  80039bc0    00000004     omp_config_pe66.oe66 (.const:ti_sdo_ipc_SharedRegion_A_addrOutOfRange__C)
                  80039bc4    00000004     omp_config_pe66.oe66 (.const:ti_sdo_ipc_SharedRegion_A_alreadyExists__C)
                  80039bc8    00000004     omp_config_pe66.oe66 (.const:ti_sdo_ipc_SharedRegion_A_cacheLineSizeIsZero__C)
                  80039bcc    00000004     omp_config_pe66.oe66 (.const:ti_sdo_ipc_SharedRegion_A_idTooLarge__C)
                  80039bd0    00000004     omp_config_pe66.oe66 (.const:ti_sdo_ipc_SharedRegion_A_noHeap__C)
                  80039bd4    00000004     omp_config_pe66.oe66 (.const:ti_sdo_ipc_SharedRegion_A_overlap__C)
                  80039bd8    00000004     omp_config_pe66.oe66 (.const:ti_sdo_ipc_SharedRegion_A_region0Invalid__C)
                  80039bdc    00000004     omp_config_pe66.oe66 (.const:ti_sdo_ipc_SharedRegion_A_regionInvalid__C)
                  80039be0    00000004     omp_config_pe66.oe66 (.const:ti_sdo_ipc_SharedRegion_A_reserveTooMuch__C)
                  80039be4    00000004     omp_config_pe66.oe66 (.const:ti_sdo_ipc_SharedRegion_INVALIDSRPTR__C)
                  80039be8    00000004     omp_config_pe66.oe66 (.const:ti_sdo_ipc_SharedRegion_Module__diagsEnabled__C)
                  80039bec    00000004     omp_config_pe66.oe66 (.const:ti_sdo_ipc_SharedRegion_Module__diagsIncluded__C)
                  80039bf0    00000004     omp_config_pe66.oe66 (.const:ti_sdo_ipc_SharedRegion_Module__diagsMask__C)
                  80039bf4    00000004     omp_config_pe66.oe66 (.const:ti_sdo_ipc_SharedRegion_cacheLineSize__C)
                  80039bf8    00000004     omp_config_pe66.oe66 (.const:ti_sdo_ipc_SharedRegion_numOffsetBits__C)
                  80039bfc    00000004     omp_config_pe66.oe66 (.const:ti_sdo_ipc_SharedRegion_offsetMask__C)
                  80039c00    00000004     omp_config_pe66.oe66 (.const:ti_sdo_ipc_family_c647x_Interrupt_INTERDSPINT__C)
                  80039c04    00000004     omp_config_pe66.oe66 (.const:ti_sdo_ipc_family_c647x_Interrupt_IPCAR0__C)
                  80039c08    00000004     omp_config_pe66.oe66 (.const:ti_sdo_ipc_family_c647x_Interrupt_IPCGR0__C)
                  80039c0c    00000004     omp_config_pe66.oe66 (.const:ti_sdo_ipc_family_c647x_Interrupt_KICK0__C)
                  80039c10    00000004     omp_config_pe66.oe66 (.const:ti_sdo_ipc_family_c647x_Interrupt_KICK1__C)
                  80039c14    00000004     omp_config_pe66.oe66 (.const:ti_sdo_ipc_family_c647x_MultiProcSetup_procMap__C)
                  80039c18    00000004     omp_config_pe66.oe66 (.const:ti_sdo_ipc_family_c647x_NotifySetup_dspIntVectId__C)
                  80039c1c    00000004     omp_config_pe66.oe66 (.const:ti_sdo_ipc_gates_GateHWSem_A_invSemNum__C)
                  80039c20    00000004     omp_config_pe66.oe66 (.const:ti_sdo_ipc_gates_GateHWSem_Module__diagsEnabled__C)
                  80039c24    00000004     omp_config_pe66.oe66 (.const:ti_sdo_ipc_gates_GateHWSem_Module__diagsIncluded__C)
                  80039c28    00000004     omp_config_pe66.oe66 (.const:ti_sdo_ipc_gates_GateHWSem_Module__diagsMask__C)
                  80039c2c    00000004     omp_config_pe66.oe66 (.const:ti_sdo_ipc_gates_GateHWSem_baseAddr__C)
                  80039c30    00000004     omp_config_pe66.oe66 (.const:ti_sdo_ipc_gates_GateHWSem_numSems__C)
                  80039c34    00000004     omp_config_pe66.oe66 (.const:ti_sdo_ipc_gates_GateHWSem_reservedMaskArr__C)
                  80039c38    00000004     omp_config_pe66.oe66 (.const:ti_sdo_ipc_gates_GateHWSem_reservedMaskArr__A)
                  80039c3c    00000004     omp_config_pe66.oe66 (.const:ti_sdo_ipc_gates_GateMPSupportNull_A_invalidAction__C)
                  80039c40    00000004     omp_config_pe66.oe66 (.const:ti_sdo_ipc_gates_GateMPSupportNull_Module__diagsEnabled__C)
                  80039c44    00000004     omp_config_pe66.oe66 (.const:ti_sdo_ipc_gates_GateMPSupportNull_Module__diagsIncluded__C)
                  80039c48    00000004     omp_config_pe66.oe66 (.const:ti_sdo_ipc_gates_GateMPSupportNull_Module__diagsMask__C)
                  80039c4c    00000004     omp_config_pe66.oe66 (.const:ti_sdo_ipc_gates_GateMPSupportNull_action__C)
                  80039c50    00000004     omp_config_pe66.oe66 (.const:ti_sdo_ipc_gates_GatePeterson_E_gateRemotelyOpened__C)
                  80039c54    00000004     omp_config_pe66.oe66 (.const:ti_sdo_ipc_gates_GatePeterson_Module__diagsEnabled__C)
                  80039c58    00000004     omp_config_pe66.oe66 (.const:ti_sdo_ipc_gates_GatePeterson_Module__diagsIncluded__C)
                  80039c5c    00000004     omp_config_pe66.oe66 (.const:ti_sdo_ipc_gates_GatePeterson_Module__diagsMask__C)
                  80039c60    00000004     omp_config_pe66.oe66 (.const:ti_sdo_ipc_gates_GatePeterson_numInstances__C)
                  80039c64    00000004     omp_config_pe66.oe66 (.const:ti_sdo_ipc_heaps_HeapMemMP_A_align__C)
                  80039c68    00000004     omp_config_pe66.oe66 (.const:ti_sdo_ipc_heaps_HeapMemMP_A_heapSize__C)
                  80039c6c    00000004     omp_config_pe66.oe66 (.const:ti_sdo_ipc_heaps_HeapMemMP_A_invalidFree__C)
                  80039c70    00000004     omp_config_pe66.oe66 (.const:ti_sdo_ipc_heaps_HeapMemMP_A_zeroBlock__C)
                  80039c74    00000004     omp_config_pe66.oe66 (.const:ti_sdo_ipc_heaps_HeapMemMP_E_memory__C)
                  80039c78    00000004     omp_config_pe66.oe66 (.const:ti_sdo_ipc_heaps_HeapMemMP_Module__diagsEnabled__C)
                  80039c7c    00000004     omp_config_pe66.oe66 (.const:ti_sdo_ipc_heaps_HeapMemMP_Module__diagsIncluded__C)
                  80039c80    00000004     omp_config_pe66.oe66 (.const:ti_sdo_ipc_heaps_HeapMemMP_Module__diagsMask__C)
                  80039c84    00000004     omp_config_pe66.oe66 (.const:ti_sdo_ipc_interfaces_IGateMPSupport_Interface__BASE__C)
                  80039c88    00000004     omp_config_pe66.oe66 (.const:ti_sdo_ipc_interfaces_IMessageQTransport_Interface__BASE__C)
                  80039c8c    00000004     omp_config_pe66.oe66 (.const:ti_sdo_ipc_interfaces_INotifyDriver_Interface__BASE__C)
                  80039c90    00000004     omp_config_pe66.oe66 (.const:ti_sdo_ipc_notifyDrivers_NotifyDriverShm_Module__diagsEnabled__C)
                  80039c94    00000004     omp_config_pe66.oe66 (.const:ti_sdo_ipc_notifyDrivers_NotifyDriverShm_Module__diagsIncluded__C)
                  80039c98    00000004     omp_config_pe66.oe66 (.const:ti_sdo_ipc_notifyDrivers_NotifyDriverShm_Module__diagsMask__C)
                  80039c9c    00000004     omp_config_pe66.oe66 (.const:ti_sdo_ipc_notifyDrivers_NotifyDriverShm_Object__heap__C)
                  80039ca0    00000004     omp_config_pe66.oe66 (.const:ti_sdo_ipc_nsremote_NameServerRemoteNotify_A_invalidValueLen__C)
                  80039ca4    00000004     omp_config_pe66.oe66 (.const:ti_sdo_ipc_nsremote_NameServerRemoteNotify_Instance_State_semMultiBlock__O)
                  80039ca8    00000004     omp_config_pe66.oe66 (.const:ti_sdo_ipc_nsremote_NameServerRemoteNotify_Instance_State_semRemoteWait__O)
                  80039cac    00000004     omp_config_pe66.oe66 (.const:ti_sdo_ipc_nsremote_NameServerRemoteNotify_Instance_State_swiObj__O)
                  80039cb0    00000004     omp_config_pe66.oe66 (.const:ti_sdo_ipc_nsremote_NameServerRemoteNotify_Module__diagsEnabled__C)
                  80039cb4    00000004     omp_config_pe66.oe66 (.const:ti_sdo_ipc_nsremote_NameServerRemoteNotify_Module__diagsIncluded__C)
                  80039cb8    00000004     omp_config_pe66.oe66 (.const:ti_sdo_ipc_nsremote_NameServerRemoteNotify_Module__diagsMask__C)
                  80039cbc    00000004     omp_config_pe66.oe66 (.const:ti_sdo_ipc_nsremote_NameServerRemoteNotify_notifyEventId__C)
                  80039cc0    00000004     omp_config_pe66.oe66 (.const:ti_sdo_ipc_nsremote_NameServerRemoteNotify_timeout__C)
                  80039cc4    00000004     omp_config_pe66.oe66 (.const:ti_sdo_ipc_transports_TransportShmSetup_priority__C)
                  80039cc8    00000004     omp_config_pe66.oe66 (.const:ti_sdo_ipc_transports_TransportShm_Instance_State_swiObj__O)
                  80039ccc    00000004     omp_config_pe66.oe66 (.const:ti_sdo_ipc_transports_TransportShm_Module__diagsEnabled__C)
                  80039cd0    00000004     omp_config_pe66.oe66 (.const:ti_sdo_ipc_transports_TransportShm_Module__diagsIncluded__C)
                  80039cd4    00000004     omp_config_pe66.oe66 (.const:ti_sdo_ipc_transports_TransportShm_Module__diagsMask__C)
                  80039cd8    00000004     omp_config_pe66.oe66 (.const:ti_sdo_utils_INameServerRemote_Interface__BASE__C)
                  80039cdc    00000004     omp_config_pe66.oe66 (.const:ti_sdo_utils_List_Object__count__C)
                  80039ce0    00000004     omp_config_pe66.oe66 (.const:ti_sdo_utils_List_Object__table__C)
                  80039ce4    00000004     omp_config_pe66.oe66 (.const:ti_sdo_utils_MultiProc_A_invalidMultiProcId__C)
                  80039ce8    00000004     omp_config_pe66.oe66 (.const:ti_sdo_utils_MultiProc_Module__diagsEnabled__C)
                  80039cec    00000004     omp_config_pe66.oe66 (.const:ti_sdo_utils_MultiProc_Module__diagsIncluded__C)
                  80039cf0    00000004     omp_config_pe66.oe66 (.const:ti_sdo_utils_MultiProc_Module__diagsMask__C)
                  80039cf4    00000004     omp_config_pe66.oe66 (.const:ti_sdo_utils_NameServer_A_invArgument__C)
                  80039cf8    00000004     omp_config_pe66.oe66 (.const:ti_sdo_utils_NameServer_A_invalidLen__C)
                  80039cfc    00000004     omp_config_pe66.oe66 (.const:ti_sdo_utils_NameServer_E_entryExists__C)
                  80039d00    00000004     omp_config_pe66.oe66 (.const:ti_sdo_utils_NameServer_E_maxReached__C)
                  80039d04    00000004     omp_config_pe66.oe66 (.const:ti_sdo_utils_NameServer_Instance_State_freeList__O)
                  80039d08    00000004     omp_config_pe66.oe66 (.const:ti_sdo_utils_NameServer_Instance_State_nameList__O)
                  80039d0c    00000004     omp_config_pe66.oe66 (.const:ti_sdo_utils_NameServer_Module__diagsEnabled__C)
                  80039d10    00000004     omp_config_pe66.oe66 (.const:ti_sdo_utils_NameServer_Module__diagsIncluded__C)
                  80039d14    00000004     omp_config_pe66.oe66 (.const:ti_sdo_utils_NameServer_Module__diagsMask__C)
                  80039d18    00000004     omp_config_pe66.oe66 (.const:ti_sdo_utils_NameServer_Object__count__C)
                  80039d1c    00000004     omp_config_pe66.oe66 (.const:ti_sdo_utils_NameServer_Object__table__C)
                  80039d20    00000004     omp_config_pe66.oe66 (.const:ti_sysbios_BIOS_Module__diagsEnabled__C)
                  80039d24    00000004     omp_config_pe66.oe66 (.const:ti_sysbios_BIOS_Module__diagsIncluded__C)
                  80039d28    00000004     omp_config_pe66.oe66 (.const:ti_sysbios_BIOS_Module__diagsMask__C)
                  80039d2c    00000004     omp_config_pe66.oe66 (.const:ti_sysbios_BIOS_installedErrorHook__C)
                  80039d30    00000004     omp_config_pe66.oe66 (.const:ti_sysbios_family_c62_TaskSupport_stackAlignment__C)
                  80039d34    00000004     omp_config_pe66.oe66 (.const:ti_sysbios_family_c64p_Exception_E_exceptionMin__C)
                  80039d38    00000004     omp_config_pe66.oe66 (.const:ti_sysbios_family_c64p_Exception_exceptionHook__C)
                  80039d3c    00000004     omp_config_pe66.oe66 (.const:ti_sysbios_family_c64p_Exception_externalHook__C)
                  80039d40    00000004     omp_config_pe66.oe66 (.const:ti_sysbios_family_c64p_Exception_internalHook__C)
                  80039d44    00000004     omp_config_pe66.oe66 (.const:ti_sysbios_family_c64p_Exception_nmiHook__C)
                  80039d48    00000004     omp_config_pe66.oe66 (.const:ti_sysbios_family_c64p_Hwi_E_alreadyDefined__C)
                  80039d4c    00000004     omp_config_pe66.oe66 (.const:ti_sysbios_family_c64p_Hwi_E_handleNotFound__C)
                  80039d50    00000004     omp_config_pe66.oe66 (.const:ti_sysbios_family_c64p_Hwi_LD_end__C)
                  80039d54    00000004     omp_config_pe66.oe66 (.const:ti_sysbios_family_c64p_Hwi_LM_begin__C)
                  80039d58    00000004     omp_config_pe66.oe66 (.const:ti_sysbios_family_c64p_Hwi_Module__diagsEnabled__C)
                  80039d5c    00000004     omp_config_pe66.oe66 (.const:ti_sysbios_family_c64p_Hwi_Module__diagsIncluded__C)
                  80039d60    00000004     omp_config_pe66.oe66 (.const:ti_sysbios_family_c64p_Hwi_Module__diagsMask__C)
                  80039d64    00000004     omp_config_pe66.oe66 (.const:ti_sysbios_family_c64p_Hwi_Module__loggerFxn1__C)
                  80039d68    00000004     omp_config_pe66.oe66 (.const:ti_sysbios_family_c64p_Hwi_Module__loggerFxn8__C)
                  80039d6c    00000004     omp_config_pe66.oe66 (.const:ti_sysbios_family_c64p_Hwi_Module__loggerObj__C)
                  80039d70    00000004     omp_config_pe66.oe66 (.const:ti_sysbios_family_c66_Cache_atomicBlockSize__C)
                  80039d74    00000004     omp_config_pe66.oe66 (.const:ti_sysbios_gates_GateMutexPri_A_badContext__C)
                  80039d78    00000004     omp_config_pe66.oe66 (.const:ti_sysbios_gates_GateMutexPri_Instance_State_pendQ__O)
                  80039d7c    00000004     omp_config_pe66.oe66 (.const:ti_sysbios_gates_GateMutexPri_Module__diagsEnabled__C)
                  80039d80    00000004     omp_config_pe66.oe66 (.const:ti_sysbios_gates_GateMutexPri_Module__diagsIncluded__C)
                  80039d84    00000004     omp_config_pe66.oe66 (.const:ti_sysbios_gates_GateMutexPri_Module__diagsMask__C)
                  80039d88    00000004     omp_config_pe66.oe66 (.const:ti_sysbios_gates_GateMutex_A_badContext__C)
                  80039d8c    00000004     omp_config_pe66.oe66 (.const:ti_sysbios_gates_GateMutex_Instance_State_sem__O)
                  80039d90    00000004     omp_config_pe66.oe66 (.const:ti_sysbios_gates_GateMutex_Module__diagsEnabled__C)
                  80039d94    00000004     omp_config_pe66.oe66 (.const:ti_sysbios_gates_GateMutex_Module__diagsIncluded__C)
                  80039d98    00000004     omp_config_pe66.oe66 (.const:ti_sysbios_gates_GateMutex_Module__diagsMask__C)
                  80039d9c    00000004     omp_config_pe66.oe66 (.const:ti_sysbios_gates_GateSwi_A_badContext__C)
                  80039da0    00000004     omp_config_pe66.oe66 (.const:ti_sysbios_gates_GateSwi_Module__diagsEnabled__C)
                  80039da4    00000004     omp_config_pe66.oe66 (.const:ti_sysbios_gates_GateSwi_Module__diagsIncluded__C)
                  80039da8    00000004     omp_config_pe66.oe66 (.const:ti_sysbios_gates_GateSwi_Module__diagsMask__C)
                  80039dac    00000004     omp_config_pe66.oe66 (.const:ti_sysbios_hal_Hwi_E_stackOverflow__C)
                  80039db0    00000004     omp_config_pe66.oe66 (.const:ti_sysbios_heaps_HeapBuf_Instance_State_freeList__O)
                  80039db4    00000004     omp_config_pe66.oe66 (.const:ti_sysbios_heaps_HeapBuf_Object__count__C)
                  80039db8    00000004     omp_config_pe66.oe66 (.const:ti_sysbios_heaps_HeapBuf_Object__table__C)
                  80039dbc    00000004     omp_config_pe66.oe66 (.const:ti_sysbios_heaps_HeapBuf_numConstructedHeaps__C)
                  80039dc0    00000004     omp_config_pe66.oe66 (.const:ti_sysbios_heaps_HeapMem_A_align__C)
                  80039dc4    00000004     omp_config_pe66.oe66 (.const:ti_sysbios_heaps_HeapMem_A_heapSize__C)
                  80039dc8    00000004     omp_config_pe66.oe66 (.const:ti_sysbios_heaps_HeapMem_A_invalidFree__C)
                  80039dcc    00000004     omp_config_pe66.oe66 (.const:ti_sysbios_heaps_HeapMem_A_zeroBlock__C)
                  80039dd0    00000004     omp_config_pe66.oe66 (.const:ti_sysbios_heaps_HeapMem_E_memory__C)
                  80039dd4    00000004     omp_config_pe66.oe66 (.const:ti_sysbios_heaps_HeapMem_Module__diagsEnabled__C)
                  80039dd8    00000004     omp_config_pe66.oe66 (.const:ti_sysbios_heaps_HeapMem_Module__diagsIncluded__C)
                  80039ddc    00000004     omp_config_pe66.oe66 (.const:ti_sysbios_heaps_HeapMem_Module__diagsMask__C)
                  80039de0    00000004     omp_config_pe66.oe66 (.const:ti_sysbios_heaps_HeapMem_Module__gateObj__C)
                  80039de4    00000004     omp_config_pe66.oe66 (.const:ti_sysbios_heaps_HeapMem_Object__count__C)
                  80039de8    00000004     omp_config_pe66.oe66 (.const:ti_sysbios_heaps_HeapMem_Object__table__C)
                  80039dec    00000004     omp_config_pe66.oe66 (.const:ti_sysbios_heaps_HeapMem_reqAlign__C)
                  80039df0    00000004     omp_config_pe66.oe66 (.const:ti_sysbios_knl_Clock_A_badThreadType__C)
                  80039df4    00000004     omp_config_pe66.oe66 (.const:ti_sysbios_knl_Clock_LM_begin__C)
                  80039df8    00000004     omp_config_pe66.oe66 (.const:ti_sysbios_knl_Clock_LM_tick__C)
                  80039dfc    00000004     omp_config_pe66.oe66 (.const:ti_sysbios_knl_Clock_LW_delayed__C)
                  80039e00    00000004     omp_config_pe66.oe66 (.const:ti_sysbios_knl_Clock_Module_State_clockQ__O)
                  80039e04    00000004     omp_config_pe66.oe66 (.const:ti_sysbios_knl_Clock_Module__diagsEnabled__C)
                  80039e08    00000004     omp_config_pe66.oe66 (.const:ti_sysbios_knl_Clock_Module__diagsIncluded__C)
                  80039e0c    00000004     omp_config_pe66.oe66 (.const:ti_sysbios_knl_Clock_Module__diagsMask__C)
                  80039e10    00000004     omp_config_pe66.oe66 (.const:ti_sysbios_knl_Clock_Module__loggerFxn1__C)
                  80039e14    00000004     omp_config_pe66.oe66 (.const:ti_sysbios_knl_Clock_Module__loggerFxn2__C)
                  80039e18    00000004     omp_config_pe66.oe66 (.const:ti_sysbios_knl_Clock_Module__loggerObj__C)
                  80039e1c    00000004     omp_config_pe66.oe66 (.const:ti_sysbios_knl_Clock_tickMode__C)
                  80039e20    00000004     omp_config_pe66.oe66 (.const:ti_sysbios_knl_Clock_tickSource__C)
                  80039e24    00000004     omp_config_pe66.oe66 (.const:ti_sysbios_knl_Queue_Object__count__C)
                  80039e28    00000004     omp_config_pe66.oe66 (.const:ti_sysbios_knl_Queue_Object__table__C)
                  80039e2c    00000004     omp_config_pe66.oe66 (.const:ti_sysbios_knl_Semaphore_A_badContext__C)
                  80039e30    00000004     omp_config_pe66.oe66 (.const:ti_sysbios_knl_Semaphore_A_noEvents__C)
                  80039e34    00000004     omp_config_pe66.oe66 (.const:ti_sysbios_knl_Semaphore_A_overflow__C)
                  80039e38    00000004     omp_config_pe66.oe66 (.const:ti_sysbios_knl_Semaphore_Instance_State_pendQ__O)
                  80039e3c    00000004     omp_config_pe66.oe66 (.const:ti_sysbios_knl_Semaphore_LM_pend__C)
                  80039e40    00000004     omp_config_pe66.oe66 (.const:ti_sysbios_knl_Semaphore_LM_post__C)
                  80039e44    00000004     omp_config_pe66.oe66 (.const:ti_sysbios_knl_Semaphore_Module__diagsEnabled__C)
                  80039e48    00000004     omp_config_pe66.oe66 (.const:ti_sysbios_knl_Semaphore_Module__diagsIncluded__C)
                  80039e4c    00000004     omp_config_pe66.oe66 (.const:ti_sysbios_knl_Semaphore_Module__diagsMask__C)
                  80039e50    00000004     omp_config_pe66.oe66 (.const:ti_sysbios_knl_Semaphore_Module__loggerFxn2__C)
                  80039e54    00000004     omp_config_pe66.oe66 (.const:ti_sysbios_knl_Semaphore_Module__loggerFxn4__C)
                  80039e58    00000004     omp_config_pe66.oe66 (.const:ti_sysbios_knl_Semaphore_Module__loggerObj__C)
                  80039e5c    00000004     omp_config_pe66.oe66 (.const:ti_sysbios_knl_Swi_A_badPriority__C)
                  80039e60    00000004     omp_config_pe66.oe66 (.const:ti_sysbios_knl_Swi_LD_end__C)
                  80039e64    00000004     omp_config_pe66.oe66 (.const:ti_sysbios_knl_Swi_LM_begin__C)
                  80039e68    00000004     omp_config_pe66.oe66 (.const:ti_sysbios_knl_Swi_LM_post__C)
                  80039e6c    00000004     omp_config_pe66.oe66 (.const:ti_sysbios_knl_Swi_Module__diagsEnabled__C)
                  80039e70    00000004     omp_config_pe66.oe66 (.const:ti_sysbios_knl_Swi_Module__diagsIncluded__C)
                  80039e74    00000004     omp_config_pe66.oe66 (.const:ti_sysbios_knl_Swi_Module__diagsMask__C)
                  80039e78    00000004     omp_config_pe66.oe66 (.const:ti_sysbios_knl_Swi_Module__loggerFxn1__C)
                  80039e7c    00000004     omp_config_pe66.oe66 (.const:ti_sysbios_knl_Swi_Module__loggerFxn4__C)
                  80039e80    00000004     omp_config_pe66.oe66 (.const:ti_sysbios_knl_Swi_Module__loggerObj__C)
                  80039e84    00000004     omp_config_pe66.oe66 (.const:ti_sysbios_knl_Swi_Object__count__C)
                  80039e88    00000004     omp_config_pe66.oe66 (.const:ti_sysbios_knl_Swi_Object__table__C)
                  80039e8c    00000004     omp_config_pe66.oe66 (.const:ti_sysbios_knl_Task_A_badPriority__C)
                  80039e90    00000004     omp_config_pe66.oe66 (.const:ti_sysbios_knl_Task_A_badTaskState__C)
                  80039e94    00000004     omp_config_pe66.oe66 (.const:ti_sysbios_knl_Task_A_badThreadType__C)
                  80039e98    00000004     omp_config_pe66.oe66 (.const:ti_sysbios_knl_Task_A_noPendElem__C)
                  80039e9c    00000004     omp_config_pe66.oe66 (.const:ti_sysbios_knl_Task_E_deleteNotAllowed__C)
                  80039ea0    00000004     omp_config_pe66.oe66 (.const:ti_sysbios_knl_Task_E_spOutOfBounds__C)
                  80039ea4    00000004     omp_config_pe66.oe66 (.const:ti_sysbios_knl_Task_E_stackOverflow__C)
                  80039ea8    00000004     omp_config_pe66.oe66 (.const:ti_sysbios_knl_Task_LD_block__C)
                  80039eac    00000004     omp_config_pe66.oe66 (.const:ti_sysbios_knl_Task_LD_exit__C)
                  80039eb0    00000004     omp_config_pe66.oe66 (.const:ti_sysbios_knl_Task_LD_ready__C)
                  80039eb4    00000004     omp_config_pe66.oe66 (.const:ti_sysbios_knl_Task_LM_setPri__C)
                  80039eb8    00000004     omp_config_pe66.oe66 (.const:ti_sysbios_knl_Task_LM_switch__C)
                  80039ebc    00000004     omp_config_pe66.oe66 (.const:ti_sysbios_knl_Task_LM_yield__C)
                  80039ec0    00000004     omp_config_pe66.oe66 (.const:ti_sysbios_knl_Task_Module_State_inactiveQ__O)
                  80039ec4    00000004     omp_config_pe66.oe66 (.const:ti_sysbios_knl_Task_Module_State_terminatedQ__O)
                  80039ec8    00000004     omp_config_pe66.oe66 (.const:ti_sysbios_knl_Task_Module__diagsEnabled__C)
                  80039ecc    00000004     omp_config_pe66.oe66 (.const:ti_sysbios_knl_Task_Module__diagsIncluded__C)
                  80039ed0    00000004     omp_config_pe66.oe66 (.const:ti_sysbios_knl_Task_Module__diagsMask__C)
                  80039ed4    00000004     omp_config_pe66.oe66 (.const:ti_sysbios_knl_Task_Module__loggerFxn2__C)
                  80039ed8    00000004     omp_config_pe66.oe66 (.const:ti_sysbios_knl_Task_Module__loggerFxn4__C)
                  80039edc    00000004     omp_config_pe66.oe66 (.const:ti_sysbios_knl_Task_Module__loggerObj__C)
                  80039ee0    00000004     omp_config_pe66.oe66 (.const:ti_sysbios_knl_Task_Object__count__C)
                  80039ee4    00000004     omp_config_pe66.oe66 (.const:ti_sysbios_knl_Task_Object__heap__C)
                  80039ee8    00000004     omp_config_pe66.oe66 (.const:ti_sysbios_knl_Task_Object__table__C)
                  80039eec    00000004     omp_config_pe66.oe66 (.const:ti_sysbios_knl_Task_allBlockedFunc__C)
                  80039ef0    00000004     omp_config_pe66.oe66 (.const:ti_sysbios_knl_Task_defaultStackHeap__C)
                  80039ef4    00000004     omp_config_pe66.oe66 (.const:ti_sysbios_knl_Task_defaultStackSize__C)
                  80039ef8    00000004     omp_config_pe66.oe66 (.const:ti_sysbios_knl_Task_numConstructedTasks__C)
                  80039efc    00000004     omp_config_pe66.oe66 (.const:ti_sysbios_knl_Task_numPriorities__C)
                  80039f00    00000004     omp_config_pe66.oe66 (.const:ti_sysbios_timers_timer64_Timer_A_notAvailable__C)
                  80039f04    00000004     omp_config_pe66.oe66 (.const:ti_sysbios_timers_timer64_Timer_E_cannotSupport__C)
                  80039f08    00000004     omp_config_pe66.oe66 (.const:ti_sysbios_timers_timer64_Timer_Module__diagsEnabled__C)
                  80039f0c    00000004     omp_config_pe66.oe66 (.const:ti_sysbios_timers_timer64_Timer_Module__diagsIncluded__C)
                  80039f10    00000004     omp_config_pe66.oe66 (.const:ti_sysbios_timers_timer64_Timer_Module__diagsMask__C)
                  80039f14    00000004     omp_config_pe66.oe66 (.const:ti_sysbios_timers_timer64_Timer_anyMask__C)
                  80039f18    00000004     omp_config_pe66.oe66 (.const:ti_sysbios_timers_timer64_Timer_freqDivisor__C)
                  80039f1c    00000004     omp_config_pe66.oe66 (.const:ti_sysbios_timers_timer64_Timer_numLocalTimers__C)
                  80039f20    00000004     omp_config_pe66.oe66 (.const:ti_sysbios_timers_timer64_Timer_numTimerDevices__C)
                  80039f24    00000004     omp_config_pe66.oe66 (.const:ti_sysbios_xdcruntime_GateThreadSupport_Instance_State_gate__O)
                  80039f28    00000004     omp_config_pe66.oe66 (.const:xdc_runtime_Assert_E_assertFailed__C)
                  80039f2c    00000004     omp_config_pe66.oe66 (.const:xdc_runtime_Core_A_initializedParams__C)
                  80039f30    00000004     omp_config_pe66.oe66 (.const:xdc_runtime_Core_Module__diagsEnabled__C)
                  80039f34    00000004     omp_config_pe66.oe66 (.const:xdc_runtime_Core_Module__diagsIncluded__C)
                  80039f38    00000004     omp_config_pe66.oe66 (.const:xdc_runtime_Core_Module__diagsMask__C)
                  80039f3c    00000004     omp_config_pe66.oe66 (.const:xdc_runtime_Error_E_generic__C)
                  80039f40    00000004     omp_config_pe66.oe66 (.const:xdc_runtime_Error_E_memory__C)
                  80039f44    00000004     omp_config_pe66.oe66 (.const:xdc_runtime_Error_Module__diagsEnabled__C)
                  80039f48    00000004     omp_config_pe66.oe66 (.const:xdc_runtime_Error_Module__diagsIncluded__C)
                  80039f4c    00000004     omp_config_pe66.oe66 (.const:xdc_runtime_Error_Module__diagsMask__C)
                  80039f50    00000004     omp_config_pe66.oe66 (.const:xdc_runtime_Error_Module__loggerFxn8__C)
                  80039f54    00000004     omp_config_pe66.oe66 (.const:xdc_runtime_Error_Module__loggerObj__C)
                  80039f58    00000004     omp_config_pe66.oe66 (.const:xdc_runtime_Error_policy__C)
                  80039f5c    00000004     omp_config_pe66.oe66 (.const:xdc_runtime_Error_raiseHook__C)
                  80039f60    00000004     omp_config_pe66.oe66 (.const:xdc_runtime_IGateProvider_Interface__BASE__C)
                  80039f64    00000004     omp_config_pe66.oe66 (.const:xdc_runtime_IHeap_Interface__BASE__C)
                  80039f68    00000004     omp_config_pe66.oe66 (.const:xdc_runtime_IModule_Interface__BASE__C)
                  80039f6c    00000004     omp_config_pe66.oe66 (.const:xdc_runtime_Log_L_error__C)
                  80039f70    00000004     omp_config_pe66.oe66 (.const:xdc_runtime_Main_Module__diagsEnabled__C)
                  80039f74    00000004     omp_config_pe66.oe66 (.const:xdc_runtime_Main_Module__diagsIncluded__C)
                  80039f78    00000004     omp_config_pe66.oe66 (.const:xdc_runtime_Main_Module__diagsMask__C)
                  80039f7c    00000004     omp_config_pe66.oe66 (.const:xdc_runtime_Main_Module__loggerFxn4__C)
                  80039f80    00000004     omp_config_pe66.oe66 (.const:xdc_runtime_Main_Module__loggerObj__C)
                  80039f84    00000004     omp_config_pe66.oe66 (.const:xdc_runtime_Memory_defaultHeapInstance__C)
                  80039f88    00000004     omp_config_pe66.oe66 (.const:xdc_runtime_Startup_execImpl__C)
                  80039f8c    00000004     omp_config_pe66.oe66 (.const:xdc_runtime_Startup_maxPasses__C)
                  80039f90    00000004     omp_config_pe66.oe66 (.const:xdc_runtime_Startup_sfxnRts__C)
                  80039f94    00000004     omp_config_pe66.oe66 (.const:xdc_runtime_Startup_sfxnTab__C)
                  80039f98    00000004     omp_config_pe66.oe66 (.const:xdc_runtime_Startup_startModsFxn__C)
                  80039f9c    00000004     omp_config_pe66.oe66 (.const:xdc_runtime_SysMin_bufSize__C)
                  80039fa0    00000004     omp_config_pe66.oe66 (.const:xdc_runtime_SysMin_outputFunc__C)
                  80039fa4    00000004     omp_config_pe66.oe66 (.const:xdc_runtime_System_Module__gateObj__C)
                  80039fa8    00000004     omp_config_pe66.oe66 (.const:xdc_runtime_System_extendFxn__C)
                  80039fac    00000004     omp_config_pe66.oe66 (.const:xdc_runtime_System_maxAtexitHandlers__C)
                  80039fb0    00000004     omp_config_pe66.oe66 (.const:xdc_runtime_Text_charTab__C)
                  80039fb4    00000004     omp_config_pe66.oe66 (.const:xdc_runtime_Text_nameEmpty__C)
                  80039fb8    00000004     omp_config_pe66.oe66 (.const:xdc_runtime_Text_nameStatic__C)
                  80039fbc    00000004     omp_config_pe66.oe66 (.const:xdc_runtime_Text_nameUnknown__C)
                  80039fc0    00000004     omp_config_pe66.oe66 (.const:xdc_runtime_Text_nodeTab__C)
                  80039fc4    00000004     omp_config_pe66.oe66 (.const:xdc_runtime_Text_visitRopeFxn__C)
                  80039fc8    00000002     omp_config_pe66.oe66 (.const:ti_omp_utils_OpenMP_enableMemoryConsistency__C)
                  80039fca    00000002     --HOLE-- [fill = 0]
                  80039fcc    00000002     omp_config_pe66.oe66 (.const:ti_omp_utils_OpenMP_qmssInit__C)
                  80039fce    00000002     --HOLE-- [fill = 0]
                  80039fd0    00000002     omp_config_pe66.oe66 (.const:ti_omp_utils_SemaphoreMP_Module__id__C)
                  80039fd2    00000002     --HOLE-- [fill = 0]
                  80039fd4    00000002     omp_config_pe66.oe66 (.const:ti_omp_utils_ThreadLocal_Module__id__C)
                  80039fd6    00000002     --HOLE-- [fill = 0]
                  80039fd8    00000002     omp_config_pe66.oe66 (.const:ti_sdo_ipc_GateMP_Module__id__C)
                  80039fda    00000002     --HOLE-- [fill = 0]
                  80039fdc    00000002     omp_config_pe66.oe66 (.const:ti_sdo_ipc_GateMP_Module__loggerDefined__C)
                  80039fde    00000002     --HOLE-- [fill = 0]
                  80039fe0    00000002     omp_config_pe66.oe66 (.const:ti_sdo_ipc_Ipc_Module__id__C)
                  80039fe2    00000002     --HOLE-- [fill = 0]
                  80039fe4    00000002     omp_config_pe66.oe66 (.const:ti_sdo_ipc_Ipc_generateSlaveDataForHost__C)
                  80039fe6    00000002     --HOLE-- [fill = 0]
                  80039fe8    00000002     omp_config_pe66.oe66 (.const:ti_sdo_ipc_ListMP_Module__id__C)
                  80039fea    00000002     --HOLE-- [fill = 0]
                  80039fec    00000002     omp_config_pe66.oe66 (.const:ti_sdo_ipc_MessageQ_Module__id__C)
                  80039fee    00000002     --HOLE-- [fill = 0]
                  80039ff0    00000002     omp_config_pe66.oe66 (.const:ti_sdo_ipc_MessageQ_Module__loggerDefined__C)
                  80039ff2    00000002     --HOLE-- [fill = 0]
                  80039ff4    00000002     omp_config_pe66.oe66 (.const:ti_sdo_ipc_Notify_Module__id__C)
                  80039ff6    00000002     --HOLE-- [fill = 0]
                  80039ff8    00000002     omp_config_pe66.oe66 (.const:ti_sdo_ipc_Notify_numLines__C)
                  80039ffa    00000002     --HOLE-- [fill = 0]
                  80039ffc    00000002     omp_config_pe66.oe66 (.const:ti_sdo_ipc_Notify_reservedEvents__C)
                  80039ffe    00000002     --HOLE-- [fill = 0]
                  8003a000    00000002     omp_config_pe66.oe66 (.const:ti_sdo_ipc_SharedRegion_Module__id__C)
                  8003a002    00000002     --HOLE-- [fill = 0]
                  8003a004    00000002     omp_config_pe66.oe66 (.const:ti_sdo_ipc_SharedRegion_numEntries__C)
                  8003a006    00000002     --HOLE-- [fill = 0]
                  8003a008    00000002     omp_config_pe66.oe66 (.const:ti_sdo_ipc_SharedRegion_translate__C)
                  8003a00a    00000002     --HOLE-- [fill = 0]
                  8003a00c    00000002     omp_config_pe66.oe66 (.const:ti_sdo_ipc_family_c647x_Interrupt_enableKick__C)
                  8003a00e    00000002     --HOLE-- [fill = 0]
                  8003a010    00000002     omp_config_pe66.oe66 (.const:ti_sdo_ipc_gates_GateHWSem_Module__id__C)
                  8003a012    00000002     --HOLE-- [fill = 0]
                  8003a014    00000002     omp_config_pe66.oe66 (.const:ti_sdo_ipc_gates_GateMPSupportNull_Module__id__C)
                  8003a016    00000002     --HOLE-- [fill = 0]
                  8003a018    00000002     omp_config_pe66.oe66 (.const:ti_sdo_ipc_gates_GatePeterson_Module__id__C)
                  8003a01a    00000002     --HOLE-- [fill = 0]
                  8003a01c    00000002     omp_config_pe66.oe66 (.const:ti_sdo_ipc_heaps_HeapMemMP_Module__id__C)
                  8003a01e    00000002     --HOLE-- [fill = 0]
                  8003a020    00000002     omp_config_pe66.oe66 (.const:ti_sdo_ipc_notifyDrivers_NotifyDriverShm_Module__id__C)
                  8003a022    00000002     --HOLE-- [fill = 0]
                  8003a024    00000002     omp_config_pe66.oe66 (.const:ti_sdo_ipc_nsremote_NameServerRemoteNotify_Module__id__C)
                  8003a026    00000002     --HOLE-- [fill = 0]
                  8003a028    00000002     omp_config_pe66.oe66 (.const:ti_sdo_ipc_transports_TransportShm_Module__id__C)
                  8003a02a    00000002     --HOLE-- [fill = 0]
                  8003a02c    00000002     omp_config_pe66.oe66 (.const:ti_sdo_ipc_transports_TransportShm_notifyEventId__C)
                  8003a02e    00000002     --HOLE-- [fill = 0]
                  8003a030    00000002     omp_config_pe66.oe66 (.const:ti_sdo_utils_MultiProc_Module__id__C)
                  8003a032    00000002     --HOLE-- [fill = 0]
                  8003a034    00000002     omp_config_pe66.oe66 (.const:ti_sdo_utils_MultiProc_numProcessors__C)
                  8003a036    00000002     --HOLE-- [fill = 0]
                  8003a038    00000002     omp_config_pe66.oe66 (.const:ti_sdo_utils_MultiProc_numProcsInCluster__C)
                  8003a03a    00000002     --HOLE-- [fill = 0]
                  8003a03c    00000002     omp_config_pe66.oe66 (.const:ti_sdo_utils_NameServer_Module__id__C)
                  8003a03e    00000002     --HOLE-- [fill = 0]
                  8003a040    00000002     omp_config_pe66.oe66 (.const:ti_sysbios_BIOS_Module__id__C)
                  8003a042    00000002     --HOLE-- [fill = 0]
                  8003a044    00000002     omp_config_pe66.oe66 (.const:ti_sysbios_family_c64p_Exception_Module__id__C)
                  8003a046    00000002     --HOLE-- [fill = 0]
                  8003a048    00000002     omp_config_pe66.oe66 (.const:ti_sysbios_family_c64p_Hwi_Module__id__C)
                  8003a04a    00000002     --HOLE-- [fill = 0]
                  8003a04c    00000002     omp_config_pe66.oe66 (.const:ti_sysbios_family_c64p_Hwi_Module__loggerDefined__C)
                  8003a04e    00000002     --HOLE-- [fill = 0]
                  8003a050    00000002     omp_config_pe66.oe66 (.const:ti_sysbios_gates_GateMutexPri_Module__id__C)
                  8003a052    00000002     --HOLE-- [fill = 0]
                  8003a054    00000002     omp_config_pe66.oe66 (.const:ti_sysbios_gates_GateMutex_Module__id__C)
                  8003a056    00000002     --HOLE-- [fill = 0]
                  8003a058    00000002     omp_config_pe66.oe66 (.const:ti_sysbios_gates_GateSwi_Module__id__C)
                  8003a05a    00000002     --HOLE-- [fill = 0]
                  8003a05c    00000002     omp_config_pe66.oe66 (.const:ti_sysbios_hal_Hwi_Module__id__C)
                  8003a05e    00000002     --HOLE-- [fill = 0]
                  8003a060    00000002     omp_config_pe66.oe66 (.const:ti_sysbios_heaps_HeapMem_Module__id__C)
                  8003a062    00000002     --HOLE-- [fill = 0]
                  8003a064    00000002     omp_config_pe66.oe66 (.const:ti_sysbios_knl_Clock_Module__id__C)
                  8003a066    00000002     --HOLE-- [fill = 0]
                  8003a068    00000002     omp_config_pe66.oe66 (.const:ti_sysbios_knl_Clock_Module__loggerDefined__C)
                  8003a06a    00000002     --HOLE-- [fill = 0]
                  8003a06c    00000002     omp_config_pe66.oe66 (.const:ti_sysbios_knl_Semaphore_Module__id__C)
                  8003a06e    00000002     --HOLE-- [fill = 0]
                  8003a070    00000002     omp_config_pe66.oe66 (.const:ti_sysbios_knl_Semaphore_Module__loggerDefined__C)
                  8003a072    00000002     --HOLE-- [fill = 0]
                  8003a074    00000002     omp_config_pe66.oe66 (.const:ti_sysbios_knl_Swi_Module__id__C)
                  8003a076    00000002     --HOLE-- [fill = 0]
                  8003a078    00000002     omp_config_pe66.oe66 (.const:ti_sysbios_knl_Swi_Module__loggerDefined__C)
                  8003a07a    00000002     --HOLE-- [fill = 0]
                  8003a07c    00000002     omp_config_pe66.oe66 (.const:ti_sysbios_knl_Task_Module__id__C)
                  8003a07e    00000002     --HOLE-- [fill = 0]
                  8003a080    00000002     omp_config_pe66.oe66 (.const:ti_sysbios_knl_Task_Module__loggerDefined__C)
                  8003a082    00000002     --HOLE-- [fill = 0]
                  8003a084    00000002     omp_config_pe66.oe66 (.const:ti_sysbios_knl_Task_deleteTerminatedTasks__C)
                  8003a086    00000002     --HOLE-- [fill = 0]
                  8003a088    00000002     omp_config_pe66.oe66 (.const:ti_sysbios_knl_Task_initStackFlag__C)
                  8003a08a    00000002     --HOLE-- [fill = 0]
                  8003a08c    00000002     omp_config_pe66.oe66 (.const:ti_sysbios_timers_timer64_Timer_Module__id__C)
                  8003a08e    00000002     --HOLE-- [fill = 0]
                  8003a090    00000002     omp_config_pe66.oe66 (.const:ti_sysbios_timers_timer64_Timer_startupNeeded__C)
                  8003a092    00000002     --HOLE-- [fill = 0]
                  8003a094    00000002     omp_config_pe66.oe66 (.const:xdc_runtime_Core_Module__id__C)
                  8003a096    00000002     --HOLE-- [fill = 0]
                  8003a098    00000002     omp_config_pe66.oe66 (.const:xdc_runtime_Error_Module__loggerDefined__C)
                  8003a09a    00000002     --HOLE-- [fill = 0]
                  8003a09c    00000002     omp_config_pe66.oe66 (.const:xdc_runtime_Error_maxDepth__C)
                  8003a09e    00000002     --HOLE-- [fill = 0]
                  8003a0a0    00000002     omp_config_pe66.oe66 (.const:xdc_runtime_Main_Module__id__C)
                  8003a0a2    00000002     --HOLE-- [fill = 0]
                  8003a0a4    00000002     omp_config_pe66.oe66 (.const:xdc_runtime_Main_Module__loggerDefined__C)
                  8003a0a6    00000002     --HOLE-- [fill = 0]
                  8003a0a8    00000002     omp_config_pe66.oe66 (.const:xdc_runtime_Memory_Module__id__C)
                  8003a0aa    00000002     --HOLE-- [fill = 0]
                  8003a0ac    00000002     omp_config_pe66.oe66 (.const:xdc_runtime_SysMin_flushAtExit__C)
                  8003a0ae    00000002     --HOLE-- [fill = 0]
                  8003a0b0    00000002     omp_config_pe66.oe66 (.const:xdc_runtime_Text_charCnt__C)
                  8003a0b2    00000002     --HOLE-- [fill = 0]
                  8003a0b4    00000002     omp_config_pe66.oe66 (.const:xdc_runtime_Text_isLoaded__C)
                  8003a0b6    00000002     --HOLE-- [fill = 0]
                  8003a0b8    00000002     omp_config_pe66.oe66 (.const:xdc_runtime_Text_registryModsLastId__C)
                  8003a0ba    00000002     --HOLE-- [fill = 0]
                  8003a0bc    00000002     omp_config_pe66.oe66 (.const:xdc_runtime_Text_unnamedModsLastId__C)

.switch    0    8003a0c0    000000b0     
                  8003a0c0    00000070     ti.csl.ae66 : csl_chip.oe66 (.switch:CSL_chipReadReg)
                  8003a130    00000030     ti.omp.ae66 : env.oe66 (.switch:parse_stacksize)
                  8003a160    00000010     ipc.ae66 : Ipc.obj (.switch:ti_sdo_ipc_GateMP_Instance_finalize__F)

.binit     0    8003a170    0000001c     
                  8003a170    0000001c     (.binit)

.vecs      0    8003a400    00000200     
                  8003a400    00000200     omp_config_pe66.oe66 (.vecs)

.text:_c_int00 
*          0    8003a800    000000a0     
                  8003a800    000000a0     boot.ae66 : boot.oe66 (.text:_c_int00)

.cinit     0    8003a8a0    00000990     
                  8003a8a0    000008d4     (.cinit..localfar.load) [load image, compression = rle]
                  8003b174    0000002b     (.cinit.gomp_data.2.load) [load image, compression = rle]
                  8003b19f    00000001     --HOLE-- [fill = 0]
                  8003b1a0    0000000c     (__TI_handler_table)
                  8003b1ac    00000009     (.cinit.gomp_data.1.load) [load image, compression = rle]
                  8003b1b5    00000003     --HOLE-- [fill = 0]
                  8003b1b8    00000008     (.cinit..bss.load) [load image, compression = zero_init]
                  8003b1c0    00000008     (.cinit..cppi.load) [load image, compression = zero_init]
                  8003b1c8    00000008     (.cinit..far.load) [load image, compression = zero_init]
                  8003b1d0    00000008     (.cinit..qmss.1.load) [load image, compression = zero_init]
                  8003b1d8    00000008     (.cinit..qmss.2.load) [load image, compression = zero_init]
                  8003b1e0    00000008     (.cinit..tls_tp.load) [load image, compression = zero_init]
                  8003b1e8    00000048     (__TI_cinit_table)

ti.sdo.ipc.SharedRegion_2 
*          0    90000000    10000000     NOLOAD SECTION
                  90000000    10000000     --HOLE--

ti.sdo.ipc.SharedRegion_0 
*          0    a0300000    00080000     NOLOAD SECTION
                  a0300000    00080000     --HOLE--

.qmss.1    0    a0380000    000120ac     UNINITIALIZED
                  a0380000    000120ac     ti.omp.navigator.ae66 : Navigator.oe66 (.qmss)

.bss       0    a03920ac    00000004     UNINITIALIZED
                  a03920ac    00000004     omp_config_pe66.oe66 (.bss)

.neardata 
*          0    a03920b0    00000000     UNINITIALIZED

.rodata    0    a03920b0    00000000     UNINITIALIZED

gomp_data.1 
*          0    a03920b0    00000050     
                  a03920b0    00000044     ti.omp.ae66 : team.oe66 (gomp_data) [fill = 0]
                  a03920f4    0000000c                 : critical.oe66 (gomp_data) [fill = 0]

.qmss.2    0    a0392100    00002400     UNINITIALIZED
                  a0392100    00002400     ti.drv.qmss.ae66 : qmss_drv.oe66 (.qmss)

gomp_data.2 
*          0    a0394500    00000256     
                  a0394500    000001d0     ti.omp.utils.ae66 : OpenMP.oe66 (gomp_data) [fill = 0]
                  a03946d0    00000040                       : ThreadLocal.oe66 (gomp_data:uninit) [fill = 0]
                  a0394710    00000020     ti.omp.ae66 : env.oe66 (gomp_data:init)
                  a0394730    00000020                 : env.oe66 (gomp_data:uninit) [fill = 0]
                  a0394750    00000004     ti.omp.utils.ae66 : SemaphoreMP.oe66 (gomp_data)
                  a0394754    00000002                       : ThreadLocal.oe66 (gomp_data:init)

.far       0    a03948a8    00000120     UNINITIALIZED
                  a03948a8    00000120     ti.drv.qmss.ae66 : qmss_drv.oe66 (.far)


LINKER GENERATED COPY TABLES

binit @ 8003a170 records: 2, size/record: 12, table size: 28
	.neardata: load addr=80035120, load size=00000001, run addr=a0394758, run size=00000001, compression=none
	.fardata: load addr=80035128, load size=00000148, run addr=a0394760, run size=00000148, compression=none
__TI_cinit_table @ 8003b1e8 records: 9, size/record: 8, table size: 72
	.localfar: load addr=8003a8a0, load size=000008d4 bytes, run addr=00800000, run size=0002ac9c bytes, compression=rle
	gomp_data.2: load addr=8003b174, load size=0000002b bytes, run addr=a0394500, run size=00000256 bytes, compression=rle
	gomp_data.1: load addr=8003b1ac, load size=00000009 bytes, run addr=a03920b0, run size=00000050 bytes, compression=rle
	.bss: load addr=8003b1b8, load size=00000008 bytes, run addr=a03920ac, run size=00000004 bytes, compression=zero_init
	.cppi: load addr=8003b1c0, load size=00000008 bytes, run addr=0c000000, run size=00000200 bytes, compression=zero_init
	.far: load addr=8003b1c8, load size=00000008 bytes, run addr=a03948a8, run size=00000120 bytes, compression=zero_init
	.qmss.1: load addr=8003b1d0, load size=00000008 bytes, run addr=a0380000, run size=000120ac bytes, compression=zero_init
	.qmss.2: load addr=8003b1d8, load size=00000008 bytes, run addr=a0392100, run size=00002400 bytes, compression=zero_init
	.tls_tp: load addr=8003b1e0, load size=00000008 bytes, run addr=0082ac9c, run size=00000004 bytes, compression=zero_init


LINKER GENERATED HANDLER TABLE

__TI_handler_table @ 8003b1a0 records: 3, size/record: 4, table size: 12
	index: 0, handler: __TI_decompress_rle24
	index: 1, handler: __TI_decompress_none
	index: 2, handler: __TI_zero_init


GLOBAL SYMBOLS: SORTED ALPHABETICALLY BY Name 

address    name
--------   ----
80032a20   C$$EXIT
8002d738   C$$IO$$
80023940   CSL_chipReadReg
80012200   Cppi_initDescriptor
8001acc0   Cppi_open
8002fba0   Create_Queue
a0392098   EventFreeDescHnd
80032680   GOMP_loop_end
800326a0   GOMP_loop_static_next
8002fbe0   GOMP_loop_static_start
8002a800   GOMP_parallel_end
8002fc20   GOMP_parallel_start
8002dca0   GateMP_Params_init
80023a80   GateMP_close
8001cfa0   GateMP_enter
800326c0   GateMP_getDefaultRemote
8001d1a0   GateMP_leave
80015900   GateMP_openByAddr
800142c0   GateMP_sharedMemReq
8002bb60   HOSTclose
80026ec0   HOSTgetenv
80026fa0   HOSTlseek
80027080   HOSTopen
80028660   HOSTread
80021060   HOSTrename
8002bbe0   HOSTtime
8002a8a0   HOSTunlink
80028720   HOSTwrite
8002dd00   HeapMemMP_Params_init
800287e0   HeapMemMP_create
8001ed20   HeapMemMP_openByAddr
80013880   HeapMemMP_sharedMemReq
80002600   Ipc_attach
a03920ac   Ipc_sr0MemorySetup
800178a0   Ipc_start
800288a0   ListMP_create
8000ba20   ListMP_getHead
8001d3a0   ListMP_openByAddr
80011140   ListMP_putTail
80019c20   ListMP_sharedMemReq
80005c40   MessageQ_put
800326e0   MultiProc_getBaseIdOfCluster
80032700   MultiProc_getNumProcsInCluster
80032720   MultiProc_self
800211e0   MultiProc_setLocalId
80008920   NameServer_add
80021360   NameServer_getHandle
80017b40   NameServer_getLocal
80023bc0   Notify_attach
800214e0   Notify_intLineRegistered
8002ddc0   Notify_numIntLines
80007b60   Notify_registerEvent
8000ae60   Notify_registerEventSingle
80009640   Notify_sendEvent
8000bfe0   Notify_unregisterEventSingle
80032740   Osal_cppiBeginMemAccess
8002fc60   Osal_cppiCsEnter
80032760   Osal_cppiCsExit
80032780   Osal_cppiEndMemAccess
8002fca0   Osal_qmssBeginMemAccess
8002fce0   Osal_qmssCsEnter
800327a0   Osal_qmssCsExit
8002fd20   Osal_qmssEndMemAccess
8002fd60   Qmss_getMemRegDescSize
8002bc60   Qmss_getMemRegQueueHandle
800327c0   Qmss_getQueueNumber
80014600   Qmss_init
80006480   Qmss_insertMemoryRegion
8002bce0   Qmss_queueOpen
800327e0   Qmss_start
8002a940   Qmss_startCfg
80032800   Queue_empty
a0394750   SemaphoreMP_pendElemKey
8001fce0   SharedRegion_getCacheLineSize
80016200   SharedRegion_getEntry
8001fe80   SharedRegion_getHeap
80028960   SharedRegion_getId
800164e0   SharedRegion_getPtr
80018320   SharedRegion_getSRPtr
80020020   SharedRegion_isCacheEnabled
8000b440   SharedRegion_setEntry
0082a258   TSK_idle
a03946d0   ThreadLocal_destructors
a0394754   ThreadLocal_usedKeys
80000000   __ASM__
0082bca0   __CIOBUF_
80000060   __ISA__
80000078   __PLAT__
80000098   __TARG__
8003b1e8   __TI_CINIT_Base
8003b230   __TI_CINIT_Limit
8003b1a0   __TI_Handler_Table_Base
8003b1ac   __TI_Handler_Table_Limit
UNDEFED    __TI_INITARRAY_Base
UNDEFED    __TI_INITARRAY_Limit
0082bca0   __TI_STACK_END
00001000   __TI_STACK_SIZE
a0394758   __TI_STATIC_BASE
UNDEFED    __TI_TLS_BLOCK_SIZE
UNDEFED    __TI_TLS_INIT_Base
UNDEFED    __TI_TLS_INIT_Limit
00000001   __TI_args_main
80032820   __TI_data_synch_INV
8002fea0   __TI_data_synch_WB
8002fee0   __TI_data_synch_WBINV
80032a60   __TI_decompress_none
80032a80   __TI_decompress_rle24
0082ac6c   __TI_enable_exit_profile_output
ffffffff   __TI_pprof_out_hndl
ffffffff   __TI_prof_data_size
ffffffff   __TI_prof_data_start
8002bd60   __TI_resource_lock
8002ff20   __TI_resource_unlock
8003a170   __TI_table_binit
80034920   __TI_tls_block_size
0082ac9c   __TI_tls_currentTP
8002a460   __TI_tls_init
800275c0   __TI_zero_init
800000c0   __TRDR__
8003a170   __binit__
8000c5a0   __c6xabi_divd
800185a0   __c6xabi_divf
80027240   __c6xabi_divi
80028ae0   __c6xabi_divu
800201c0   __c6xabi_divul
8001af00   __c6xabi_divull
80032840   __c6xabi_errno_addr
80027160   __c6xabi_fltllid
8002de20   __c6xabi_frcmpyd_div
8002ff60   __c6xabi_isinf
8002bde0   __c6xabi_llshl
8002de80   __c6xabi_llshru
80032860   __c6xabi_negll
8002aa80   __c6xabi_remu
ffffffff   __c_args__
80032880   __cxa_atexit
80028a20   __cxa_finalize
800328a0   __cxa_ia64_exit
80027240   __divi
80028ae0   __divu
0082ac94   __errno
8002aa80   __remu
800328c0   __xdc__init
00829f18   __xdc__init__addr
8002ffe0   _args_main
00000000   _argsize
80023d00   _auto_init_elf
8003a800   _c_int00
8002ab20   _cleanup
0082ac64   _cleanup_ptr
800250e0   _closefile
800389f0   _ctypes_
0082ac60   _delete_mutexes_ptr
80028ba0   _doflush
0082ac68   _dtors_ptr
0082ac8c   _ft_end
0082a950   _ftable
0082ac7c   _lock
800328e0   _nop
8000ffc0   _printfi
80032980   _register_lock
800329a0   _register_unlock
0082aca0   _stack
8002dee0   _subcull
800329c0   _system_pre_init
00829190   _tmpnams
0082ac80   _unlock
800258c0   _wrt_ok
80032a20   abort
80032a40   atexit
80027400   atoi
8003a170   binit
8002df40   calloc
800274e0   close
a0392090   completionQueHnd
800259c0   copy_in
a0392000   cpdmaCfg
a039208c   cppiHnd
0c000000   cppiObject
a039205c   descCfg
0082ac94   errno
a0390000   eventDesc
a0392094   eventQueHnd
800276a0   exit
8001b5c0   fputc
800125c0   fputs
800300a0   free
80023f80   fseek
80032ac0   getenv
a0394728   gomp_available_cpus
80030120   gomp_barrier_destroy
80013c00   gomp_barrier_handle_tasks
8001f260   gomp_barrier_init
80030160   gomp_barrier_reinit
80021960   gomp_barrier_wait
8002aee0   gomp_barrier_wait_end
a0394730   gomp_cpu_affinity
a0394734   gomp_cpu_affinity_len
80032b60   gomp_dynamic_max_threads
800301a0   gomp_end_task
800301e0   gomp_error
80030220   gomp_fatal
8002e180   gomp_fini_work_share
80030260   gomp_free
a0394710   gomp_global_icv
80032bc0   gomp_init_affinity
80032be0   gomp_init_num_threads
8002bf60   gomp_init_task
80032c00   gomp_init_thread_affinity
80027780   gomp_init_work_share
80013f60   gomp_iter_static_next
a03920ec   gomp_main_exit
8002e360   gomp_malloc
a039472c   gomp_managed_threads
a0394720   gomp_max_active_levels_var
8002e3c0   gomp_new_icv
80020360   gomp_new_team
8002c060   gomp_realloc
a0394738   gomp_remaining_threads_count
a039473c   gomp_remaining_threads_lock
80021ae0   gomp_resolve_num_threads
a0394740   gomp_spin_count_var
80032fa0   gomp_team_barrier_wait
80024340   gomp_team_barrier_wait_end
8002e480   gomp_team_barrier_wake
80021c60   gomp_team_end
80009c60   gomp_team_start
a03920b0   gomp_thread_attr
80030560   gomp_thread_create
a03920e8   gomp_thread_destructor
800331e0   gomp_thread_getspecific
80033200   gomp_thread_key_create
80033220   gomp_thread_key_delete
a0394724   gomp_thread_limit_var
80033240   gomp_thread_setspecific
a0394748   gomp_throttled_spin_count_var
a03920f0   gomp_tls_key
8002b020   gomp_work_share_end
80029020   gomp_work_share_start
8002b0c0   init_Navigator
80030620   initialize_critical
80018d20   initialize_env
80027860   initialize_team
a03920a0   isQMSSInitialized
80033260   isspace
a0380000   linkingRAM0
8002b160   lseek
80027940   ltoa
8000488c   main
8002c3e0   malloc
a0392044   memInfo
8002e540   memccpy
8002b200   memcpy
80027a20   memset
800332c0   omp_get_thread_num
a0394760   omp_qmssGblCfgParams
80030720   omp_set_num_threads
80004260   p
80027b00   printf
800332e0   pthread_equal
8002e5a0   pthread_mutex_destroy
8002c4e0   pthread_mutex_init
80029260   pthread_mutex_lock
80029320   pthread_mutex_unlock
800293e0   pthread_once
80030760   pthread_self
a0394100   qmssGObj
a0392018   qmssInitConfig
a03948a8   qmssLObj
a0394758   qmssLObjIsValid
a0392100   queueFree
8002c560   queue_pop_elem_wait
8002e600   queue_push_elem
80004340   radixsort_parallel
8002e660   rand
8002c5e0   readmsg
8002b340   realloc
a03920a4   release
a039209c   releaseHnd
8002f0e0   remove
a03920a8   runCount
8001c0c0   setvbuf
80025ec0   siu_ibl_download_core
800307e0   srand
8002b3e0   strerror
8002e6c0   strncmp
80014fa0   strtoul
8002e720   team_destructor
a0394880   tenPowers
80030820   ti_omp_utils_HeapOMP_Handle__label__S
80030860   ti_omp_utils_HeapOMP_Instance_init__F
800391b8   ti_omp_utils_HeapOMP_Module__FXNS__C
00829ba0   ti_omp_utils_HeapOMP_Module__root__V
80039534   ti_omp_utils_HeapOMP_Object__DESC__C
80039554   ti_omp_utils_HeapOMP_Object__PARAMS__C
8002c660   ti_omp_utils_HeapOMP_Object__create__S
800308a0   ti_omp_utils_HeapOMP_Object__delete__S
0082a8c0   ti_omp_utils_HeapOMP_Object__table__V
8002e780   ti_omp_utils_HeapOMP_alloc__E
800308e0   ti_omp_utils_HeapOMP_free__E
80033300   ti_omp_utils_HeapOMP_getStats__E
80033320   ti_omp_utils_HeapOMP_isBlocking__E
80033340   ti_omp_utils_HeapOMP_isBlocking__F
00829ba8   ti_omp_utils_OpenMP_Module__state__V
80038ea4   ti_omp_utils_OpenMP_baseIdOfCluster__C
800394a4   ti_omp_utils_OpenMP_cppiHwSem__C
8001c2e0   ti_omp_utils_OpenMP_createThread__E
80039fc8   ti_omp_utils_OpenMP_enableMemoryConsistency__C
80033360   ti_omp_utils_OpenMP_exitThread__E
8002c6e0   ti_omp_utils_OpenMP_exitThread__F
80033380   ti_omp_utils_OpenMP_mainTaskExit__E
80022e40   ti_omp_utils_OpenMP_mainTaskExit__F
8002c760   ti_omp_utils_OpenMP_mainTask__I
800399dc   ti_omp_utils_OpenMP_masterFxn__C
80018fa0   ti_omp_utils_OpenMP_masterTask__I
800399f4   ti_omp_utils_OpenMP_mpaxIndex__C
80039a14   ti_omp_utils_OpenMP_mpaxRaddr__C
80039a44   ti_omp_utils_OpenMP_noncachedMsmcAlias__C
80039a88   ti_omp_utils_OpenMP_ompHwSem__C
80039a8c   ti_omp_utils_OpenMP_qmssDestQueueNum__C
80039a90   ti_omp_utils_OpenMP_qmssHwSem__C
80039fcc   ti_omp_utils_OpenMP_qmssInit__C
80039a94   ti_omp_utils_OpenMP_qmssMemRegion__C
80039a98   ti_omp_utils_OpenMP_qmssStartIndex__C
8002e7e0   ti_omp_utils_OpenMP_setProcId__I
80039a9c   ti_omp_utils_OpenMP_stackRegionId__C
80039aa0   ti_omp_utils_OpenMP_stackSize__C
80039aa4   ti_omp_utils_OpenMP_threadPriority__C
80029560   ti_omp_utils_OpenMP_threadSpawnLoop__I
800333a0   ti_omp_utils_OpenMP_useSharedHeap__E
800333c0   ti_omp_utils_OpenMP_useSharedHeap__F
80039aa8   ti_omp_utils_SemaphoreMP_Module__diagsEnabled__C
80039aac   ti_omp_utils_SemaphoreMP_Module__diagsIncluded__C
80039ab0   ti_omp_utils_SemaphoreMP_Module__diagsMask__C
80039fd0   ti_omp_utils_SemaphoreMP_Module__id__C
00829bbc   ti_omp_utils_SemaphoreMP_Module__root__V
00829bc4   ti_omp_utils_SemaphoreMP_Module__state__V
80030920   ti_omp_utils_SemaphoreMP_cbFxn__I
80039ab4   ti_omp_utils_SemaphoreMP_notifyEventId__C
80020500   ti_omp_utils_SemaphoreMP_registerEvent__I
800333e0   ti_omp_utils_SemaphoreMP_start__E
80030960   ti_omp_utils_SemaphoreMP_start__F
00829bd0   ti_omp_utils_ThreadLocalStorage_Module__state__V
8002c7e0   ti_omp_utils_ThreadLocalStorage_createFxn__F
8002e840   ti_omp_utils_ThreadLocalStorage_deleteFxn__F
80033400   ti_omp_utils_ThreadLocalStorage_registerFxn__F
800309a0   ti_omp_utils_ThreadLocalStorage_switchFxn__F
80039ab8   ti_omp_utils_ThreadLocal_A_invalidContext__C
80039abc   ti_omp_utils_ThreadLocal_A_invalidKey__C
80039ac0   ti_omp_utils_ThreadLocal_Module__diagsEnabled__C
80039ac4   ti_omp_utils_ThreadLocal_Module__diagsIncluded__C
80039ac8   ti_omp_utils_ThreadLocal_Module__diagsMask__C
80039fd4   ti_omp_utils_ThreadLocal_Module__id__C
00829bcc   ti_omp_utils_ThreadLocal_Module__state__V
800309e0   ti_omp_utils_ThreadLocal_createFxn__F
80029620   ti_omp_utils_ThreadLocal_exitFxn__F
800155e0   ti_omp_utils_ThreadLocal_getspecific__E
80027be0   ti_omp_utils_ThreadLocal_key_create__E
8001f420   ti_omp_utils_ThreadLocal_key_delete__E
80033420   ti_omp_utils_ThreadLocal_registerFxn__F
80012980   ti_omp_utils_ThreadLocal_setspecific__E
80039acc   ti_sdo_ipc_GateMP_A_invalidClose__C
80039ad0   ti_sdo_ipc_GateMP_A_invalidDelete__C
80039ad4   ti_sdo_ipc_GateMP_E_gateUnavailable__C
80039ad8   ti_sdo_ipc_GateMP_E_localGate__C
800053e0   ti_sdo_ipc_GateMP_Instance_finalize__F
80000000   ti_sdo_ipc_GateMP_Instance_init__F
80039adc   ti_sdo_ipc_GateMP_LM_create__C
80039ae0   ti_sdo_ipc_GateMP_LM_delete__C
80039ae4   ti_sdo_ipc_GateMP_LM_enter__C
80039ae8   ti_sdo_ipc_GateMP_LM_leave__C
80039aec   ti_sdo_ipc_GateMP_LM_open__C
008293a0   ti_sdo_ipc_GateMP_Module_State_0_remoteCustom1Gates__A
0082a8f0   ti_sdo_ipc_GateMP_Module_State_0_remoteCustom2Gates__A
0082a418   ti_sdo_ipc_GateMP_Module_State_0_remoteSystemGates__A
80039af0   ti_sdo_ipc_GateMP_Module__diagsEnabled__C
80039af4   ti_sdo_ipc_GateMP_Module__diagsIncluded__C
80039af8   ti_sdo_ipc_GateMP_Module__diagsMask__C
80039fd8   ti_sdo_ipc_GateMP_Module__id__C
80039fdc   ti_sdo_ipc_GateMP_Module__loggerDefined__C
80039afc   ti_sdo_ipc_GateMP_Module__loggerFxn2__C
80039b00   ti_sdo_ipc_GateMP_Module__loggerFxn4__C
80039b04   ti_sdo_ipc_GateMP_Module__loggerObj__C
00829bd8   ti_sdo_ipc_GateMP_Module__root__V
00829be0   ti_sdo_ipc_GateMP_Module__state__V
80039574   ti_sdo_ipc_GateMP_Object__DESC__C
80038fec   ti_sdo_ipc_GateMP_Object__PARAMS__C
800296e0   ti_sdo_ipc_GateMP_Object__create__S
80030a20   ti_sdo_ipc_GateMP_Object__delete__S
80030a60   ti_sdo_ipc_GateMP_Params__init__S
80030aa0   ti_sdo_ipc_GateMP_RemoteCustom1Proxy_Object__create__S
80033440   ti_sdo_ipc_GateMP_RemoteCustom1Proxy_Object__delete__S
80033460   ti_sdo_ipc_GateMP_RemoteCustom1Proxy_Params__init__S
80033480   ti_sdo_ipc_GateMP_RemoteCustom1Proxy_Proxy__abstract__S
800334a0   ti_sdo_ipc_GateMP_RemoteCustom1Proxy_Proxy__delegate__S
800334c0   ti_sdo_ipc_GateMP_RemoteCustom1Proxy_getReservedMask__E
800334e0   ti_sdo_ipc_GateMP_RemoteCustom1Proxy_sharedMemReq__E
80030ae0   ti_sdo_ipc_GateMP_RemoteCustom2Proxy_Object__create__S
80033500   ti_sdo_ipc_GateMP_RemoteCustom2Proxy_Object__delete__S
80033520   ti_sdo_ipc_GateMP_RemoteCustom2Proxy_Params__init__S
80033540   ti_sdo_ipc_GateMP_RemoteCustom2Proxy_Proxy__abstract__S
80033560   ti_sdo_ipc_GateMP_RemoteCustom2Proxy_Proxy__delegate__S
80033580   ti_sdo_ipc_GateMP_RemoteCustom2Proxy_getReservedMask__E
800335a0   ti_sdo_ipc_GateMP_RemoteCustom2Proxy_sharedMemReq__E
80030b20   ti_sdo_ipc_GateMP_RemoteSystemProxy_Object__create__S
800335c0   ti_sdo_ipc_GateMP_RemoteSystemProxy_Object__delete__S
800335e0   ti_sdo_ipc_GateMP_RemoteSystemProxy_Params__init__S
80033600   ti_sdo_ipc_GateMP_RemoteSystemProxy_Proxy__abstract__S
80033620   ti_sdo_ipc_GateMP_RemoteSystemProxy_Proxy__delegate__S
80033640   ti_sdo_ipc_GateMP_RemoteSystemProxy_getReservedMask__E
80033660   ti_sdo_ipc_GateMP_RemoteSystemProxy_sharedMemReq__E
80033680   ti_sdo_ipc_GateMP_attach__E
8001e5a0   ti_sdo_ipc_GateMP_attach__F
80022fa0   ti_sdo_ipc_GateMP_createLocal__F
8001e780   ti_sdo_ipc_GateMP_getFreeResource__I
800336a0   ti_sdo_ipc_GateMP_getRegion0ReservedSize__E
800297a0   ti_sdo_ipc_GateMP_getRegion0ReservedSize__F
800336c0   ti_sdo_ipc_GateMP_getSharedAddr__E
800336e0   ti_sdo_ipc_GateMP_getSharedAddr__F
800206a0   ti_sdo_ipc_GateMP_openRegion0Reserved__F
80010880   ti_sdo_ipc_GateMP_setRegion0Reserved__F
80033700   ti_sdo_ipc_GateMP_start__E
8001c500   ti_sdo_ipc_GateMP_start__F
80039b08   ti_sdo_ipc_Ipc_A_addrNotCacheAligned__C
80039b0c   ti_sdo_ipc_Ipc_A_addrNotInSharedRegion__C
80039b10   ti_sdo_ipc_Ipc_A_internal__C
80039b14   ti_sdo_ipc_Ipc_A_invArgument__C
80039b18   ti_sdo_ipc_Ipc_A_invParam__C
80039b1c   ti_sdo_ipc_Ipc_A_nullArgument__C
80039b20   ti_sdo_ipc_Ipc_A_nullPointer__C
80039b24   ti_sdo_ipc_Ipc_E_internal__C
80039b28   ti_sdo_ipc_Ipc_E_nameFailed__C
80039b2c   ti_sdo_ipc_Ipc_E_versionMismatch__C
0082a1b8   ti_sdo_ipc_Ipc_Module_State_0_procEntry__A
80039b30   ti_sdo_ipc_Ipc_Module__diagsEnabled__C
80039b34   ti_sdo_ipc_Ipc_Module__diagsIncluded__C
80039b38   ti_sdo_ipc_Ipc_Module__diagsMask__C
80039fe0   ti_sdo_ipc_Ipc_Module__id__C
00829c28   ti_sdo_ipc_Ipc_Module__state__V
80039fe4   ti_sdo_ipc_Ipc_generateSlaveDataForHost__C
80039b3c   ti_sdo_ipc_Ipc_numUserFxns__C
80010ce0   ti_sdo_ipc_Ipc_procSyncFinish__I
8000e7a0   ti_sdo_ipc_Ipc_procSyncStart__I
80039b40   ti_sdo_ipc_Ipc_procSync__C
80039a18   ti_sdo_ipc_Ipc_userFxns__A
80039b44   ti_sdo_ipc_Ipc_userFxns__C
8001a0e0   ti_sdo_ipc_ListMP_Instance_finalize__F
80004b40   ti_sdo_ipc_ListMP_Instance_init__F
80039b48   ti_sdo_ipc_ListMP_Module__diagsEnabled__C
80039b4c   ti_sdo_ipc_ListMP_Module__diagsIncluded__C
80039b50   ti_sdo_ipc_ListMP_Module__diagsMask__C
80039fe8   ti_sdo_ipc_ListMP_Module__id__C
00829c34   ti_sdo_ipc_ListMP_Module__root__V
00829c3c   ti_sdo_ipc_ListMP_Module__state__V
80039594   ti_sdo_ipc_ListMP_Object__DESC__C
800390e0   ti_sdo_ipc_ListMP_Object__PARAMS__C
80029860   ti_sdo_ipc_ListMP_Object__create__S
80030b60   ti_sdo_ipc_ListMP_Object__delete__S
80030ba0   ti_sdo_ipc_ListMP_Params__init__S
80039b54   ti_sdo_ipc_MessageQ_A_invalidMsg__C
80039b58   ti_sdo_ipc_MessageQ_A_invalidObj__C
80039b5c   ti_sdo_ipc_MessageQ_A_invalidQueueId__C
80039b60   ti_sdo_ipc_MessageQ_A_procIdInvalid__C
80039b64   ti_sdo_ipc_MessageQ_A_unregisteredTransport__C
80039b68   ti_sdo_ipc_MessageQ_Instance_State_highList__O
80039b6c   ti_sdo_ipc_MessageQ_Instance_State_normalList__O
80039b70   ti_sdo_ipc_MessageQ_LM_putLocal__C
0082a7c8   ti_sdo_ipc_MessageQ_Module_State_0_heaps__A
0082a718   ti_sdo_ipc_MessageQ_Module_State_0_transports__A
80039b74   ti_sdo_ipc_MessageQ_Module__diagsEnabled__C
80039b78   ti_sdo_ipc_MessageQ_Module__diagsIncluded__C
80039b7c   ti_sdo_ipc_MessageQ_Module__diagsMask__C
80039fec   ti_sdo_ipc_MessageQ_Module__id__C
80039ff0   ti_sdo_ipc_MessageQ_Module__loggerDefined__C
80039b80   ti_sdo_ipc_MessageQ_Module__loggerFxn4__C
80039b84   ti_sdo_ipc_MessageQ_Module__loggerObj__C
00829c40   ti_sdo_ipc_MessageQ_Module__root__V
00829c48   ti_sdo_ipc_MessageQ_Module__state__V
80033720   ti_sdo_ipc_MessageQ_Module_startup__E
80025560   ti_sdo_ipc_MessageQ_Module_startup__F
80039b88   ti_sdo_ipc_MessageQ_Object__count__C
8002e8a0   ti_sdo_ipc_MessageQ_Object__get__S
80039b8c   ti_sdo_ipc_MessageQ_Object__table__C
80033740   ti_sdo_ipc_MessageQ_SetupTransportProxy_attach__E
80033760   ti_sdo_ipc_MessageQ_SetupTransportProxy_isRegistered__E
80033780   ti_sdo_ipc_MessageQ_SetupTransportProxy_sharedMemReq__E
80030be0   ti_sdo_ipc_MessageQ_registerTransport__E
800220e0   ti_sdo_ipc_MessageQ_registerTransport__F
800337a0   ti_sdo_ipc_MessageQ_unregisterTransport__E
80023100   ti_sdo_ipc_MessageQ_unregisterTransport__F
80039b90   ti_sdo_ipc_Notify_A_alreadyRegistered__C
80039b94   ti_sdo_ipc_Notify_A_internal__C
80039b98   ti_sdo_ipc_Notify_A_invArgument__C
80039b9c   ti_sdo_ipc_Notify_A_notRegistered__C
80039ba0   ti_sdo_ipc_Notify_A_reservedEvent__C
80025fc0   ti_sdo_ipc_Notify_Instance_finalize__F
80011e00   ti_sdo_ipc_Notify_Instance_init__F
800337c0   ti_sdo_ipc_Notify_Module_GateProxy_enter__E
800337e0   ti_sdo_ipc_Notify_Module_GateProxy_leave__E
0082a8f8   ti_sdo_ipc_Notify_Module_State_0_notifyHandles_0__A
0082a900   ti_sdo_ipc_Notify_Module_State_0_notifyHandles_1__A
0082a908   ti_sdo_ipc_Notify_Module_State_0_notifyHandles_2__A
0082a910   ti_sdo_ipc_Notify_Module_State_0_notifyHandles_3__A
0082a918   ti_sdo_ipc_Notify_Module_State_0_notifyHandles_4__A
0082a920   ti_sdo_ipc_Notify_Module_State_0_notifyHandles_5__A
0082a928   ti_sdo_ipc_Notify_Module_State_0_notifyHandles_6__A
0082a930   ti_sdo_ipc_Notify_Module_State_0_notifyHandles_7__A
0082a7e8   ti_sdo_ipc_Notify_Module_State_0_notifyHandles__A
80039ba4   ti_sdo_ipc_Notify_Module__diagsEnabled__C
80039ba8   ti_sdo_ipc_Notify_Module__diagsIncluded__C
80039bac   ti_sdo_ipc_Notify_Module__diagsMask__C
80039bb0   ti_sdo_ipc_Notify_Module__gateObj__C
80039ff4   ti_sdo_ipc_Notify_Module__id__C
00829c64   ti_sdo_ipc_Notify_Module__root__V
00829c6c   ti_sdo_ipc_Notify_Module__state__V
80033800   ti_sdo_ipc_Notify_Module_startup__E
80022260   ti_sdo_ipc_Notify_Module_startup__F
800395b4   ti_sdo_ipc_Notify_Object__DESC__C
800398d4   ti_sdo_ipc_Notify_Object__PARAMS__C
80027cc0   ti_sdo_ipc_Notify_Object__create__S
80039bb4   ti_sdo_ipc_Notify_Object__heap__C
80033820   ti_sdo_ipc_Notify_SetupProxy_attach__E
80033840   ti_sdo_ipc_Notify_SetupProxy_numIntLines__E
80033860   ti_sdo_ipc_Notify_SetupProxy_sharedMemReq__E
80029920   ti_sdo_ipc_Notify_execMany__I
80033880   ti_sdo_ipc_Notify_exec__E
80024480   ti_sdo_ipc_Notify_exec__F
80039bb8   ti_sdo_ipc_Notify_numEvents__C
80039ff8   ti_sdo_ipc_Notify_numLines__C
80039ffc   ti_sdo_ipc_Notify_reservedEvents__C
80039bbc   ti_sdo_ipc_Notify_sendEventPollCount__C
80039bc0   ti_sdo_ipc_SharedRegion_A_addrOutOfRange__C
80039bc4   ti_sdo_ipc_SharedRegion_A_alreadyExists__C
80039bc8   ti_sdo_ipc_SharedRegion_A_cacheLineSizeIsZero__C
80039bcc   ti_sdo_ipc_SharedRegion_A_idTooLarge__C
80039bd0   ti_sdo_ipc_SharedRegion_A_noHeap__C
80039bd4   ti_sdo_ipc_SharedRegion_A_overlap__C
80039bd8   ti_sdo_ipc_SharedRegion_A_region0Invalid__C
80039bdc   ti_sdo_ipc_SharedRegion_A_regionInvalid__C
80039be0   ti_sdo_ipc_SharedRegion_A_reserveTooMuch__C
80039be4   ti_sdo_ipc_SharedRegion_INVALIDSRPTR__C
0082a388   ti_sdo_ipc_SharedRegion_Module_State_0_regions__A
80039be8   ti_sdo_ipc_SharedRegion_Module__diagsEnabled__C
80039bec   ti_sdo_ipc_SharedRegion_Module__diagsIncluded__C
80039bf0   ti_sdo_ipc_SharedRegion_Module__diagsMask__C
8003a000   ti_sdo_ipc_SharedRegion_Module__id__C
00829c74   ti_sdo_ipc_SharedRegion_Module__state__V
800338a0   ti_sdo_ipc_SharedRegion_attach__E
800260c0   ti_sdo_ipc_SharedRegion_attach__F
80039bf4   ti_sdo_ipc_SharedRegion_cacheLineSize__C
8001a340   ti_sdo_ipc_SharedRegion_checkOverlap__I
800338c0   ti_sdo_ipc_SharedRegion_clearReservedMemory__E
800261c0   ti_sdo_ipc_SharedRegion_clearReservedMemory__F
8003a004   ti_sdo_ipc_SharedRegion_numEntries__C
80039bf8   ti_sdo_ipc_SharedRegion_numOffsetBits__C
80039bfc   ti_sdo_ipc_SharedRegion_offsetMask__C
800338e0   ti_sdo_ipc_SharedRegion_reserveMemory__E
80012d40   ti_sdo_ipc_SharedRegion_reserveMemory__F
80033900   ti_sdo_ipc_SharedRegion_start__E
8000d120   ti_sdo_ipc_SharedRegion_start__F
8003a008   ti_sdo_ipc_SharedRegion_translate__C
80039c00   ti_sdo_ipc_family_c647x_Interrupt_INTERDSPINT__C
80039c04   ti_sdo_ipc_family_c647x_Interrupt_IPCAR0__C
80039c08   ti_sdo_ipc_family_c647x_Interrupt_IPCGR0__C
80039c0c   ti_sdo_ipc_family_c647x_Interrupt_KICK0__C
80039c10   ti_sdo_ipc_family_c647x_Interrupt_KICK1__C
0082a808   ti_sdo_ipc_family_c647x_Interrupt_Module_State_0_args__A
00829c78   ti_sdo_ipc_family_c647x_Interrupt_Module__state__V
80033920   ti_sdo_ipc_family_c647x_Interrupt_Module_startup__E
800262c0   ti_sdo_ipc_family_c647x_Interrupt_Module_startup__F
8003a00c   ti_sdo_ipc_family_c647x_Interrupt_enableKick__C
80030c20   ti_sdo_ipc_family_c647x_Interrupt_intClear__E
80033940   ti_sdo_ipc_family_c647x_Interrupt_intDisable__E
80033960   ti_sdo_ipc_family_c647x_Interrupt_intEnable__E
80025680   ti_sdo_ipc_family_c647x_Interrupt_intRegister__E
80030c60   ti_sdo_ipc_family_c647x_Interrupt_intSend__E
80027da0   ti_sdo_ipc_family_c647x_Interrupt_intShmStub__I
8002b480   ti_sdo_ipc_family_c647x_Interrupt_intUnregister__E
800399f8   ti_sdo_ipc_family_c647x_MultiProcSetup_procMap__A
80039c14   ti_sdo_ipc_family_c647x_MultiProcSetup_procMap__C
80027e80   ti_sdo_ipc_family_c647x_NotifySetup_attach__E
80039c18   ti_sdo_ipc_family_c647x_NotifySetup_dspIntVectId__C
80033980   ti_sdo_ipc_family_c647x_NotifySetup_numIntLines__E
8002e900   ti_sdo_ipc_family_c647x_NotifySetup_sharedMemReq__E
80039c1c   ti_sdo_ipc_gates_GateHWSem_A_invSemNum__C
80030ca0   ti_sdo_ipc_gates_GateHWSem_Handle__label__S
80023260   ti_sdo_ipc_gates_GateHWSem_Instance_init__F
8003910c   ti_sdo_ipc_gates_GateHWSem_Module__FXNS__C
80039c20   ti_sdo_ipc_gates_GateHWSem_Module__diagsEnabled__C
80039c24   ti_sdo_ipc_gates_GateHWSem_Module__diagsIncluded__C
80039c28   ti_sdo_ipc_gates_GateHWSem_Module__diagsMask__C
8003a010   ti_sdo_ipc_gates_GateHWSem_Module__id__C
00829c84   ti_sdo_ipc_gates_GateHWSem_Module__root__V
800339a0   ti_sdo_ipc_gates_GateHWSem_Module_startup__E
800263c0   ti_sdo_ipc_gates_GateHWSem_Module_startup__F
800395d4   ti_sdo_ipc_gates_GateHWSem_Object__DESC__C
800392f4   ti_sdo_ipc_gates_GateHWSem_Object__PARAMS__C
8002c860   ti_sdo_ipc_gates_GateHWSem_Object__create__S
80030ce0   ti_sdo_ipc_gates_GateHWSem_Object__delete__S
80030d20   ti_sdo_ipc_gates_GateHWSem_Params__init__S
80039c2c   ti_sdo_ipc_gates_GateHWSem_baseAddr__C
80027f60   ti_sdo_ipc_gates_GateHWSem_enter__E
800339c0   ti_sdo_ipc_gates_GateHWSem_getReservedMask__E
8002e960   ti_sdo_ipc_gates_GateHWSem_leave__E
80039c30   ti_sdo_ipc_gates_GateHWSem_numSems__C
800339e0   ti_sdo_ipc_gates_GateHWSem_query__E
80033a00   ti_sdo_ipc_gates_GateHWSem_query__F
80039c38   ti_sdo_ipc_gates_GateHWSem_reservedMaskArr__A
80039c34   ti_sdo_ipc_gates_GateHWSem_reservedMaskArr__C
80033a20   ti_sdo_ipc_gates_GateHWSem_sharedMemReq__E
80039c3c   ti_sdo_ipc_gates_GateMPSupportNull_A_invalidAction__C
80030d60   ti_sdo_ipc_gates_GateMPSupportNull_Handle__label__S
80033a40   ti_sdo_ipc_gates_GateMPSupportNull_Instance_init__F
80039138   ti_sdo_ipc_gates_GateMPSupportNull_Module__FXNS__C
80039c40   ti_sdo_ipc_gates_GateMPSupportNull_Module__diagsEnabled__C
80039c44   ti_sdo_ipc_gates_GateMPSupportNull_Module__diagsIncluded__C
80039c48   ti_sdo_ipc_gates_GateMPSupportNull_Module__diagsMask__C
8003a014   ti_sdo_ipc_gates_GateMPSupportNull_Module__id__C
00829c8c   ti_sdo_ipc_gates_GateMPSupportNull_Module__root__V
800395f4   ti_sdo_ipc_gates_GateMPSupportNull_Object__DESC__C
80039318   ti_sdo_ipc_gates_GateMPSupportNull_Object__PARAMS__C
8002c8e0   ti_sdo_ipc_gates_GateMPSupportNull_Object__create__S
80030da0   ti_sdo_ipc_gates_GateMPSupportNull_Object__delete__S
80030de0   ti_sdo_ipc_gates_GateMPSupportNull_Params__init__S
80039c4c   ti_sdo_ipc_gates_GateMPSupportNull_action__C
800264c0   ti_sdo_ipc_gates_GateMPSupportNull_enter__E
80033a60   ti_sdo_ipc_gates_GateMPSupportNull_getReservedMask__E
800265c0   ti_sdo_ipc_gates_GateMPSupportNull_leave__E
80033a80   ti_sdo_ipc_gates_GateMPSupportNull_query__E
80033aa0   ti_sdo_ipc_gates_GateMPSupportNull_query__F
80033ac0   ti_sdo_ipc_gates_GateMPSupportNull_sharedMemReq__E
80039c50   ti_sdo_ipc_gates_GatePeterson_E_gateRemotelyOpened__C
80030e20   ti_sdo_ipc_gates_GatePeterson_Handle__label__S
8002e9c0   ti_sdo_ipc_gates_GatePeterson_Instance_finalize__F
8000f6a0   ti_sdo_ipc_gates_GatePeterson_Instance_init__F
80039164   ti_sdo_ipc_gates_GatePeterson_Module__FXNS__C
80039c54   ti_sdo_ipc_gates_GatePeterson_Module__diagsEnabled__C
80039c58   ti_sdo_ipc_gates_GatePeterson_Module__diagsIncluded__C
80039c5c   ti_sdo_ipc_gates_GatePeterson_Module__diagsMask__C
8003a018   ti_sdo_ipc_gates_GatePeterson_Module__id__C
00829c94   ti_sdo_ipc_gates_GatePeterson_Module__root__V
80039614   ti_sdo_ipc_gates_GatePeterson_Object__DESC__C
8003933c   ti_sdo_ipc_gates_GatePeterson_Object__PARAMS__C
800299e0   ti_sdo_ipc_gates_GatePeterson_Object__create__S
80030e60   ti_sdo_ipc_gates_GatePeterson_Object__delete__S
80030ea0   ti_sdo_ipc_gates_GatePeterson_Params__init__S
800223e0   ti_sdo_ipc_gates_GatePeterson_enter__E
80033ae0   ti_sdo_ipc_gates_GatePeterson_getReservedMask__E
8002b520   ti_sdo_ipc_gates_GatePeterson_leave__E
80039c60   ti_sdo_ipc_gates_GatePeterson_numInstances__C
80033b00   ti_sdo_ipc_gates_GatePeterson_query__E
80033b20   ti_sdo_ipc_gates_GatePeterson_query__F
8002ea20   ti_sdo_ipc_gates_GatePeterson_sharedMemReq__E
80039c64   ti_sdo_ipc_heaps_HeapMemMP_A_align__C
80039c68   ti_sdo_ipc_heaps_HeapMemMP_A_heapSize__C
80039c6c   ti_sdo_ipc_heaps_HeapMemMP_A_invalidFree__C
80039c70   ti_sdo_ipc_heaps_HeapMemMP_A_zeroBlock__C
80039c74   ti_sdo_ipc_heaps_HeapMemMP_E_memory__C
80030ee0   ti_sdo_ipc_heaps_HeapMemMP_Handle__label__S
8001a5a0   ti_sdo_ipc_heaps_HeapMemMP_Instance_finalize__F
80006c60   ti_sdo_ipc_heaps_HeapMemMP_Instance_init__F
800391e0   ti_sdo_ipc_heaps_HeapMemMP_Module__FXNS__C
80039c78   ti_sdo_ipc_heaps_HeapMemMP_Module__diagsEnabled__C
80039c7c   ti_sdo_ipc_heaps_HeapMemMP_Module__diagsIncluded__C
80039c80   ti_sdo_ipc_heaps_HeapMemMP_Module__diagsMask__C
8003a01c   ti_sdo_ipc_heaps_HeapMemMP_Module__id__C
00829c9c   ti_sdo_ipc_heaps_HeapMemMP_Module__root__V
00829ca4   ti_sdo_ipc_heaps_HeapMemMP_Module__state__V
80039634   ti_sdo_ipc_heaps_HeapMemMP_Object__DESC__C
80039054   ti_sdo_ipc_heaps_HeapMemMP_Object__PARAMS__C
80029aa0   ti_sdo_ipc_heaps_HeapMemMP_Object__create__S
80030f20   ti_sdo_ipc_heaps_HeapMemMP_Object__delete__S
80030f60   ti_sdo_ipc_heaps_HeapMemMP_Params__init__S
800011c0   ti_sdo_ipc_heaps_HeapMemMP_alloc__E
80001c20   ti_sdo_ipc_heaps_HeapMemMP_free__E
80011580   ti_sdo_ipc_heaps_HeapMemMP_getStats__E
80033b40   ti_sdo_ipc_heaps_HeapMemMP_isBlocking__E
80033b60   ti_sdo_ipc_heaps_HeapMemMP_isBlocking__F
800119c0   ti_sdo_ipc_heaps_HeapMemMP_postInit__I
80039c84   ti_sdo_ipc_interfaces_IGateMPSupport_Interface__BASE__C
80039c88   ti_sdo_ipc_interfaces_IMessageQTransport_Interface__BASE__C
80039c8c   ti_sdo_ipc_interfaces_INotifyDriver_Interface__BASE__C
80030fa0   ti_sdo_ipc_notifyDrivers_NotifyDriverShm_Handle__label__S
8002b5c0   ti_sdo_ipc_notifyDrivers_NotifyDriverShm_Instance_finalize__F
8000ece0   ti_sdo_ipc_notifyDrivers_NotifyDriverShm_Instance_init__F
80033b80   ti_sdo_ipc_notifyDrivers_NotifyDriverShm_InterruptProxy_intClear__E
80033ba0   ti_sdo_ipc_notifyDrivers_NotifyDriverShm_InterruptProxy_intDisable__E
80033bc0   ti_sdo_ipc_notifyDrivers_NotifyDriverShm_InterruptProxy_intEnable__E
80030fe0   ti_sdo_ipc_notifyDrivers_NotifyDriverShm_InterruptProxy_intRegister__E
80033be0   ti_sdo_ipc_notifyDrivers_NotifyDriverShm_InterruptProxy_intSend__E
80033c00   ti_sdo_ipc_notifyDrivers_NotifyDriverShm_InterruptProxy_intUnregister__E
80038fb4   ti_sdo_ipc_notifyDrivers_NotifyDriverShm_Module__FXNS__C
80039c90   ti_sdo_ipc_notifyDrivers_NotifyDriverShm_Module__diagsEnabled__C
80039c94   ti_sdo_ipc_notifyDrivers_NotifyDriverShm_Module__diagsIncluded__C
80039c98   ti_sdo_ipc_notifyDrivers_NotifyDriverShm_Module__diagsMask__C
8003a020   ti_sdo_ipc_notifyDrivers_NotifyDriverShm_Module__id__C
00829ca8   ti_sdo_ipc_notifyDrivers_NotifyDriverShm_Module__root__V
80039654   ti_sdo_ipc_notifyDrivers_NotifyDriverShm_Object__DESC__C
80039020   ti_sdo_ipc_notifyDrivers_NotifyDriverShm_Object__PARAMS__C
80029b60   ti_sdo_ipc_notifyDrivers_NotifyDriverShm_Object__create__S
80031020   ti_sdo_ipc_notifyDrivers_NotifyDriverShm_Object__delete__S
80039c9c   ti_sdo_ipc_notifyDrivers_NotifyDriverShm_Object__heap__C
80031060   ti_sdo_ipc_notifyDrivers_NotifyDriverShm_Params__init__S
8001a800   ti_sdo_ipc_notifyDrivers_NotifyDriverShm_disableEvent__E
800310a0   ti_sdo_ipc_notifyDrivers_NotifyDriverShm_disable__E
80020840   ti_sdo_ipc_notifyDrivers_NotifyDriverShm_enableEvent__E
800310e0   ti_sdo_ipc_notifyDrivers_NotifyDriverShm_enable__E
80017320   ti_sdo_ipc_notifyDrivers_NotifyDriverShm_isr__I
8001f5e0   ti_sdo_ipc_notifyDrivers_NotifyDriverShm_registerEvent__E
8001dfa0   ti_sdo_ipc_notifyDrivers_NotifyDriverShm_sendEvent__E
8002ea80   ti_sdo_ipc_notifyDrivers_NotifyDriverShm_setNotifyHandle__E
80033c20   ti_sdo_ipc_notifyDrivers_NotifyDriverShm_sharedMemReq__E
80019220   ti_sdo_ipc_notifyDrivers_NotifyDriverShm_sharedMemReq__F
800209e0   ti_sdo_ipc_notifyDrivers_NotifyDriverShm_unregisterEvent__E
80039ca0   ti_sdo_ipc_nsremote_NameServerRemoteNotify_A_invalidValueLen__C
80031120   ti_sdo_ipc_nsremote_NameServerRemoteNotify_Handle__label__S
80039ca4   ti_sdo_ipc_nsremote_NameServerRemoteNotify_Instance_State_semMultiBlock__O
80039ca8   ti_sdo_ipc_nsremote_NameServerRemoteNotify_Instance_State_semRemoteWait__O
80039cac   ti_sdo_ipc_nsremote_NameServerRemoteNotify_Instance_State_swiObj__O
800257a0   ti_sdo_ipc_nsremote_NameServerRemoteNotify_Instance_finalize__F
80008260   ti_sdo_ipc_nsremote_NameServerRemoteNotify_Instance_init__F
80039208   ti_sdo_ipc_nsremote_NameServerRemoteNotify_Module__FXNS__C
80039cb0   ti_sdo_ipc_nsremote_NameServerRemoteNotify_Module__diagsEnabled__C
80039cb4   ti_sdo_ipc_nsremote_NameServerRemoteNotify_Module__diagsIncluded__C
80039cb8   ti_sdo_ipc_nsremote_NameServerRemoteNotify_Module__diagsMask__C
8003a024   ti_sdo_ipc_nsremote_NameServerRemoteNotify_Module__id__C
00829cb0   ti_sdo_ipc_nsremote_NameServerRemoteNotify_Module__root__V
80039674   ti_sdo_ipc_nsremote_NameServerRemoteNotify_Object__DESC__C
80039694   ti_sdo_ipc_nsremote_NameServerRemoteNotify_Object__PARAMS__C
80029c20   ti_sdo_ipc_nsremote_NameServerRemoteNotify_Object__create__S
80031160   ti_sdo_ipc_nsremote_NameServerRemoteNotify_Object__delete__S
800311a0   ti_sdo_ipc_nsremote_NameServerRemoteNotify_Object__first__S
800311e0   ti_sdo_ipc_nsremote_NameServerRemoteNotify_Object__next__S
80031220   ti_sdo_ipc_nsremote_NameServerRemoteNotify_Params__init__S
80020b80   ti_sdo_ipc_nsremote_NameServerRemoteNotify_attach__E
80033c40   ti_sdo_ipc_nsremote_NameServerRemoteNotify_cbFxn__I
8002c960   ti_sdo_ipc_nsremote_NameServerRemoteNotify_detach__E
80031260   ti_sdo_ipc_nsremote_NameServerRemoteNotify_get__E
8000dca0   ti_sdo_ipc_nsremote_NameServerRemoteNotify_get__F
80039cbc   ti_sdo_ipc_nsremote_NameServerRemoteNotify_notifyEventId__C
800312a0   ti_sdo_ipc_nsremote_NameServerRemoteNotify_sharedMemReq__E
80014940   ti_sdo_ipc_nsremote_NameServerRemoteNotify_swiFxn__I
80039cc0   ti_sdo_ipc_nsremote_NameServerRemoteNotify_timeout__C
0082a828   ti_sdo_ipc_transports_TransportShmSetup_Module_State_0_handles__A
00829cc0   ti_sdo_ipc_transports_TransportShmSetup_Module__state__V
800266c0   ti_sdo_ipc_transports_TransportShmSetup_attach__E
80033c60   ti_sdo_ipc_transports_TransportShmSetup_isRegistered__E
80039cc4   ti_sdo_ipc_transports_TransportShmSetup_priority__C
8002eae0   ti_sdo_ipc_transports_TransportShmSetup_sharedMemReq__E
800312e0   ti_sdo_ipc_transports_TransportShm_Handle__label__S
80039cc8   ti_sdo_ipc_transports_TransportShm_Instance_State_swiObj__O
8001e1a0   ti_sdo_ipc_transports_TransportShm_Instance_finalize__F
80003940   ti_sdo_ipc_transports_TransportShm_Instance_init__F
80039230   ti_sdo_ipc_transports_TransportShm_Module__FXNS__C
80039ccc   ti_sdo_ipc_transports_TransportShm_Module__diagsEnabled__C
80039cd0   ti_sdo_ipc_transports_TransportShm_Module__diagsIncluded__C
80039cd4   ti_sdo_ipc_transports_TransportShm_Module__diagsMask__C
8003a028   ti_sdo_ipc_transports_TransportShm_Module__id__C
00829cb8   ti_sdo_ipc_transports_TransportShm_Module__root__V
800396b4   ti_sdo_ipc_transports_TransportShm_Object__DESC__C
80039258   ti_sdo_ipc_transports_TransportShm_Object__PARAMS__C
80029ce0   ti_sdo_ipc_transports_TransportShm_Object__create__S
80031320   ti_sdo_ipc_transports_TransportShm_Object__delete__S
80031360   ti_sdo_ipc_transports_TransportShm_Params__init__S
80033c80   ti_sdo_ipc_transports_TransportShm_control__E
80033ca0   ti_sdo_ipc_transports_TransportShm_getStatus__E
8003a02c   ti_sdo_ipc_transports_TransportShm_notifyEventId__C
80033cc0   ti_sdo_ipc_transports_TransportShm_notifyFxn__I
80033ce0   ti_sdo_ipc_transports_TransportShm_openByAddr__E
80015c00   ti_sdo_ipc_transports_TransportShm_openByAddr__F
8000e220   ti_sdo_ipc_transports_TransportShm_put__E
80033d00   ti_sdo_ipc_transports_TransportShm_setErrFxn__E
80033d20   ti_sdo_ipc_transports_TransportShm_setErrFxn__F
80033d40   ti_sdo_ipc_transports_TransportShm_sharedMemReq__E
800233c0   ti_sdo_ipc_transports_TransportShm_sharedMemReq__F
8002c9e0   ti_sdo_ipc_transports_TransportShm_swiFxn__I
80039cd8   ti_sdo_utils_INameServerRemote_Interface__BASE__C
80033d60   ti_sdo_utils_List_Instance_init__F
00829cc4   ti_sdo_utils_List_Module__root__V
800396d4   ti_sdo_utils_List_Object__DESC__C
800398ec   ti_sdo_utils_List_Object__PARAMS__C
80039cdc   ti_sdo_utils_List_Object__count__C
8002ca60   ti_sdo_utils_List_Object__create__S
800313a0   ti_sdo_utils_List_Object__destruct__S
8002eb40   ti_sdo_utils_List_Object__get__S
80039ce0   ti_sdo_utils_List_Object__table__C
80039ce4   ti_sdo_utils_MultiProc_A_invalidMultiProcId__C
80039ce8   ti_sdo_utils_MultiProc_Module__diagsEnabled__C
80039cec   ti_sdo_utils_MultiProc_Module__diagsIncluded__C
80039cf0   ti_sdo_utils_MultiProc_Module__diagsMask__C
8003a030   ti_sdo_utils_MultiProc_Module__id__C
00829ccc   ti_sdo_utils_MultiProc_Module__state__V
80033d80   ti_sdo_utils_MultiProc_getClusterId__E
80033da0   ti_sdo_utils_MultiProc_getClusterId__F
8003a034   ti_sdo_utils_MultiProc_numProcessors__C
8003a038   ti_sdo_utils_MultiProc_numProcsInCluster__C
00829ce0   ti_sdo_utils_NameServerRemoteNull_Module__root__V
80039cf4   ti_sdo_utils_NameServer_A_invArgument__C
80039cf8   ti_sdo_utils_NameServer_A_invalidLen__C
80039cfc   ti_sdo_utils_NameServer_E_entryExists__C
80039d00   ti_sdo_utils_NameServer_E_maxReached__C
80039d04   ti_sdo_utils_NameServer_Instance_State_freeList__O
80039d08   ti_sdo_utils_NameServer_Instance_State_nameList__O
00800000   ti_sdo_utils_NameServer_Module_State_0_nsRemoteHandle__A
80039d0c   ti_sdo_utils_NameServer_Module__diagsEnabled__C
80039d10   ti_sdo_utils_NameServer_Module__diagsIncluded__C
80039d14   ti_sdo_utils_NameServer_Module__diagsMask__C
8003a03c   ti_sdo_utils_NameServer_Module__id__C
00829cd0   ti_sdo_utils_NameServer_Module__root__V
800313e0   ti_sdo_utils_NameServer_Module__startupDone__F
80033dc0   ti_sdo_utils_NameServer_Module__startupDone__S
00829cd8   ti_sdo_utils_NameServer_Module__state__V
80033de0   ti_sdo_utils_NameServer_Module_startup__E
80022560   ti_sdo_utils_NameServer_Module_startup__F
80039d18   ti_sdo_utils_NameServer_Object__count__C
80031420   ti_sdo_utils_NameServer_Object__first__S
8002eba0   ti_sdo_utils_NameServer_Object__get__S
80031460   ti_sdo_utils_NameServer_Object__next__S
80039d1c   ti_sdo_utils_NameServer_Object__table__C
0082a0a0   ti_sdo_utils_NameServer_Object__table__V
80033e00   ti_sdo_utils_NameServer_SetupProxy_attach__E
80033e20   ti_sdo_utils_NameServer_SetupProxy_sharedMemReq__E
80023520   ti_sdo_utils_NameServer_isRegistered__E
80023680   ti_sdo_utils_NameServer_registerRemoteDriver__E
800237e0   ti_sdo_utils_NameServer_unregisterRemoteDriver__E
80039d20   ti_sysbios_BIOS_Module__diagsEnabled__C
80039d24   ti_sysbios_BIOS_Module__diagsIncluded__C
80039d28   ti_sysbios_BIOS_Module__diagsMask__C
8003a040   ti_sysbios_BIOS_Module__id__C
00829ce8   ti_sysbios_BIOS_Module__state__V
80033e40   ti_sysbios_BIOS_RtsGateProxy_enter__E
80033e60   ti_sysbios_BIOS_RtsGateProxy_leave__E
80029da0   ti_sysbios_BIOS_errorRaiseHook__I
8002ec00   ti_sysbios_BIOS_exitFunc__I
8002cae0   ti_sysbios_BIOS_exit__E
80033e80   ti_sysbios_BIOS_getThreadType__E
80039d2c   ti_sysbios_BIOS_installedErrorHook__C
8002ec60   ti_sysbios_BIOS_registerRTSLock__I
80033ea0   ti_sysbios_BIOS_setThreadType__E
800314a0   ti_sysbios_BIOS_startFunc__I
800314e0   ti_sysbios_BIOS_start__E
80033ec0   ti_sysbios_family_c62_TaskSupport_Module__startupDone__S
80030020   ti_sysbios_family_c62_TaskSupport_buildTaskStack
80033ee0   ti_sysbios_family_c62_TaskSupport_checkStack__E
80033f00   ti_sysbios_family_c62_TaskSupport_getStackAlignment__E
800329e0   ti_sysbios_family_c62_TaskSupport_glue
80039d30   ti_sysbios_family_c62_TaskSupport_stackAlignment__C
8002cb60   ti_sysbios_family_c62_TaskSupport_start__E
8002be60   ti_sysbios_family_c62_TaskSupport_swap__E
80039d34   ti_sysbios_family_c64p_Exception_E_exceptionMin__C
8003a044   ti_sysbios_family_c64p_Exception_Module__id__C
00829d08   ti_sysbios_family_c64p_Exception_Module__state__V
80033f20   ti_sysbios_family_c64p_Exception_Module_startup__E
8002cbe0   ti_sysbios_family_c64p_Exception_Module_startup__F
80021f60   ti_sysbios_family_c64p_Exception_dispatch__E
80039d38   ti_sysbios_family_c64p_Exception_exceptionHook__C
80039d3c   ti_sysbios_family_c64p_Exception_externalHook__C
800073e0   ti_sysbios_family_c64p_Exception_handler__I
8001b800   ti_sysbios_family_c64p_Exception_internalHandler__I
80039d40   ti_sysbios_family_c64p_Exception_internalHook__C
80039d44   ti_sysbios_family_c64p_Exception_nmiHook__C
8003a400   ti_sysbios_family_c64p_Hwi0
80039d48   ti_sysbios_family_c64p_Hwi_E_alreadyDefined__C
80039d4c   ti_sysbios_family_c64p_Hwi_E_handleNotFound__C
80028040   ti_sysbios_family_c64p_Hwi_Instance_finalize__F
80028120   ti_sysbios_family_c64p_Hwi_Instance_init__F
80039d50   ti_sysbios_family_c64p_Hwi_LD_end__C
80039d54   ti_sysbios_family_c64p_Hwi_LM_begin__C
80039d58   ti_sysbios_family_c64p_Hwi_Module__diagsEnabled__C
80039d5c   ti_sysbios_family_c64p_Hwi_Module__diagsIncluded__C
80039d60   ti_sysbios_family_c64p_Hwi_Module__diagsMask__C
8003a048   ti_sysbios_family_c64p_Hwi_Module__id__C
8003a04c   ti_sysbios_family_c64p_Hwi_Module__loggerDefined__C
80039d64   ti_sysbios_family_c64p_Hwi_Module__loggerFxn1__C
80039d68   ti_sysbios_family_c64p_Hwi_Module__loggerFxn8__C
80039d6c   ti_sysbios_family_c64p_Hwi_Module__loggerObj__C
00829d34   ti_sysbios_family_c64p_Hwi_Module__root__V
80031520   ti_sysbios_family_c64p_Hwi_Module__startupDone__F
80033f40   ti_sysbios_family_c64p_Hwi_Module__startupDone__S
00829d3c   ti_sysbios_family_c64p_Hwi_Module__state__V
80033f60   ti_sysbios_family_c64p_Hwi_Module_startup__E
800245c0   ti_sysbios_family_c64p_Hwi_Module_startup__F
800396f4   ti_sysbios_family_c64p_Hwi_Object__DESC__C
80039084   ti_sysbios_family_c64p_Hwi_Object__PARAMS__C
80028200   ti_sysbios_family_c64p_Hwi_Object__create__S
80031560   ti_sysbios_family_c64p_Hwi_Object__delete__S
0082a868   ti_sysbios_family_c64p_Hwi_Object__table__V
800315a0   ti_sysbios_family_c64p_Hwi_Params__init__S
80033f80   ti_sysbios_family_c64p_Hwi_clearInterrupt__E
800315e0   ti_sysbios_family_c64p_Hwi_disableInterrupt__E
8001d9a0   ti_sysbios_family_c64p_Hwi_dispatchAlways
80015f00   ti_sysbios_family_c64p_Hwi_dispatchC__I
80031620   ti_sysbios_family_c64p_Hwi_enableInterrupt__E
8002cc60   ti_sysbios_family_c64p_Hwi_eventMap__E
80033fa0   ti_sysbios_family_c64p_Hwi_getHandle__E
8003a400   ti_sysbios_family_c64p_Hwi_int0
8003a420   ti_sysbios_family_c64p_Hwi_int1
8003a540   ti_sysbios_family_c64p_Hwi_int10
8003a560   ti_sysbios_family_c64p_Hwi_int11
8003a580   ti_sysbios_family_c64p_Hwi_int12
8003a5a0   ti_sysbios_family_c64p_Hwi_int13
8003a5c0   ti_sysbios_family_c64p_Hwi_int14
8003a5e0   ti_sysbios_family_c64p_Hwi_int15
8003a440   ti_sysbios_family_c64p_Hwi_int2
8003a460   ti_sysbios_family_c64p_Hwi_int3
8003a480   ti_sysbios_family_c64p_Hwi_int4
8003a4a0   ti_sysbios_family_c64p_Hwi_int5
8003a4c0   ti_sysbios_family_c64p_Hwi_int6
8003a4e0   ti_sysbios_family_c64p_Hwi_int7
8003a500   ti_sysbios_family_c64p_Hwi_int8
8003a520   ti_sysbios_family_c64p_Hwi_int9
8002ada0   ti_sysbios_family_c64p_Hwi_plug__E
8001c720   ti_sysbios_family_c64p_Hwi_reconfig__E
80033fc0   ti_sysbios_family_c64p_Hwi_startup__E
80033fe0   ti_sysbios_family_c64p_Hwi_switchFromBootStack__E
80034000   ti_sysbios_family_c64p_Hwi_unPluggedInterrupt__I
80034020   ti_sysbios_family_c64p_TimestampProvider_Module_startup__E
80034040   ti_sysbios_family_c64p_TimestampProvider_Module_startup__F
80034060   ti_sysbios_family_c64p_TimestampProvider_get64__E
80034080   ti_sysbios_family_c64p_tci6488_TimerSupport_enable__E
800340a0   ti_sysbios_family_c66_Cache_Module_startup__E
80024700   ti_sysbios_family_c66_Cache_Module_startup__F
80039d70   ti_sysbios_family_c66_Cache_atomicBlockSize__C
80039a24   ti_sysbios_family_c66_Cache_initSize__C
8002cce0   ti_sysbios_family_c66_Cache_invL1pAll__E
800340c0   ti_sysbios_family_c66_Cache_inv__E
80037ff8   ti_sysbios_family_c66_Cache_marvalues__C
800340e0   ti_sysbios_family_c66_Cache_wbInv__E
80030060   ti_sysbios_family_xxx_Hwi_switchToIsrStack
80032a00   ti_sysbios_family_xxx_Hwi_switchToTaskStack
80031660   ti_sysbios_gates_GateAll_Handle__label__S
80034100   ti_sysbios_gates_GateAll_Instance_init__F
80039360   ti_sysbios_gates_GateAll_Module__FXNS__C
00829da4   ti_sysbios_gates_GateAll_Module__root__V
80039714   ti_sysbios_gates_GateAll_Object__DESC__C
80039904   ti_sysbios_gates_GateAll_Object__PARAMS__C
8002cd60   ti_sysbios_gates_GateAll_Object__create__S
800316a0   ti_sysbios_gates_GateAll_Object__delete__S
0082a8b0   ti_sysbios_gates_GateAll_Object__table__V
8002ecc0   ti_sysbios_gates_GateAll_enter__E
80029e60   ti_sysbios_gates_GateAll_leave__E
80034120   ti_sysbios_gates_GateAll_query__E
80034140   ti_sysbios_gates_GateAll_query__F
800316e0   ti_sysbios_gates_GateHwi_Handle__label__S
80034160   ti_sysbios_gates_GateHwi_Instance_init__F
80039384   ti_sysbios_gates_GateHwi_Module__FXNS__C
00829dac   ti_sysbios_gates_GateHwi_Module__root__V
80039734   ti_sysbios_gates_GateHwi_Object__DESC__C
8003991c   ti_sysbios_gates_GateHwi_Object__PARAMS__C
8002cde0   ti_sysbios_gates_GateHwi_Object__create__S
80031720   ti_sysbios_gates_GateHwi_Object__delete__S
0082a938   ti_sysbios_gates_GateHwi_Object__table__V
80034180   ti_sysbios_gates_GateHwi_enter__E
800341a0   ti_sysbios_gates_GateHwi_leave__E
800341c0   ti_sysbios_gates_GateHwi_query__E
800341e0   ti_sysbios_gates_GateHwi_query__F
80039d74   ti_sysbios_gates_GateMutexPri_A_badContext__C
80031760   ti_sysbios_gates_GateMutexPri_Handle__label__S
80039d78   ti_sysbios_gates_GateMutexPri_Instance_State_pendQ__O
800317a0   ti_sysbios_gates_GateMutexPri_Instance_finalize__F
800317e0   ti_sysbios_gates_GateMutexPri_Instance_init__F
800393a8   ti_sysbios_gates_GateMutexPri_Module__FXNS__C
80039d7c   ti_sysbios_gates_GateMutexPri_Module__diagsEnabled__C
80039d80   ti_sysbios_gates_GateMutexPri_Module__diagsIncluded__C
80039d84   ti_sysbios_gates_GateMutexPri_Module__diagsMask__C
8003a050   ti_sysbios_gates_GateMutexPri_Module__id__C
00829dbc   ti_sysbios_gates_GateMutexPri_Module__root__V
80039754   ti_sysbios_gates_GateMutexPri_Object__DESC__C
80039934   ti_sysbios_gates_GateMutexPri_Object__PARAMS__C
8002ce60   ti_sysbios_gates_GateMutexPri_Object__create__S
80031820   ti_sysbios_gates_GateMutexPri_Object__delete__S
80031860   ti_sysbios_gates_GateMutexPri_Object__destruct__S
0082a880   ti_sysbios_gates_GateMutexPri_Object__table__V
80016aa0   ti_sysbios_gates_GateMutexPri_enter__E
800267c0   ti_sysbios_gates_GateMutexPri_leave__E
80034200   ti_sysbios_gates_GateMutexPri_query__E
80034220   ti_sysbios_gates_GateMutexPri_query__F
80039d88   ti_sysbios_gates_GateMutex_A_badContext__C
800318a0   ti_sysbios_gates_GateMutex_Handle__label__S
80039d8c   ti_sysbios_gates_GateMutex_Instance_State_sem__O
800318e0   ti_sysbios_gates_GateMutex_Instance_finalize__F
8002ed20   ti_sysbios_gates_GateMutex_Instance_init__F
800393cc   ti_sysbios_gates_GateMutex_Module__FXNS__C
80039d90   ti_sysbios_gates_GateMutex_Module__diagsEnabled__C
80039d94   ti_sysbios_gates_GateMutex_Module__diagsIncluded__C
80039d98   ti_sysbios_gates_GateMutex_Module__diagsMask__C
8003a054   ti_sysbios_gates_GateMutex_Module__id__C
00829db4   ti_sysbios_gates_GateMutex_Module__root__V
80039774   ti_sysbios_gates_GateMutex_Object__DESC__C
8003994c   ti_sysbios_gates_GateMutex_Object__PARAMS__C
8002cee0   ti_sysbios_gates_GateMutex_Object__create__S
80031920   ti_sysbios_gates_GateMutex_Object__delete__S
0082a758   ti_sysbios_gates_GateMutex_Object__table__V
80020d20   ti_sysbios_gates_GateMutex_enter__E
80031960   ti_sysbios_gates_GateMutex_leave__E
80034240   ti_sysbios_gates_GateMutex_query__E
80034260   ti_sysbios_gates_GateMutex_query__F
80039d9c   ti_sysbios_gates_GateSwi_A_badContext__C
800319a0   ti_sysbios_gates_GateSwi_Handle__label__S
80034280   ti_sysbios_gates_GateSwi_Instance_init__F
800393f0   ti_sysbios_gates_GateSwi_Module__FXNS__C
80039da0   ti_sysbios_gates_GateSwi_Module__diagsEnabled__C
80039da4   ti_sysbios_gates_GateSwi_Module__diagsIncluded__C
80039da8   ti_sysbios_gates_GateSwi_Module__diagsMask__C
8003a058   ti_sysbios_gates_GateSwi_Module__id__C
00829dc4   ti_sysbios_gates_GateSwi_Module__root__V
80039794   ti_sysbios_gates_GateSwi_Object__DESC__C
80039964   ti_sysbios_gates_GateSwi_Object__PARAMS__C
8002cf60   ti_sysbios_gates_GateSwi_Object__create__S
800319e0   ti_sysbios_gates_GateSwi_Object__delete__S
0082a8d0   ti_sysbios_gates_GateSwi_Object__table__V
80024840   ti_sysbios_gates_GateSwi_enter__E
8002cfe0   ti_sysbios_gates_GateSwi_leave__E
800342a0   ti_sysbios_gates_GateSwi_query__E
800342c0   ti_sysbios_gates_GateSwi_query__F
80031a20   ti_sysbios_hal_Cache_CacheProxy_inv__E
80031a60   ti_sysbios_hal_Cache_CacheProxy_wbInv__E
80031a20   ti_sysbios_hal_Cache_inv__E
80031a60   ti_sysbios_hal_Cache_wbInv__E
80039dac   ti_sysbios_hal_Hwi_E_stackOverflow__C
800342e0   ti_sysbios_hal_Hwi_HwiProxy_Module__startupDone__S
80034300   ti_sysbios_hal_Hwi_HwiProxy_clearInterrupt__E
80034320   ti_sysbios_hal_Hwi_HwiProxy_disableInterrupt__E
80034340   ti_sysbios_hal_Hwi_HwiProxy_enableInterrupt__E
80034360   ti_sysbios_hal_Hwi_HwiProxy_startup__E
80034380   ti_sysbios_hal_Hwi_HwiProxy_switchFromBootStack__E
8003a05c   ti_sysbios_hal_Hwi_Module__id__C
00829dcc   ti_sysbios_hal_Hwi_Module__root__V
800343a0   ti_sysbios_hal_Hwi_Module_startup__E
800343c0   ti_sysbios_hal_Hwi_Module_startup__F
0082a8e0   ti_sysbios_hal_Hwi_Object__table__V
8002d060   ti_sysbios_hal_Hwi_checkStack
80034300   ti_sysbios_hal_Hwi_clearInterrupt__E
80034320   ti_sysbios_hal_Hwi_disableInterrupt__E
80034340   ti_sysbios_hal_Hwi_enableInterrupt__E
8002ed80   ti_sysbios_hal_Hwi_initStack
80034360   ti_sysbios_hal_Hwi_startup__E
80034380   ti_sysbios_hal_Hwi_switchFromBootStack__E
00829dd4   ti_sysbios_hal_Timer_Module__root__V
80031aa0   ti_sysbios_hal_Timer_Module__startupDone__F
800343e0   ti_sysbios_hal_Timer_Module__startupDone__S
80034400   ti_sysbios_hal_Timer_Module_startup__E
80034420   ti_sysbios_hal_Timer_Module_startup__F
0082a8e8   ti_sysbios_hal_Timer_Object__table__V
80034440   ti_sysbios_hal_Timer_TimerProxy_Module__startupDone__S
80034460   ti_sysbios_hal_Timer_TimerProxy_getExpiredCounts__E
80034480   ti_sysbios_hal_Timer_TimerProxy_getPeriod__E
800344a0   ti_sysbios_hal_Timer_TimerProxy_setNextTick__E
800344c0   ti_sysbios_hal_Timer_TimerProxy_startup__E
800344c0   ti_sysbios_hal_Timer_startup__E
80039db0   ti_sysbios_heaps_HeapBuf_Instance_State_freeList__O
00829ddc   ti_sysbios_heaps_HeapBuf_Module__root__V
00829de4   ti_sysbios_heaps_HeapBuf_Module__state__V
800344e0   ti_sysbios_heaps_HeapBuf_Module_startup__E
800226e0   ti_sysbios_heaps_HeapBuf_Module_startup__F
80039db4   ti_sysbios_heaps_HeapBuf_Object__count__C
8002ede0   ti_sysbios_heaps_HeapBuf_Object__get__S
80039db8   ti_sysbios_heaps_HeapBuf_Object__table__C
80039dbc   ti_sysbios_heaps_HeapBuf_numConstructedHeaps__C
80039dc0   ti_sysbios_heaps_HeapMem_A_align__C
80039dc4   ti_sysbios_heaps_HeapMem_A_heapSize__C
80039dc8   ti_sysbios_heaps_HeapMem_A_invalidFree__C
80039dcc   ti_sysbios_heaps_HeapMem_A_zeroBlock__C
80039dd0   ti_sysbios_heaps_HeapMem_E_memory__C
80031ae0   ti_sysbios_heaps_HeapMem_Handle__label__S
00800020   ti_sysbios_heaps_HeapMem_Instance_State_0_buf__A
80016d80   ti_sysbios_heaps_HeapMem_Instance_init__F
80034500   ti_sysbios_heaps_HeapMem_Module_GateProxy_enter__E
80034520   ti_sysbios_heaps_HeapMem_Module_GateProxy_leave__E
80034540   ti_sysbios_heaps_HeapMem_Module_GateProxy_query__E
80039280   ti_sysbios_heaps_HeapMem_Module__FXNS__C
80039dd4   ti_sysbios_heaps_HeapMem_Module__diagsEnabled__C
80039dd8   ti_sysbios_heaps_HeapMem_Module__diagsIncluded__C
80039ddc   ti_sysbios_heaps_HeapMem_Module__diagsMask__C
80039de0   ti_sysbios_heaps_HeapMem_Module__gateObj__C
8003a060   ti_sysbios_heaps_HeapMem_Module__id__C
00829de8   ti_sysbios_heaps_HeapMem_Module__root__V
800397b4   ti_sysbios_heaps_HeapMem_Object__DESC__C
80039414   ti_sysbios_heaps_HeapMem_Object__PARAMS__C
80039de4   ti_sysbios_heaps_HeapMem_Object__count__C
8002d0e0   ti_sysbios_heaps_HeapMem_Object__create__S
80031b20   ti_sysbios_heaps_HeapMem_Object__delete__S
8002ee40   ti_sysbios_heaps_HeapMem_Object__get__S
80039de8   ti_sysbios_heaps_HeapMem_Object__table__C
0082a898   ti_sysbios_heaps_HeapMem_Object__table__V
8000a260   ti_sysbios_heaps_HeapMem_alloc__E
8000a860   ti_sysbios_heaps_HeapMem_free__E
80029f20   ti_sysbios_heaps_HeapMem_getStats__E
8002b660   ti_sysbios_heaps_HeapMem_init__I
80034560   ti_sysbios_heaps_HeapMem_isBlocking__E
80039dec   ti_sysbios_heaps_HeapMem_reqAlign__C
80039df0   ti_sysbios_knl_Clock_A_badThreadType__C
80024980   ti_sysbios_knl_Clock_Instance_finalize__F
800194a0   ti_sysbios_knl_Clock_Instance_init__F
80039df4   ti_sysbios_knl_Clock_LM_begin__C
80039df8   ti_sysbios_knl_Clock_LM_tick__C
80039dfc   ti_sysbios_knl_Clock_LW_delayed__C
80039e00   ti_sysbios_knl_Clock_Module_State_clockQ__O
80039e04   ti_sysbios_knl_Clock_Module__diagsEnabled__C
80039e08   ti_sysbios_knl_Clock_Module__diagsIncluded__C
80039e0c   ti_sysbios_knl_Clock_Module__diagsMask__C
8003a064   ti_sysbios_knl_Clock_Module__id__C
8003a068   ti_sysbios_knl_Clock_Module__loggerDefined__C
80039e10   ti_sysbios_knl_Clock_Module__loggerFxn1__C
80039e14   ti_sysbios_knl_Clock_Module__loggerFxn2__C
80039e18   ti_sysbios_knl_Clock_Module__loggerObj__C
00829df0   ti_sysbios_knl_Clock_Module__root__V
00829df8   ti_sysbios_knl_Clock_Module__state__V
800345a0   ti_sysbios_knl_Clock_Module_startup__E
8002d160   ti_sysbios_knl_Clock_Module_startup__F
800397d4   ti_sysbios_knl_Clock_Object__DESC__C
80039438   ti_sysbios_knl_Clock_Object__PARAMS__C
8002d1e0   ti_sysbios_knl_Clock_Object__create__S
80031b60   ti_sysbios_knl_Clock_Object__destruct__S
80031ba0   ti_sysbios_knl_Clock_Params__init__S
8002eea0   ti_sysbios_knl_Clock_doTick__I
8002d260   ti_sysbios_knl_Clock_getTicks__E
80029fe0   ti_sysbios_knl_Clock_logTick__E
800268c0   ti_sysbios_knl_Clock_startI__E
800282e0   ti_sysbios_knl_Clock_start__E
80039e1c   ti_sysbios_knl_Clock_tickMode__C
80039e20   ti_sysbios_knl_Clock_tickSource__C
80018080   ti_sysbios_knl_Clock_workFunc__E
80039a48   ti_sysbios_knl_Idle_coreList__A
80039a50   ti_sysbios_knl_Idle_coreList__C
80039a58   ti_sysbios_knl_Idle_funcList__A
80039a60   ti_sysbios_knl_Idle_funcList__C
800345c0   ti_sysbios_knl_Idle_loop__E
8002b700   ti_sysbios_knl_Idle_run__E
800345e0   ti_sysbios_knl_Queue_Instance_init__F
00829e20   ti_sysbios_knl_Queue_Module__root__V
800397f4   ti_sysbios_knl_Queue_Object__DESC__C
8003997c   ti_sysbios_knl_Queue_Object__PARAMS__C
80039e24   ti_sysbios_knl_Queue_Object__count__C
8002d2e0   ti_sysbios_knl_Queue_Object__create__S
80031be0   ti_sysbios_knl_Queue_Object__destruct__S
8002ef00   ti_sysbios_knl_Queue_Object__get__S
80039e28   ti_sysbios_knl_Queue_Object__table__C
80034600   ti_sysbios_knl_Queue_empty__E
80039e2c   ti_sysbios_knl_Semaphore_A_badContext__C
80039e30   ti_sysbios_knl_Semaphore_A_noEvents__C
80039e34   ti_sysbios_knl_Semaphore_A_overflow__C
80039e38   ti_sysbios_knl_Semaphore_Instance_State_pendQ__O
80031c20   ti_sysbios_knl_Semaphore_Instance_finalize__F
80024ac0   ti_sysbios_knl_Semaphore_Instance_init__F
80039e3c   ti_sysbios_knl_Semaphore_LM_pend__C
80039e40   ti_sysbios_knl_Semaphore_LM_post__C
80039e44   ti_sysbios_knl_Semaphore_Module__diagsEnabled__C
80039e48   ti_sysbios_knl_Semaphore_Module__diagsIncluded__C
80039e4c   ti_sysbios_knl_Semaphore_Module__diagsMask__C
8003a06c   ti_sysbios_knl_Semaphore_Module__id__C
8003a070   ti_sysbios_knl_Semaphore_Module__loggerDefined__C
80039e50   ti_sysbios_knl_Semaphore_Module__loggerFxn2__C
80039e54   ti_sysbios_knl_Semaphore_Module__loggerFxn4__C
80039e58   ti_sysbios_knl_Semaphore_Module__loggerObj__C
00829e28   ti_sysbios_knl_Semaphore_Module__root__V
80039814   ti_sysbios_knl_Semaphore_Object__DESC__C
8003945c   ti_sysbios_knl_Semaphore_Object__PARAMS__C
8002d360   ti_sysbios_knl_Semaphore_Object__create__S
80031c60   ti_sysbios_knl_Semaphore_Object__destruct__S
80031ca0   ti_sysbios_knl_Semaphore_Params__init__S
8002d3e0   ti_sysbios_knl_Semaphore_pendTimeout__I
8000f1c0   ti_sysbios_knl_Semaphore_pend__E
8001ba40   ti_sysbios_knl_Semaphore_post__E
80039e5c   ti_sysbios_knl_Swi_A_badPriority__C
8002a0a0   ti_sysbios_knl_Swi_Instance_finalize__F
8001f7a0   ti_sysbios_knl_Swi_Instance_init__F
80039e60   ti_sysbios_knl_Swi_LD_end__C
80039e64   ti_sysbios_knl_Swi_LM_begin__C
80039e68   ti_sysbios_knl_Swi_LM_post__C
0082a498   ti_sysbios_knl_Swi_Module_State_0_readyQ__A
80039e6c   ti_sysbios_knl_Swi_Module__diagsEnabled__C
80039e70   ti_sysbios_knl_Swi_Module__diagsIncluded__C
80039e74   ti_sysbios_knl_Swi_Module__diagsMask__C
8003a074   ti_sysbios_knl_Swi_Module__id__C
8003a078   ti_sysbios_knl_Swi_Module__loggerDefined__C
80039e78   ti_sysbios_knl_Swi_Module__loggerFxn1__C
80039e7c   ti_sysbios_knl_Swi_Module__loggerFxn4__C
80039e80   ti_sysbios_knl_Swi_Module__loggerObj__C
00829e30   ti_sysbios_knl_Swi_Module__root__V
00829e38   ti_sysbios_knl_Swi_Module__state__V
80034620   ti_sysbios_knl_Swi_Module_startup__E
8002ef60   ti_sysbios_knl_Swi_Module_startup__F
80039834   ti_sysbios_knl_Swi_Object__DESC__C
800392a8   ti_sysbios_knl_Swi_Object__PARAMS__C
80039e84   ti_sysbios_knl_Swi_Object__count__C
8002a160   ti_sysbios_knl_Swi_Object__create__S
80031ce0   ti_sysbios_knl_Swi_Object__destruct__S
8002efc0   ti_sysbios_knl_Swi_Object__get__S
80039e88   ti_sysbios_knl_Swi_Object__table__C
0082a798   ti_sysbios_knl_Swi_Object__table__V
80031d20   ti_sysbios_knl_Swi_Params__init__S
80034640   ti_sysbios_knl_Swi_disable__E
80024c00   ti_sysbios_knl_Swi_post__E
800269c0   ti_sysbios_knl_Swi_restoreHwi__E
8001c940   ti_sysbios_knl_Swi_run__I
80022860   ti_sysbios_knl_Swi_schedule__I
8002d460   ti_sysbios_knl_Swi_startup__E
80039e8c   ti_sysbios_knl_Task_A_badPriority__C
80039e90   ti_sysbios_knl_Task_A_badTaskState__C
80039e94   ti_sysbios_knl_Task_A_badThreadType__C
80039e98   ti_sysbios_knl_Task_A_noPendElem__C
80039e9c   ti_sysbios_knl_Task_E_deleteNotAllowed__C
80039ea0   ti_sysbios_knl_Task_E_spOutOfBounds__C
80039ea4   ti_sysbios_knl_Task_E_stackOverflow__C
00820020   ti_sysbios_knl_Task_Instance_State_0_hookEnv__A
00828040   ti_sysbios_knl_Task_Instance_State_0_stack__A
00820030   ti_sysbios_knl_Task_Instance_State_1_hookEnv__A
00828840   ti_sysbios_knl_Task_Instance_State_1_stack__A
80008fc0   ti_sysbios_knl_Task_Instance_finalize__F
80013100   ti_sysbios_knl_Task_Instance_init__F
80039ea8   ti_sysbios_knl_Task_LD_block__C
80039eac   ti_sysbios_knl_Task_LD_exit__C
80039eb0   ti_sysbios_knl_Task_LD_ready__C
80039eb4   ti_sysbios_knl_Task_LM_setPri__C
80039eb8   ti_sysbios_knl_Task_LM_switch__C
80039ebc   ti_sysbios_knl_Task_LM_yield__C
0082a940   ti_sysbios_knl_Task_Module_State_0_idleTask__A
0082a518   ti_sysbios_knl_Task_Module_State_0_readyQ__A
80039ec0   ti_sysbios_knl_Task_Module_State_inactiveQ__O
80039ec4   ti_sysbios_knl_Task_Module_State_terminatedQ__O
80039ec8   ti_sysbios_knl_Task_Module__diagsEnabled__C
80039ecc   ti_sysbios_knl_Task_Module__diagsIncluded__C
80039ed0   ti_sysbios_knl_Task_Module__diagsMask__C
8003a07c   ti_sysbios_knl_Task_Module__id__C
8003a080   ti_sysbios_knl_Task_Module__loggerDefined__C
80039ed4   ti_sysbios_knl_Task_Module__loggerFxn2__C
80039ed8   ti_sysbios_knl_Task_Module__loggerFxn4__C
80039edc   ti_sysbios_knl_Task_Module__loggerObj__C
00829e54   ti_sysbios_knl_Task_Module__root__V
00829e5c   ti_sysbios_knl_Task_Module__state__V
80034660   ti_sysbios_knl_Task_Module_startup__E
8000fb40   ti_sysbios_knl_Task_Module_startup__F
80039854   ti_sysbios_knl_Task_Object__DESC__C
80038f78   ti_sysbios_knl_Task_Object__PARAMS__C
80039ee0   ti_sysbios_knl_Task_Object__count__C
8002a220   ti_sysbios_knl_Task_Object__create__S
80031d60   ti_sysbios_knl_Task_Object__delete__S
80031da0   ti_sysbios_knl_Task_Object__first__S
8002f020   ti_sysbios_knl_Task_Object__get__S
80039ee4   ti_sysbios_knl_Task_Object__heap__C
80031de0   ti_sysbios_knl_Task_Object__next__S
80039ee8   ti_sysbios_knl_Task_Object__table__C
0082a258   ti_sysbios_knl_Task_Object__table__V
80031e20   ti_sysbios_knl_Task_Params__init__S
800346e0   ti_sysbios_knl_Task_SupportProxy_Module__startupDone__S
80034700   ti_sysbios_knl_Task_SupportProxy_checkStack__E
80034720   ti_sysbios_knl_Task_SupportProxy_getStackAlignment__E
80034740   ti_sysbios_knl_Task_SupportProxy_start__E
80034760   ti_sysbios_knl_Task_SupportProxy_swap__E
80039eec   ti_sysbios_knl_Task_allBlockedFunc__C
8002a2e0   ti_sysbios_knl_Task_allBlockedFunction__I
80024d40   ti_sysbios_knl_Task_blockI__E
8001f960   ti_sysbios_knl_Task_checkStacks__E
80039ef0   ti_sysbios_knl_Task_defaultStackHeap__C
80039ef4   ti_sysbios_knl_Task_defaultStackSize__C
8002b7a0   ti_sysbios_knl_Task_deleteTerminatedTasksFunc__I
8003a084   ti_sysbios_knl_Task_deleteTerminatedTasks__C
80034780   ti_sysbios_knl_Task_disable__E
8002f080   ti_sysbios_knl_Task_enter__I
800175e0   ti_sysbios_knl_Task_exit__E
800347a0   ti_sysbios_knl_Task_getHookContext__E
800347c0   ti_sysbios_knl_Task_getPri__E
80038ea8   ti_sysbios_knl_Task_hooks__A
80039a68   ti_sysbios_knl_Task_hooks__C
8003a088   ti_sysbios_knl_Task_initStackFlag__C
80039ef8   ti_sysbios_knl_Task_numConstructedTasks__C
80039efc   ti_sysbios_knl_Task_numPriorities__C
8001e960   ti_sysbios_knl_Task_postInit__I
8002d4e0   ti_sysbios_knl_Task_restore__E
8001cb60   ti_sysbios_knl_Task_schedule__I
800347e0   ti_sysbios_knl_Task_self__E
80034800   ti_sysbios_knl_Task_setHookContext__E
800134c0   ti_sysbios_knl_Task_setPri__E
8001cd80   ti_sysbios_knl_Task_startCore__E
80034820   ti_sysbios_knl_Task_startup__E
800229e0   ti_sysbios_knl_Task_unblockI__E
80031ea0   ti_sysbios_knl_Task_unblock__E
80024e80   ti_sysbios_knl_Task_yield__E
00829ea4   ti_sysbios_syncs_SyncSem_Module__root__V
80039f00   ti_sysbios_timers_timer64_Timer_A_notAvailable__C
80039f04   ti_sysbios_timers_timer64_Timer_E_cannotSupport__C
00829f20   ti_sysbios_timers_timer64_Timer_Module_State_0_device__A
0082a598   ti_sysbios_timers_timer64_Timer_Module_State_0_gctrl__A
0082a618   ti_sysbios_timers_timer64_Timer_Module_State_0_handles__A
0082a698   ti_sysbios_timers_timer64_Timer_Module_State_0_intFreqs__A
80039f08   ti_sysbios_timers_timer64_Timer_Module__diagsEnabled__C
80039f0c   ti_sysbios_timers_timer64_Timer_Module__diagsIncluded__C
80039f10   ti_sysbios_timers_timer64_Timer_Module__diagsMask__C
8003a08c   ti_sysbios_timers_timer64_Timer_Module__id__C
00829eac   ti_sysbios_timers_timer64_Timer_Module__root__V
80031ee0   ti_sysbios_timers_timer64_Timer_Module__startupDone__F
80034840   ti_sysbios_timers_timer64_Timer_Module__startupDone__S
00829eb4   ti_sysbios_timers_timer64_Timer_Module__state__V
80034860   ti_sysbios_timers_timer64_Timer_Module_startup__E
8000d6e0   ti_sysbios_timers_timer64_Timer_Module_startup__F
0082a2f0   ti_sysbios_timers_timer64_Timer_Object__table__V
80034880   ti_sysbios_timers_timer64_Timer_TimerSupportProxy_enable__E
80039f14   ti_sysbios_timers_timer64_Timer_anyMask__C
80039f18   ti_sysbios_timers_timer64_Timer_freqDivisor__C
8002d560   ti_sysbios_timers_timer64_Timer_getCount__E
8002d560   ti_sysbios_timers_timer64_Timer_getExpiredCounts__E
8001eb40   ti_sysbios_timers_timer64_Timer_getFreq__E
8002d5e0   ti_sysbios_timers_timer64_Timer_getPeriod__E
80039f1c   ti_sysbios_timers_timer64_Timer_numLocalTimers__C
80039f20   ti_sysbios_timers_timer64_Timer_numTimerDevices__C
800348a0   ti_sysbios_timers_timer64_Timer_setNextTick__E
8001fb20   ti_sysbios_timers_timer64_Timer_setPeriodMicroSecs__E
80020ec0   ti_sysbios_timers_timer64_Timer_start__E
8003a090   ti_sysbios_timers_timer64_Timer_startupNeeded__C
800283c0   ti_sysbios_timers_timer64_Timer_startup__E
8002a3a0   ti_sysbios_timers_timer64_Timer_stop__E
80034200   ti_sysbios_xdcruntime_GateProcessSupport_query__F
80039f24   ti_sysbios_xdcruntime_GateThreadSupport_Instance_State_gate__O
80031f20   ti_sysbios_xdcruntime_GateThreadSupport_Instance_finalize__F
80031f60   ti_sysbios_xdcruntime_GateThreadSupport_Instance_init__F
00829ec8   ti_sysbios_xdcruntime_GateThreadSupport_Module__root__V
80039874   ti_sysbios_xdcruntime_GateThreadSupport_Object__DESC__C
80039994   ti_sysbios_xdcruntime_GateThreadSupport_Object__PARAMS__C
8002d660   ti_sysbios_xdcruntime_GateThreadSupport_Object__create__S
80031fa0   ti_sysbios_xdcruntime_GateThreadSupport_Object__delete__S
800348c0   ti_sysbios_xdcruntime_GateThreadSupport_enter__E
80031fe0   ti_sysbios_xdcruntime_GateThreadSupport_enter__F
800348e0   ti_sysbios_xdcruntime_GateThreadSupport_leave__E
80032020   ti_sysbios_xdcruntime_GateThreadSupport_leave__F
80034900   ti_sysbios_xdcruntime_GateThreadSupport_query__E
80034200   ti_sysbios_xdcruntime_GateThreadSupport_query__F
80032060   time
80004280   time_elapsed
80034940   tolower
8002f0e0   unlink
8002a520   vfprintf
8002b840   write
8002d6e0   writemsg
80039f28   xdc_runtime_Assert_E_assertFailed__C
8002b8e0   xdc_runtime_Assert_raise__I
80039f2c   xdc_runtime_Core_A_initializedParams__C
80039f30   xdc_runtime_Core_Module__diagsEnabled__C
80039f34   xdc_runtime_Core_Module__diagsIncluded__C
80039f38   xdc_runtime_Core_Module__diagsMask__C
8003a094   xdc_runtime_Core_Module__id__C
8002d760   xdc_runtime_Core_assignLabel__I
8002d7e0   xdc_runtime_Core_assignParams__I
80019720   xdc_runtime_Core_createObject__I
80026ac0   xdc_runtime_Core_deleteObject__I
80039f3c   xdc_runtime_Error_E_generic__C
80039f40   xdc_runtime_Error_E_memory__C
80039f44   xdc_runtime_Error_Module__diagsEnabled__C
80039f48   xdc_runtime_Error_Module__diagsIncluded__C
80039f4c   xdc_runtime_Error_Module__diagsMask__C
8003a098   xdc_runtime_Error_Module__loggerDefined__C
80039f50   xdc_runtime_Error_Module__loggerFxn8__C
80039f54   xdc_runtime_Error_Module__loggerObj__C
00829ed0   xdc_runtime_Error_Module__state__V
80034980   xdc_runtime_Error_check__E
800320a0   xdc_runtime_Error_check__F
800349a0   xdc_runtime_Error_init__E
800320e0   xdc_runtime_Error_init__F
8003a09c   xdc_runtime_Error_maxDepth__C
80039f58   xdc_runtime_Error_policy__C
800349c0   xdc_runtime_Error_print__E
800284a0   xdc_runtime_Error_print__F
80039f5c   xdc_runtime_Error_raiseHook__C
80032120   xdc_runtime_Error_raiseX__E
800199a0   xdc_runtime_Error_raiseX__F
80032160   xdc_runtime_GateNull_Handle__label__S
80039480   xdc_runtime_GateNull_Module__FXNS__C
00829ed4   xdc_runtime_GateNull_Module__root__V
80039894   xdc_runtime_GateNull_Object__DESC__C
800399ac   xdc_runtime_GateNull_Object__PARAMS__C
8002f140   xdc_runtime_GateNull_Object__create__S
800321a0   xdc_runtime_GateNull_Object__delete__S
0082a948   xdc_runtime_GateNull_Object__table__V
800349e0   xdc_runtime_GateNull_enter__E
80034a00   xdc_runtime_GateNull_enter__F
80034a20   xdc_runtime_GateNull_leave__E
80034a40   xdc_runtime_GateNull_leave__F
80034a60   xdc_runtime_GateNull_query__E
80034a80   xdc_runtime_GateNull_query__F
80034aa0   xdc_runtime_Gate_enterSystem__E
80034ac0   xdc_runtime_Gate_enterSystem__F
80034ae0   xdc_runtime_Gate_leaveSystem__E
800321e0   xdc_runtime_Gate_leaveSystem__F
80039f60   xdc_runtime_IGateProvider_Interface__BASE__C
80039f64   xdc_runtime_IHeap_Interface__BASE__C
80039f68   xdc_runtime_IModule_Interface__BASE__C
80039f6c   xdc_runtime_Log_L_error__C
80039f70   xdc_runtime_Main_Module__diagsEnabled__C
80039f74   xdc_runtime_Main_Module__diagsIncluded__C
80039f78   xdc_runtime_Main_Module__diagsMask__C
8003a0a0   xdc_runtime_Main_Module__id__C
8003a0a4   xdc_runtime_Main_Module__loggerDefined__C
80039f7c   xdc_runtime_Main_Module__loggerFxn4__C
80039f80   xdc_runtime_Main_Module__loggerObj__C
80034b00   xdc_runtime_Memory_HeapProxy_alloc__E
80034b20   xdc_runtime_Memory_HeapProxy_free__E
8003a0a8   xdc_runtime_Memory_Module__id__C
00829edc   xdc_runtime_Memory_Module__state__V
80034b40   xdc_runtime_Memory_alloc__E
80028580   xdc_runtime_Memory_alloc__F
80034b60   xdc_runtime_Memory_calloc__E
8002f1a0   xdc_runtime_Memory_calloc__F
80039f84   xdc_runtime_Memory_defaultHeapInstance__C
80034b80   xdc_runtime_Memory_free__E
800322a0   xdc_runtime_Memory_free__F
80034ba0   xdc_runtime_Memory_getMaxDefaultTypeAlign__E
80034bc0   xdc_runtime_Memory_getMaxDefaultTypeAlign__F
800322e0   xdc_runtime_Memory_valloc__E
8002f200   xdc_runtime_Memory_valloc__F
00829ee0   xdc_runtime_Registry_Module__state__V
80034be0   xdc_runtime_Registry_findById__E
80032320   xdc_runtime_Registry_findById__F
80034c00   xdc_runtime_Startup_Module__startupDone__S
00829ee8   xdc_runtime_Startup_Module__state__V
00000001   xdc_runtime_Startup__EXECFXN__C
00000001   xdc_runtime_Startup__RESETFXN__C
80039f88   xdc_runtime_Startup_execImpl__C
80034c20   xdc_runtime_Startup_exec__E
80026bc0   xdc_runtime_Startup_exec__F
80032360   xdc_runtime_Startup_exec__I
80039a30   xdc_runtime_Startup_firstFxns__A
80039a70   xdc_runtime_Startup_firstFxns__C
80039a78   xdc_runtime_Startup_lastFxns__A
80039a80   xdc_runtime_Startup_lastFxns__C
80039f8c   xdc_runtime_Startup_maxPasses__C
80034c40   xdc_runtime_Startup_reset__I
80034c60   xdc_runtime_Startup_rtsDone__E
80034c80   xdc_runtime_Startup_rtsDone__F
800394a8   xdc_runtime_Startup_sfxnRts__A
80039f90   xdc_runtime_Startup_sfxnRts__C
80038ef0   xdc_runtime_Startup_sfxnTab__A
80039f94   xdc_runtime_Startup_sfxnTab__C
80039f98   xdc_runtime_Startup_startModsFxn__C
8001aa60   xdc_runtime_Startup_startMods__I
00820040   xdc_runtime_SysMin_Module_State_0_outbuf__A
00829ef0   xdc_runtime_SysMin_Module__state__V
80034ca0   xdc_runtime_SysMin_Module_startup__E
8002f260   xdc_runtime_SysMin_Module_startup__F
80034cc0   xdc_runtime_SysMin_abort__E
8002b980   xdc_runtime_SysMin_abort__F
80039f9c   xdc_runtime_SysMin_bufSize__C
80034ce0   xdc_runtime_SysMin_exit__E
8002f2c0   xdc_runtime_SysMin_exit__F
8003a0ac   xdc_runtime_SysMin_flushAtExit__C
8002ba20   xdc_runtime_SysMin_flush__F
80039fa0   xdc_runtime_SysMin_outputFunc__C
8002f320   xdc_runtime_SysMin_output__I
80034d00   xdc_runtime_SysMin_putch__E
8002bac0   xdc_runtime_SysMin_putch__F
80034d20   xdc_runtime_SysMin_ready__E
80034d40   xdc_runtime_SysMin_ready__F
80034d60   xdc_runtime_System_Module_GateProxy_enter__E
80034d80   xdc_runtime_System_Module_GateProxy_leave__E
0082a848   xdc_runtime_System_Module_State_0_atexitHandlers__A
80039fa4   xdc_runtime_System_Module__gateObj__C
00829efc   xdc_runtime_System_Module__state__V
80034da0   xdc_runtime_System_Module_startup__E
80034dc0   xdc_runtime_System_Module_startup__F
80034de0   xdc_runtime_System_SupportProxy_abort__E
80034e00   xdc_runtime_System_SupportProxy_exit__E
80034e20   xdc_runtime_System_SupportProxy_putch__E
80034e40   xdc_runtime_System_SupportProxy_ready__E
80034e60   xdc_runtime_System_abort__E
800323a0   xdc_runtime_System_abort__F
800323e0   xdc_runtime_System_aprintf__E
8002f380   xdc_runtime_System_aprintf_va__F
80034e80   xdc_runtime_System_atexit__E
8002d860   xdc_runtime_System_atexit__F
8002f380   xdc_runtime_System_avprintf__F
80002fa0   xdc_runtime_System_doPrint__I
80034ea0   xdc_runtime_System_exit__E
80034ec0   xdc_runtime_System_exit__F
80039fa8   xdc_runtime_System_extendFxn__C
8002a5e0   xdc_runtime_System_formatNum__I
80034ee0   xdc_runtime_System_lastFxn__I
80039fac   xdc_runtime_System_maxAtexitHandlers__C
8001e3a0   xdc_runtime_System_printfExtend__I
80032420   xdc_runtime_System_printf__E
8002f3e0   xdc_runtime_System_printf_va__F
8002d8e0   xdc_runtime_System_rtsExit__I
80034f20   xdc_runtime_System_sprintf_va__F
8002f3e0   xdc_runtime_System_vprintf__F
80034f00   xdc_runtime_System_vsprintf__E
80034f20   xdc_runtime_System_vsprintf__F
00829f08   xdc_runtime_Text_Module__state__V
8003a0b0   xdc_runtime_Text_charCnt__C
80035270   xdc_runtime_Text_charTab__A
80039fb0   xdc_runtime_Text_charTab__C
80034f40   xdc_runtime_Text_cordText__E
8002f440   xdc_runtime_Text_cordText__F
8003a0b4   xdc_runtime_Text_isLoaded__C
80039fb4   xdc_runtime_Text_nameEmpty__C
80039fb8   xdc_runtime_Text_nameStatic__C
80039fbc   xdc_runtime_Text_nameUnknown__C
80038850   xdc_runtime_Text_nodeTab__A
80039fc0   xdc_runtime_Text_nodeTab__C
8002d960   xdc_runtime_Text_printVisFxn__I
80026cc0   xdc_runtime_Text_putMod__F
80034f60   xdc_runtime_Text_putSite__E
80022b60   xdc_runtime_Text_putSite__F
8003a0b8   xdc_runtime_Text_registryModsLastId__C
80034f80   xdc_runtime_Text_ropeText__E
80032460   xdc_runtime_Text_ropeText__F
8003a0bc   xdc_runtime_Text_unnamedModsLastId__C
80026dc0   xdc_runtime_Text_visitRope2__I
80039fc4   xdc_runtime_Text_visitRopeFxn__C
800324a0   xdc_runtime_Text_visitRope__I
8002d9e0   xdc_runtime_Text_xprintf__I
80034fa0   xdc_runtime_Timestamp_SupportProxy_get64__E
80034fc0   xdc_runtime_Timestamp_get64__E
80034fa0   xdc_runtime_Timestamp_get64__F
800324e0   xdc_runtime_knl_GateThread_Handle__label__S
80032520   xdc_runtime_knl_GateThread_Instance_finalize__F
80032560   xdc_runtime_knl_GateThread_Instance_init__F
800394cc   xdc_runtime_knl_GateThread_Module__FXNS__C
00829f10   xdc_runtime_knl_GateThread_Module__root__V
80034fe0   xdc_runtime_knl_GateThread_Module__startupDone__S
800398b4   xdc_runtime_knl_GateThread_Object__DESC__C
800399c4   xdc_runtime_knl_GateThread_Object__PARAMS__C
8002a6a0   xdc_runtime_knl_GateThread_Object__create__S
800325a0   xdc_runtime_knl_GateThread_Object__delete__S
800325e0   xdc_runtime_knl_GateThread_Proxy_Object__create__S
80035000   xdc_runtime_knl_GateThread_Proxy_Object__delete__S
80035020   xdc_runtime_knl_GateThread_Proxy_enter__E
80035040   xdc_runtime_knl_GateThread_Proxy_leave__E
80035060   xdc_runtime_knl_GateThread_Proxy_query__E
80035080   xdc_runtime_knl_GateThread_enter__E
800350a0   xdc_runtime_knl_GateThread_enter__F
800350c0   xdc_runtime_knl_GateThread_leave__E
800350e0   xdc_runtime_knl_GateThread_leave__F
80035100   xdc_runtime_knl_GateThread_query__E
80035060   xdc_runtime_knl_GateThread_query__F


GLOBAL SYMBOLS: SORTED BY Symbol Address 

address    name
--------   ----
00000000   _argsize
00000001   __TI_args_main
00000001   xdc_runtime_Startup__EXECFXN__C
00000001   xdc_runtime_Startup__RESETFXN__C
00001000   __TI_STACK_SIZE
00800000   ti_sdo_utils_NameServer_Module_State_0_nsRemoteHandle__A
00800020   ti_sysbios_heaps_HeapMem_Instance_State_0_buf__A
00820020   ti_sysbios_knl_Task_Instance_State_0_hookEnv__A
00820030   ti_sysbios_knl_Task_Instance_State_1_hookEnv__A
00820040   xdc_runtime_SysMin_Module_State_0_outbuf__A
00828040   ti_sysbios_knl_Task_Instance_State_0_stack__A
00828840   ti_sysbios_knl_Task_Instance_State_1_stack__A
00829190   _tmpnams
008293a0   ti_sdo_ipc_GateMP_Module_State_0_remoteCustom1Gates__A
00829ba0   ti_omp_utils_HeapOMP_Module__root__V
00829ba8   ti_omp_utils_OpenMP_Module__state__V
00829bbc   ti_omp_utils_SemaphoreMP_Module__root__V
00829bc4   ti_omp_utils_SemaphoreMP_Module__state__V
00829bcc   ti_omp_utils_ThreadLocal_Module__state__V
00829bd0   ti_omp_utils_ThreadLocalStorage_Module__state__V
00829bd8   ti_sdo_ipc_GateMP_Module__root__V
00829be0   ti_sdo_ipc_GateMP_Module__state__V
00829c28   ti_sdo_ipc_Ipc_Module__state__V
00829c34   ti_sdo_ipc_ListMP_Module__root__V
00829c3c   ti_sdo_ipc_ListMP_Module__state__V
00829c40   ti_sdo_ipc_MessageQ_Module__root__V
00829c48   ti_sdo_ipc_MessageQ_Module__state__V
00829c64   ti_sdo_ipc_Notify_Module__root__V
00829c6c   ti_sdo_ipc_Notify_Module__state__V
00829c74   ti_sdo_ipc_SharedRegion_Module__state__V
00829c78   ti_sdo_ipc_family_c647x_Interrupt_Module__state__V
00829c84   ti_sdo_ipc_gates_GateHWSem_Module__root__V
00829c8c   ti_sdo_ipc_gates_GateMPSupportNull_Module__root__V
00829c94   ti_sdo_ipc_gates_GatePeterson_Module__root__V
00829c9c   ti_sdo_ipc_heaps_HeapMemMP_Module__root__V
00829ca4   ti_sdo_ipc_heaps_HeapMemMP_Module__state__V
00829ca8   ti_sdo_ipc_notifyDrivers_NotifyDriverShm_Module__root__V
00829cb0   ti_sdo_ipc_nsremote_NameServerRemoteNotify_Module__root__V
00829cb8   ti_sdo_ipc_transports_TransportShm_Module__root__V
00829cc0   ti_sdo_ipc_transports_TransportShmSetup_Module__state__V
00829cc4   ti_sdo_utils_List_Module__root__V
00829ccc   ti_sdo_utils_MultiProc_Module__state__V
00829cd0   ti_sdo_utils_NameServer_Module__root__V
00829cd8   ti_sdo_utils_NameServer_Module__state__V
00829ce0   ti_sdo_utils_NameServerRemoteNull_Module__root__V
00829ce8   ti_sysbios_BIOS_Module__state__V
00829d08   ti_sysbios_family_c64p_Exception_Module__state__V
00829d34   ti_sysbios_family_c64p_Hwi_Module__root__V
00829d3c   ti_sysbios_family_c64p_Hwi_Module__state__V
00829da4   ti_sysbios_gates_GateAll_Module__root__V
00829dac   ti_sysbios_gates_GateHwi_Module__root__V
00829db4   ti_sysbios_gates_GateMutex_Module__root__V
00829dbc   ti_sysbios_gates_GateMutexPri_Module__root__V
00829dc4   ti_sysbios_gates_GateSwi_Module__root__V
00829dcc   ti_sysbios_hal_Hwi_Module__root__V
00829dd4   ti_sysbios_hal_Timer_Module__root__V
00829ddc   ti_sysbios_heaps_HeapBuf_Module__root__V
00829de4   ti_sysbios_heaps_HeapBuf_Module__state__V
00829de8   ti_sysbios_heaps_HeapMem_Module__root__V
00829df0   ti_sysbios_knl_Clock_Module__root__V
00829df8   ti_sysbios_knl_Clock_Module__state__V
00829e20   ti_sysbios_knl_Queue_Module__root__V
00829e28   ti_sysbios_knl_Semaphore_Module__root__V
00829e30   ti_sysbios_knl_Swi_Module__root__V
00829e38   ti_sysbios_knl_Swi_Module__state__V
00829e54   ti_sysbios_knl_Task_Module__root__V
00829e5c   ti_sysbios_knl_Task_Module__state__V
00829ea4   ti_sysbios_syncs_SyncSem_Module__root__V
00829eac   ti_sysbios_timers_timer64_Timer_Module__root__V
00829eb4   ti_sysbios_timers_timer64_Timer_Module__state__V
00829ec8   ti_sysbios_xdcruntime_GateThreadSupport_Module__root__V
00829ed0   xdc_runtime_Error_Module__state__V
00829ed4   xdc_runtime_GateNull_Module__root__V
00829edc   xdc_runtime_Memory_Module__state__V
00829ee0   xdc_runtime_Registry_Module__state__V
00829ee8   xdc_runtime_Startup_Module__state__V
00829ef0   xdc_runtime_SysMin_Module__state__V
00829efc   xdc_runtime_System_Module__state__V
00829f08   xdc_runtime_Text_Module__state__V
00829f10   xdc_runtime_knl_GateThread_Module__root__V
00829f18   __xdc__init__addr
00829f20   ti_sysbios_timers_timer64_Timer_Module_State_0_device__A
0082a0a0   ti_sdo_utils_NameServer_Object__table__V
0082a1b8   ti_sdo_ipc_Ipc_Module_State_0_procEntry__A
0082a258   TSK_idle
0082a258   ti_sysbios_knl_Task_Object__table__V
0082a2f0   ti_sysbios_timers_timer64_Timer_Object__table__V
0082a388   ti_sdo_ipc_SharedRegion_Module_State_0_regions__A
0082a418   ti_sdo_ipc_GateMP_Module_State_0_remoteSystemGates__A
0082a498   ti_sysbios_knl_Swi_Module_State_0_readyQ__A
0082a518   ti_sysbios_knl_Task_Module_State_0_readyQ__A
0082a598   ti_sysbios_timers_timer64_Timer_Module_State_0_gctrl__A
0082a618   ti_sysbios_timers_timer64_Timer_Module_State_0_handles__A
0082a698   ti_sysbios_timers_timer64_Timer_Module_State_0_intFreqs__A
0082a718   ti_sdo_ipc_MessageQ_Module_State_0_transports__A
0082a758   ti_sysbios_gates_GateMutex_Object__table__V
0082a798   ti_sysbios_knl_Swi_Object__table__V
0082a7c8   ti_sdo_ipc_MessageQ_Module_State_0_heaps__A
0082a7e8   ti_sdo_ipc_Notify_Module_State_0_notifyHandles__A
0082a808   ti_sdo_ipc_family_c647x_Interrupt_Module_State_0_args__A
0082a828   ti_sdo_ipc_transports_TransportShmSetup_Module_State_0_handles__A
0082a848   xdc_runtime_System_Module_State_0_atexitHandlers__A
0082a868   ti_sysbios_family_c64p_Hwi_Object__table__V
0082a880   ti_sysbios_gates_GateMutexPri_Object__table__V
0082a898   ti_sysbios_heaps_HeapMem_Object__table__V
0082a8b0   ti_sysbios_gates_GateAll_Object__table__V
0082a8c0   ti_omp_utils_HeapOMP_Object__table__V
0082a8d0   ti_sysbios_gates_GateSwi_Object__table__V
0082a8e0   ti_sysbios_hal_Hwi_Object__table__V
0082a8e8   ti_sysbios_hal_Timer_Object__table__V
0082a8f0   ti_sdo_ipc_GateMP_Module_State_0_remoteCustom2Gates__A
0082a8f8   ti_sdo_ipc_Notify_Module_State_0_notifyHandles_0__A
0082a900   ti_sdo_ipc_Notify_Module_State_0_notifyHandles_1__A
0082a908   ti_sdo_ipc_Notify_Module_State_0_notifyHandles_2__A
0082a910   ti_sdo_ipc_Notify_Module_State_0_notifyHandles_3__A
0082a918   ti_sdo_ipc_Notify_Module_State_0_notifyHandles_4__A
0082a920   ti_sdo_ipc_Notify_Module_State_0_notifyHandles_5__A
0082a928   ti_sdo_ipc_Notify_Module_State_0_notifyHandles_6__A
0082a930   ti_sdo_ipc_Notify_Module_State_0_notifyHandles_7__A
0082a938   ti_sysbios_gates_GateHwi_Object__table__V
0082a940   ti_sysbios_knl_Task_Module_State_0_idleTask__A
0082a948   xdc_runtime_GateNull_Object__table__V
0082a950   _ftable
0082ac60   _delete_mutexes_ptr
0082ac64   _cleanup_ptr
0082ac68   _dtors_ptr
0082ac6c   __TI_enable_exit_profile_output
0082ac7c   _lock
0082ac80   _unlock
0082ac8c   _ft_end
0082ac94   __errno
0082ac94   errno
0082ac9c   __TI_tls_currentTP
0082aca0   _stack
0082bca0   __CIOBUF_
0082bca0   __TI_STACK_END
0c000000   cppiObject
80000000   __ASM__
80000000   ti_sdo_ipc_GateMP_Instance_init__F
80000060   __ISA__
80000078   __PLAT__
80000098   __TARG__
800000c0   __TRDR__
800011c0   ti_sdo_ipc_heaps_HeapMemMP_alloc__E
80001c20   ti_sdo_ipc_heaps_HeapMemMP_free__E
80002600   Ipc_attach
80002fa0   xdc_runtime_System_doPrint__I
80003940   ti_sdo_ipc_transports_TransportShm_Instance_init__F
80004260   p
80004280   time_elapsed
80004340   radixsort_parallel
8000488c   main
80004b40   ti_sdo_ipc_ListMP_Instance_init__F
800053e0   ti_sdo_ipc_GateMP_Instance_finalize__F
80005c40   MessageQ_put
80006480   Qmss_insertMemoryRegion
80006c60   ti_sdo_ipc_heaps_HeapMemMP_Instance_init__F
800073e0   ti_sysbios_family_c64p_Exception_handler__I
80007b60   Notify_registerEvent
80008260   ti_sdo_ipc_nsremote_NameServerRemoteNotify_Instance_init__F
80008920   NameServer_add
80008fc0   ti_sysbios_knl_Task_Instance_finalize__F
80009640   Notify_sendEvent
80009c60   gomp_team_start
8000a260   ti_sysbios_heaps_HeapMem_alloc__E
8000a860   ti_sysbios_heaps_HeapMem_free__E
8000ae60   Notify_registerEventSingle
8000b440   SharedRegion_setEntry
8000ba20   ListMP_getHead
8000bfe0   Notify_unregisterEventSingle
8000c5a0   __c6xabi_divd
8000d120   ti_sdo_ipc_SharedRegion_start__F
8000d6e0   ti_sysbios_timers_timer64_Timer_Module_startup__F
8000dca0   ti_sdo_ipc_nsremote_NameServerRemoteNotify_get__F
8000e220   ti_sdo_ipc_transports_TransportShm_put__E
8000e7a0   ti_sdo_ipc_Ipc_procSyncStart__I
8000ece0   ti_sdo_ipc_notifyDrivers_NotifyDriverShm_Instance_init__F
8000f1c0   ti_sysbios_knl_Semaphore_pend__E
8000f6a0   ti_sdo_ipc_gates_GatePeterson_Instance_init__F
8000fb40   ti_sysbios_knl_Task_Module_startup__F
8000ffc0   _printfi
80010880   ti_sdo_ipc_GateMP_setRegion0Reserved__F
80010ce0   ti_sdo_ipc_Ipc_procSyncFinish__I
80011140   ListMP_putTail
80011580   ti_sdo_ipc_heaps_HeapMemMP_getStats__E
800119c0   ti_sdo_ipc_heaps_HeapMemMP_postInit__I
80011e00   ti_sdo_ipc_Notify_Instance_init__F
80012200   Cppi_initDescriptor
800125c0   fputs
80012980   ti_omp_utils_ThreadLocal_setspecific__E
80012d40   ti_sdo_ipc_SharedRegion_reserveMemory__F
80013100   ti_sysbios_knl_Task_Instance_init__F
800134c0   ti_sysbios_knl_Task_setPri__E
80013880   HeapMemMP_sharedMemReq
80013c00   gomp_barrier_handle_tasks
80013f60   gomp_iter_static_next
800142c0   GateMP_sharedMemReq
80014600   Qmss_init
80014940   ti_sdo_ipc_nsremote_NameServerRemoteNotify_swiFxn__I
80014fa0   strtoul
800155e0   ti_omp_utils_ThreadLocal_getspecific__E
80015900   GateMP_openByAddr
80015c00   ti_sdo_ipc_transports_TransportShm_openByAddr__F
80015f00   ti_sysbios_family_c64p_Hwi_dispatchC__I
80016200   SharedRegion_getEntry
800164e0   SharedRegion_getPtr
80016aa0   ti_sysbios_gates_GateMutexPri_enter__E
80016d80   ti_sysbios_heaps_HeapMem_Instance_init__F
80017320   ti_sdo_ipc_notifyDrivers_NotifyDriverShm_isr__I
800175e0   ti_sysbios_knl_Task_exit__E
800178a0   Ipc_start
80017b40   NameServer_getLocal
80018080   ti_sysbios_knl_Clock_workFunc__E
80018320   SharedRegion_getSRPtr
800185a0   __c6xabi_divf
80018d20   initialize_env
80018fa0   ti_omp_utils_OpenMP_masterTask__I
80019220   ti_sdo_ipc_notifyDrivers_NotifyDriverShm_sharedMemReq__F
800194a0   ti_sysbios_knl_Clock_Instance_init__F
80019720   xdc_runtime_Core_createObject__I
800199a0   xdc_runtime_Error_raiseX__F
80019c20   ListMP_sharedMemReq
8001a0e0   ti_sdo_ipc_ListMP_Instance_finalize__F
8001a340   ti_sdo_ipc_SharedRegion_checkOverlap__I
8001a5a0   ti_sdo_ipc_heaps_HeapMemMP_Instance_finalize__F
8001a800   ti_sdo_ipc_notifyDrivers_NotifyDriverShm_disableEvent__E
8001aa60   xdc_runtime_Startup_startMods__I
8001acc0   Cppi_open
8001af00   __c6xabi_divull
8001b5c0   fputc
8001b800   ti_sysbios_family_c64p_Exception_internalHandler__I
8001ba40   ti_sysbios_knl_Semaphore_post__E
8001c0c0   setvbuf
8001c2e0   ti_omp_utils_OpenMP_createThread__E
8001c500   ti_sdo_ipc_GateMP_start__F
8001c720   ti_sysbios_family_c64p_Hwi_reconfig__E
8001c940   ti_sysbios_knl_Swi_run__I
8001cb60   ti_sysbios_knl_Task_schedule__I
8001cd80   ti_sysbios_knl_Task_startCore__E
8001cfa0   GateMP_enter
8001d1a0   GateMP_leave
8001d3a0   ListMP_openByAddr
8001d9a0   ti_sysbios_family_c64p_Hwi_dispatchAlways
8001dfa0   ti_sdo_ipc_notifyDrivers_NotifyDriverShm_sendEvent__E
8001e1a0   ti_sdo_ipc_transports_TransportShm_Instance_finalize__F
8001e3a0   xdc_runtime_System_printfExtend__I
8001e5a0   ti_sdo_ipc_GateMP_attach__F
8001e780   ti_sdo_ipc_GateMP_getFreeResource__I
8001e960   ti_sysbios_knl_Task_postInit__I
8001eb40   ti_sysbios_timers_timer64_Timer_getFreq__E
8001ed20   HeapMemMP_openByAddr
8001f260   gomp_barrier_init
8001f420   ti_omp_utils_ThreadLocal_key_delete__E
8001f5e0   ti_sdo_ipc_notifyDrivers_NotifyDriverShm_registerEvent__E
8001f7a0   ti_sysbios_knl_Swi_Instance_init__F
8001f960   ti_sysbios_knl_Task_checkStacks__E
8001fb20   ti_sysbios_timers_timer64_Timer_setPeriodMicroSecs__E
8001fce0   SharedRegion_getCacheLineSize
8001fe80   SharedRegion_getHeap
80020020   SharedRegion_isCacheEnabled
800201c0   __c6xabi_divul
80020360   gomp_new_team
80020500   ti_omp_utils_SemaphoreMP_registerEvent__I
800206a0   ti_sdo_ipc_GateMP_openRegion0Reserved__F
80020840   ti_sdo_ipc_notifyDrivers_NotifyDriverShm_enableEvent__E
800209e0   ti_sdo_ipc_notifyDrivers_NotifyDriverShm_unregisterEvent__E
80020b80   ti_sdo_ipc_nsremote_NameServerRemoteNotify_attach__E
80020d20   ti_sysbios_gates_GateMutex_enter__E
80020ec0   ti_sysbios_timers_timer64_Timer_start__E
80021060   HOSTrename
800211e0   MultiProc_setLocalId
80021360   NameServer_getHandle
800214e0   Notify_intLineRegistered
80021960   gomp_barrier_wait
80021ae0   gomp_resolve_num_threads
80021c60   gomp_team_end
80021f60   ti_sysbios_family_c64p_Exception_dispatch__E
800220e0   ti_sdo_ipc_MessageQ_registerTransport__F
80022260   ti_sdo_ipc_Notify_Module_startup__F
800223e0   ti_sdo_ipc_gates_GatePeterson_enter__E
80022560   ti_sdo_utils_NameServer_Module_startup__F
800226e0   ti_sysbios_heaps_HeapBuf_Module_startup__F
80022860   ti_sysbios_knl_Swi_schedule__I
800229e0   ti_sysbios_knl_Task_unblockI__E
80022b60   xdc_runtime_Text_putSite__F
80022e40   ti_omp_utils_OpenMP_mainTaskExit__F
80022fa0   ti_sdo_ipc_GateMP_createLocal__F
80023100   ti_sdo_ipc_MessageQ_unregisterTransport__F
80023260   ti_sdo_ipc_gates_GateHWSem_Instance_init__F
800233c0   ti_sdo_ipc_transports_TransportShm_sharedMemReq__F
80023520   ti_sdo_utils_NameServer_isRegistered__E
80023680   ti_sdo_utils_NameServer_registerRemoteDriver__E
800237e0   ti_sdo_utils_NameServer_unregisterRemoteDriver__E
80023940   CSL_chipReadReg
80023a80   GateMP_close
80023bc0   Notify_attach
80023d00   _auto_init_elf
80023f80   fseek
80024340   gomp_team_barrier_wait_end
80024480   ti_sdo_ipc_Notify_exec__F
800245c0   ti_sysbios_family_c64p_Hwi_Module_startup__F
80024700   ti_sysbios_family_c66_Cache_Module_startup__F
80024840   ti_sysbios_gates_GateSwi_enter__E
80024980   ti_sysbios_knl_Clock_Instance_finalize__F
80024ac0   ti_sysbios_knl_Semaphore_Instance_init__F
80024c00   ti_sysbios_knl_Swi_post__E
80024d40   ti_sysbios_knl_Task_blockI__E
80024e80   ti_sysbios_knl_Task_yield__E
800250e0   _closefile
80025560   ti_sdo_ipc_MessageQ_Module_startup__F
80025680   ti_sdo_ipc_family_c647x_Interrupt_intRegister__E
800257a0   ti_sdo_ipc_nsremote_NameServerRemoteNotify_Instance_finalize__F
800258c0   _wrt_ok
800259c0   copy_in
80025ec0   siu_ibl_download_core
80025fc0   ti_sdo_ipc_Notify_Instance_finalize__F
800260c0   ti_sdo_ipc_SharedRegion_attach__F
800261c0   ti_sdo_ipc_SharedRegion_clearReservedMemory__F
800262c0   ti_sdo_ipc_family_c647x_Interrupt_Module_startup__F
800263c0   ti_sdo_ipc_gates_GateHWSem_Module_startup__F
800264c0   ti_sdo_ipc_gates_GateMPSupportNull_enter__E
800265c0   ti_sdo_ipc_gates_GateMPSupportNull_leave__E
800266c0   ti_sdo_ipc_transports_TransportShmSetup_attach__E
800267c0   ti_sysbios_gates_GateMutexPri_leave__E
800268c0   ti_sysbios_knl_Clock_startI__E
800269c0   ti_sysbios_knl_Swi_restoreHwi__E
80026ac0   xdc_runtime_Core_deleteObject__I
80026bc0   xdc_runtime_Startup_exec__F
80026cc0   xdc_runtime_Text_putMod__F
80026dc0   xdc_runtime_Text_visitRope2__I
80026ec0   HOSTgetenv
80026fa0   HOSTlseek
80027080   HOSTopen
80027160   __c6xabi_fltllid
80027240   __c6xabi_divi
80027240   __divi
80027400   atoi
800274e0   close
800275c0   __TI_zero_init
800276a0   exit
80027780   gomp_init_work_share
80027860   initialize_team
80027940   ltoa
80027a20   memset
80027b00   printf
80027be0   ti_omp_utils_ThreadLocal_key_create__E
80027cc0   ti_sdo_ipc_Notify_Object__create__S
80027da0   ti_sdo_ipc_family_c647x_Interrupt_intShmStub__I
80027e80   ti_sdo_ipc_family_c647x_NotifySetup_attach__E
80027f60   ti_sdo_ipc_gates_GateHWSem_enter__E
80028040   ti_sysbios_family_c64p_Hwi_Instance_finalize__F
80028120   ti_sysbios_family_c64p_Hwi_Instance_init__F
80028200   ti_sysbios_family_c64p_Hwi_Object__create__S
800282e0   ti_sysbios_knl_Clock_start__E
800283c0   ti_sysbios_timers_timer64_Timer_startup__E
800284a0   xdc_runtime_Error_print__F
80028580   xdc_runtime_Memory_alloc__F
80028660   HOSTread
80028720   HOSTwrite
800287e0   HeapMemMP_create
800288a0   ListMP_create
80028960   SharedRegion_getId
80028a20   __cxa_finalize
80028ae0   __c6xabi_divu
80028ae0   __divu
80028ba0   _doflush
80029020   gomp_work_share_start
80029260   pthread_mutex_lock
80029320   pthread_mutex_unlock
800293e0   pthread_once
80029560   ti_omp_utils_OpenMP_threadSpawnLoop__I
80029620   ti_omp_utils_ThreadLocal_exitFxn__F
800296e0   ti_sdo_ipc_GateMP_Object__create__S
800297a0   ti_sdo_ipc_GateMP_getRegion0ReservedSize__F
80029860   ti_sdo_ipc_ListMP_Object__create__S
80029920   ti_sdo_ipc_Notify_execMany__I
800299e0   ti_sdo_ipc_gates_GatePeterson_Object__create__S
80029aa0   ti_sdo_ipc_heaps_HeapMemMP_Object__create__S
80029b60   ti_sdo_ipc_notifyDrivers_NotifyDriverShm_Object__create__S
80029c20   ti_sdo_ipc_nsremote_NameServerRemoteNotify_Object__create__S
80029ce0   ti_sdo_ipc_transports_TransportShm_Object__create__S
80029da0   ti_sysbios_BIOS_errorRaiseHook__I
80029e60   ti_sysbios_gates_GateAll_leave__E
80029f20   ti_sysbios_heaps_HeapMem_getStats__E
80029fe0   ti_sysbios_knl_Clock_logTick__E
8002a0a0   ti_sysbios_knl_Swi_Instance_finalize__F
8002a160   ti_sysbios_knl_Swi_Object__create__S
8002a220   ti_sysbios_knl_Task_Object__create__S
8002a2e0   ti_sysbios_knl_Task_allBlockedFunction__I
8002a3a0   ti_sysbios_timers_timer64_Timer_stop__E
8002a460   __TI_tls_init
8002a520   vfprintf
8002a5e0   xdc_runtime_System_formatNum__I
8002a6a0   xdc_runtime_knl_GateThread_Object__create__S
8002a800   GOMP_parallel_end
8002a8a0   HOSTunlink
8002a940   Qmss_startCfg
8002aa80   __c6xabi_remu
8002aa80   __remu
8002ab20   _cleanup
8002ada0   ti_sysbios_family_c64p_Hwi_plug__E
8002aee0   gomp_barrier_wait_end
8002b020   gomp_work_share_end
8002b0c0   init_Navigator
8002b160   lseek
8002b200   memcpy
8002b340   realloc
8002b3e0   strerror
8002b480   ti_sdo_ipc_family_c647x_Interrupt_intUnregister__E
8002b520   ti_sdo_ipc_gates_GatePeterson_leave__E
8002b5c0   ti_sdo_ipc_notifyDrivers_NotifyDriverShm_Instance_finalize__F
8002b660   ti_sysbios_heaps_HeapMem_init__I
8002b700   ti_sysbios_knl_Idle_run__E
8002b7a0   ti_sysbios_knl_Task_deleteTerminatedTasksFunc__I
8002b840   write
8002b8e0   xdc_runtime_Assert_raise__I
8002b980   xdc_runtime_SysMin_abort__F
8002ba20   xdc_runtime_SysMin_flush__F
8002bac0   xdc_runtime_SysMin_putch__F
8002bb60   HOSTclose
8002bbe0   HOSTtime
8002bc60   Qmss_getMemRegQueueHandle
8002bce0   Qmss_queueOpen
8002bd60   __TI_resource_lock
8002bde0   __c6xabi_llshl
8002be60   ti_sysbios_family_c62_TaskSupport_swap__E
8002bf60   gomp_init_task
8002c060   gomp_realloc
8002c3e0   malloc
8002c4e0   pthread_mutex_init
8002c560   queue_pop_elem_wait
8002c5e0   readmsg
8002c660   ti_omp_utils_HeapOMP_Object__create__S
8002c6e0   ti_omp_utils_OpenMP_exitThread__F
8002c760   ti_omp_utils_OpenMP_mainTask__I
8002c7e0   ti_omp_utils_ThreadLocalStorage_createFxn__F
8002c860   ti_sdo_ipc_gates_GateHWSem_Object__create__S
8002c8e0   ti_sdo_ipc_gates_GateMPSupportNull_Object__create__S
8002c960   ti_sdo_ipc_nsremote_NameServerRemoteNotify_detach__E
8002c9e0   ti_sdo_ipc_transports_TransportShm_swiFxn__I
8002ca60   ti_sdo_utils_List_Object__create__S
8002cae0   ti_sysbios_BIOS_exit__E
8002cb60   ti_sysbios_family_c62_TaskSupport_start__E
8002cbe0   ti_sysbios_family_c64p_Exception_Module_startup__F
8002cc60   ti_sysbios_family_c64p_Hwi_eventMap__E
8002cce0   ti_sysbios_family_c66_Cache_invL1pAll__E
8002cd60   ti_sysbios_gates_GateAll_Object__create__S
8002cde0   ti_sysbios_gates_GateHwi_Object__create__S
8002ce60   ti_sysbios_gates_GateMutexPri_Object__create__S
8002cee0   ti_sysbios_gates_GateMutex_Object__create__S
8002cf60   ti_sysbios_gates_GateSwi_Object__create__S
8002cfe0   ti_sysbios_gates_GateSwi_leave__E
8002d060   ti_sysbios_hal_Hwi_checkStack
8002d0e0   ti_sysbios_heaps_HeapMem_Object__create__S
8002d160   ti_sysbios_knl_Clock_Module_startup__F
8002d1e0   ti_sysbios_knl_Clock_Object__create__S
8002d260   ti_sysbios_knl_Clock_getTicks__E
8002d2e0   ti_sysbios_knl_Queue_Object__create__S
8002d360   ti_sysbios_knl_Semaphore_Object__create__S
8002d3e0   ti_sysbios_knl_Semaphore_pendTimeout__I
8002d460   ti_sysbios_knl_Swi_startup__E
8002d4e0   ti_sysbios_knl_Task_restore__E
8002d560   ti_sysbios_timers_timer64_Timer_getCount__E
8002d560   ti_sysbios_timers_timer64_Timer_getExpiredCounts__E
8002d5e0   ti_sysbios_timers_timer64_Timer_getPeriod__E
8002d660   ti_sysbios_xdcruntime_GateThreadSupport_Object__create__S
8002d6e0   writemsg
8002d738   C$$IO$$
8002d760   xdc_runtime_Core_assignLabel__I
8002d7e0   xdc_runtime_Core_assignParams__I
8002d860   xdc_runtime_System_atexit__F
8002d8e0   xdc_runtime_System_rtsExit__I
8002d960   xdc_runtime_Text_printVisFxn__I
8002d9e0   xdc_runtime_Text_xprintf__I
8002dca0   GateMP_Params_init
8002dd00   HeapMemMP_Params_init
8002ddc0   Notify_numIntLines
8002de20   __c6xabi_frcmpyd_div
8002de80   __c6xabi_llshru
8002dee0   _subcull
8002df40   calloc
8002e180   gomp_fini_work_share
8002e360   gomp_malloc
8002e3c0   gomp_new_icv
8002e480   gomp_team_barrier_wake
8002e540   memccpy
8002e5a0   pthread_mutex_destroy
8002e600   queue_push_elem
8002e660   rand
8002e6c0   strncmp
8002e720   team_destructor
8002e780   ti_omp_utils_HeapOMP_alloc__E
8002e7e0   ti_omp_utils_OpenMP_setProcId__I
8002e840   ti_omp_utils_ThreadLocalStorage_deleteFxn__F
8002e8a0   ti_sdo_ipc_MessageQ_Object__get__S
8002e900   ti_sdo_ipc_family_c647x_NotifySetup_sharedMemReq__E
8002e960   ti_sdo_ipc_gates_GateHWSem_leave__E
8002e9c0   ti_sdo_ipc_gates_GatePeterson_Instance_finalize__F
8002ea20   ti_sdo_ipc_gates_GatePeterson_sharedMemReq__E
8002ea80   ti_sdo_ipc_notifyDrivers_NotifyDriverShm_setNotifyHandle__E
8002eae0   ti_sdo_ipc_transports_TransportShmSetup_sharedMemReq__E
8002eb40   ti_sdo_utils_List_Object__get__S
8002eba0   ti_sdo_utils_NameServer_Object__get__S
8002ec00   ti_sysbios_BIOS_exitFunc__I
8002ec60   ti_sysbios_BIOS_registerRTSLock__I
8002ecc0   ti_sysbios_gates_GateAll_enter__E
8002ed20   ti_sysbios_gates_GateMutex_Instance_init__F
8002ed80   ti_sysbios_hal_Hwi_initStack
8002ede0   ti_sysbios_heaps_HeapBuf_Object__get__S
8002ee40   ti_sysbios_heaps_HeapMem_Object__get__S
8002eea0   ti_sysbios_knl_Clock_doTick__I
8002ef00   ti_sysbios_knl_Queue_Object__get__S
8002ef60   ti_sysbios_knl_Swi_Module_startup__F
8002efc0   ti_sysbios_knl_Swi_Object__get__S
8002f020   ti_sysbios_knl_Task_Object__get__S
8002f080   ti_sysbios_knl_Task_enter__I
8002f0e0   remove
8002f0e0   unlink
8002f140   xdc_runtime_GateNull_Object__create__S
8002f1a0   xdc_runtime_Memory_calloc__F
8002f200   xdc_runtime_Memory_valloc__F
8002f260   xdc_runtime_SysMin_Module_startup__F
8002f2c0   xdc_runtime_SysMin_exit__F
8002f320   xdc_runtime_SysMin_output__I
8002f380   xdc_runtime_System_aprintf_va__F
8002f380   xdc_runtime_System_avprintf__F
8002f3e0   xdc_runtime_System_printf_va__F
8002f3e0   xdc_runtime_System_vprintf__F
8002f440   xdc_runtime_Text_cordText__F
8002fba0   Create_Queue
8002fbe0   GOMP_loop_static_start
8002fc20   GOMP_parallel_start
8002fc60   Osal_cppiCsEnter
8002fca0   Osal_qmssBeginMemAccess
8002fce0   Osal_qmssCsEnter
8002fd20   Osal_qmssEndMemAccess
8002fd60   Qmss_getMemRegDescSize
8002fea0   __TI_data_synch_WB
8002fee0   __TI_data_synch_WBINV
8002ff20   __TI_resource_unlock
8002ff60   __c6xabi_isinf
8002ffe0   _args_main
80030020   ti_sysbios_family_c62_TaskSupport_buildTaskStack
80030060   ti_sysbios_family_xxx_Hwi_switchToIsrStack
800300a0   free
80030120   gomp_barrier_destroy
80030160   gomp_barrier_reinit
800301a0   gomp_end_task
800301e0   gomp_error
80030220   gomp_fatal
80030260   gomp_free
80030560   gomp_thread_create
80030620   initialize_critical
80030720   omp_set_num_threads
80030760   pthread_self
800307e0   srand
80030820   ti_omp_utils_HeapOMP_Handle__label__S
80030860   ti_omp_utils_HeapOMP_Instance_init__F
800308a0   ti_omp_utils_HeapOMP_Object__delete__S
800308e0   ti_omp_utils_HeapOMP_free__E
80030920   ti_omp_utils_SemaphoreMP_cbFxn__I
80030960   ti_omp_utils_SemaphoreMP_start__F
800309a0   ti_omp_utils_ThreadLocalStorage_switchFxn__F
800309e0   ti_omp_utils_ThreadLocal_createFxn__F
80030a20   ti_sdo_ipc_GateMP_Object__delete__S
80030a60   ti_sdo_ipc_GateMP_Params__init__S
80030aa0   ti_sdo_ipc_GateMP_RemoteCustom1Proxy_Object__create__S
80030ae0   ti_sdo_ipc_GateMP_RemoteCustom2Proxy_Object__create__S
80030b20   ti_sdo_ipc_GateMP_RemoteSystemProxy_Object__create__S
80030b60   ti_sdo_ipc_ListMP_Object__delete__S
80030ba0   ti_sdo_ipc_ListMP_Params__init__S
80030be0   ti_sdo_ipc_MessageQ_registerTransport__E
80030c20   ti_sdo_ipc_family_c647x_Interrupt_intClear__E
80030c60   ti_sdo_ipc_family_c647x_Interrupt_intSend__E
80030ca0   ti_sdo_ipc_gates_GateHWSem_Handle__label__S
80030ce0   ti_sdo_ipc_gates_GateHWSem_Object__delete__S
80030d20   ti_sdo_ipc_gates_GateHWSem_Params__init__S
80030d60   ti_sdo_ipc_gates_GateMPSupportNull_Handle__label__S
80030da0   ti_sdo_ipc_gates_GateMPSupportNull_Object__delete__S
80030de0   ti_sdo_ipc_gates_GateMPSupportNull_Params__init__S
80030e20   ti_sdo_ipc_gates_GatePeterson_Handle__label__S
80030e60   ti_sdo_ipc_gates_GatePeterson_Object__delete__S
80030ea0   ti_sdo_ipc_gates_GatePeterson_Params__init__S
80030ee0   ti_sdo_ipc_heaps_HeapMemMP_Handle__label__S
80030f20   ti_sdo_ipc_heaps_HeapMemMP_Object__delete__S
80030f60   ti_sdo_ipc_heaps_HeapMemMP_Params__init__S
80030fa0   ti_sdo_ipc_notifyDrivers_NotifyDriverShm_Handle__label__S
80030fe0   ti_sdo_ipc_notifyDrivers_NotifyDriverShm_InterruptProxy_intRegister__E
80031020   ti_sdo_ipc_notifyDrivers_NotifyDriverShm_Object__delete__S
80031060   ti_sdo_ipc_notifyDrivers_NotifyDriverShm_Params__init__S
800310a0   ti_sdo_ipc_notifyDrivers_NotifyDriverShm_disable__E
800310e0   ti_sdo_ipc_notifyDrivers_NotifyDriverShm_enable__E
80031120   ti_sdo_ipc_nsremote_NameServerRemoteNotify_Handle__label__S
80031160   ti_sdo_ipc_nsremote_NameServerRemoteNotify_Object__delete__S
800311a0   ti_sdo_ipc_nsremote_NameServerRemoteNotify_Object__first__S
800311e0   ti_sdo_ipc_nsremote_NameServerRemoteNotify_Object__next__S
80031220   ti_sdo_ipc_nsremote_NameServerRemoteNotify_Params__init__S
80031260   ti_sdo_ipc_nsremote_NameServerRemoteNotify_get__E
800312a0   ti_sdo_ipc_nsremote_NameServerRemoteNotify_sharedMemReq__E
800312e0   ti_sdo_ipc_transports_TransportShm_Handle__label__S
80031320   ti_sdo_ipc_transports_TransportShm_Object__delete__S
80031360   ti_sdo_ipc_transports_TransportShm_Params__init__S
800313a0   ti_sdo_utils_List_Object__destruct__S
800313e0   ti_sdo_utils_NameServer_Module__startupDone__F
80031420   ti_sdo_utils_NameServer_Object__first__S
80031460   ti_sdo_utils_NameServer_Object__next__S
800314a0   ti_sysbios_BIOS_startFunc__I
800314e0   ti_sysbios_BIOS_start__E
80031520   ti_sysbios_family_c64p_Hwi_Module__startupDone__F
80031560   ti_sysbios_family_c64p_Hwi_Object__delete__S
800315a0   ti_sysbios_family_c64p_Hwi_Params__init__S
800315e0   ti_sysbios_family_c64p_Hwi_disableInterrupt__E
80031620   ti_sysbios_family_c64p_Hwi_enableInterrupt__E
80031660   ti_sysbios_gates_GateAll_Handle__label__S
800316a0   ti_sysbios_gates_GateAll_Object__delete__S
800316e0   ti_sysbios_gates_GateHwi_Handle__label__S
80031720   ti_sysbios_gates_GateHwi_Object__delete__S
80031760   ti_sysbios_gates_GateMutexPri_Handle__label__S
800317a0   ti_sysbios_gates_GateMutexPri_Instance_finalize__F
800317e0   ti_sysbios_gates_GateMutexPri_Instance_init__F
80031820   ti_sysbios_gates_GateMutexPri_Object__delete__S
80031860   ti_sysbios_gates_GateMutexPri_Object__destruct__S
800318a0   ti_sysbios_gates_GateMutex_Handle__label__S
800318e0   ti_sysbios_gates_GateMutex_Instance_finalize__F
80031920   ti_sysbios_gates_GateMutex_Object__delete__S
80031960   ti_sysbios_gates_GateMutex_leave__E
800319a0   ti_sysbios_gates_GateSwi_Handle__label__S
800319e0   ti_sysbios_gates_GateSwi_Object__delete__S
80031a20   ti_sysbios_hal_Cache_CacheProxy_inv__E
80031a20   ti_sysbios_hal_Cache_inv__E
80031a60   ti_sysbios_hal_Cache_CacheProxy_wbInv__E
80031a60   ti_sysbios_hal_Cache_wbInv__E
80031aa0   ti_sysbios_hal_Timer_Module__startupDone__F
80031ae0   ti_sysbios_heaps_HeapMem_Handle__label__S
80031b20   ti_sysbios_heaps_HeapMem_Object__delete__S
80031b60   ti_sysbios_knl_Clock_Object__destruct__S
80031ba0   ti_sysbios_knl_Clock_Params__init__S
80031be0   ti_sysbios_knl_Queue_Object__destruct__S
80031c20   ti_sysbios_knl_Semaphore_Instance_finalize__F
80031c60   ti_sysbios_knl_Semaphore_Object__destruct__S
80031ca0   ti_sysbios_knl_Semaphore_Params__init__S
80031ce0   ti_sysbios_knl_Swi_Object__destruct__S
80031d20   ti_sysbios_knl_Swi_Params__init__S
80031d60   ti_sysbios_knl_Task_Object__delete__S
80031da0   ti_sysbios_knl_Task_Object__first__S
80031de0   ti_sysbios_knl_Task_Object__next__S
80031e20   ti_sysbios_knl_Task_Params__init__S
80031ea0   ti_sysbios_knl_Task_unblock__E
80031ee0   ti_sysbios_timers_timer64_Timer_Module__startupDone__F
80031f20   ti_sysbios_xdcruntime_GateThreadSupport_Instance_finalize__F
80031f60   ti_sysbios_xdcruntime_GateThreadSupport_Instance_init__F
80031fa0   ti_sysbios_xdcruntime_GateThreadSupport_Object__delete__S
80031fe0   ti_sysbios_xdcruntime_GateThreadSupport_enter__F
80032020   ti_sysbios_xdcruntime_GateThreadSupport_leave__F
80032060   time
800320a0   xdc_runtime_Error_check__F
800320e0   xdc_runtime_Error_init__F
80032120   xdc_runtime_Error_raiseX__E
80032160   xdc_runtime_GateNull_Handle__label__S
800321a0   xdc_runtime_GateNull_Object__delete__S
800321e0   xdc_runtime_Gate_leaveSystem__F
800322a0   xdc_runtime_Memory_free__F
800322e0   xdc_runtime_Memory_valloc__E
80032320   xdc_runtime_Registry_findById__F
80032360   xdc_runtime_Startup_exec__I
800323a0   xdc_runtime_System_abort__F
800323e0   xdc_runtime_System_aprintf__E
80032420   xdc_runtime_System_printf__E
80032460   xdc_runtime_Text_ropeText__F
800324a0   xdc_runtime_Text_visitRope__I
800324e0   xdc_runtime_knl_GateThread_Handle__label__S
80032520   xdc_runtime_knl_GateThread_Instance_finalize__F
80032560   xdc_runtime_knl_GateThread_Instance_init__F
800325a0   xdc_runtime_knl_GateThread_Object__delete__S
800325e0   xdc_runtime_knl_GateThread_Proxy_Object__create__S
80032680   GOMP_loop_end
800326a0   GOMP_loop_static_next
800326c0   GateMP_getDefaultRemote
800326e0   MultiProc_getBaseIdOfCluster
80032700   MultiProc_getNumProcsInCluster
80032720   MultiProc_self
80032740   Osal_cppiBeginMemAccess
80032760   Osal_cppiCsExit
80032780   Osal_cppiEndMemAccess
800327a0   Osal_qmssCsExit
800327c0   Qmss_getQueueNumber
800327e0   Qmss_start
80032800   Queue_empty
80032820   __TI_data_synch_INV
80032840   __c6xabi_errno_addr
80032860   __c6xabi_negll
80032880   __cxa_atexit
800328a0   __cxa_ia64_exit
800328c0   __xdc__init
800328e0   _nop
80032980   _register_lock
800329a0   _register_unlock
800329c0   _system_pre_init
800329e0   ti_sysbios_family_c62_TaskSupport_glue
80032a00   ti_sysbios_family_xxx_Hwi_switchToTaskStack
80032a20   C$$EXIT
80032a20   abort
80032a40   atexit
80032a60   __TI_decompress_none
80032a80   __TI_decompress_rle24
80032ac0   getenv
80032b60   gomp_dynamic_max_threads
80032bc0   gomp_init_affinity
80032be0   gomp_init_num_threads
80032c00   gomp_init_thread_affinity
80032fa0   gomp_team_barrier_wait
800331e0   gomp_thread_getspecific
80033200   gomp_thread_key_create
80033220   gomp_thread_key_delete
80033240   gomp_thread_setspecific
80033260   isspace
800332c0   omp_get_thread_num
800332e0   pthread_equal
80033300   ti_omp_utils_HeapOMP_getStats__E
80033320   ti_omp_utils_HeapOMP_isBlocking__E
80033340   ti_omp_utils_HeapOMP_isBlocking__F
80033360   ti_omp_utils_OpenMP_exitThread__E
80033380   ti_omp_utils_OpenMP_mainTaskExit__E
800333a0   ti_omp_utils_OpenMP_useSharedHeap__E
800333c0   ti_omp_utils_OpenMP_useSharedHeap__F
800333e0   ti_omp_utils_SemaphoreMP_start__E
80033400   ti_omp_utils_ThreadLocalStorage_registerFxn__F
80033420   ti_omp_utils_ThreadLocal_registerFxn__F
80033440   ti_sdo_ipc_GateMP_RemoteCustom1Proxy_Object__delete__S
80033460   ti_sdo_ipc_GateMP_RemoteCustom1Proxy_Params__init__S
80033480   ti_sdo_ipc_GateMP_RemoteCustom1Proxy_Proxy__abstract__S
800334a0   ti_sdo_ipc_GateMP_RemoteCustom1Proxy_Proxy__delegate__S
800334c0   ti_sdo_ipc_GateMP_RemoteCustom1Proxy_getReservedMask__E
800334e0   ti_sdo_ipc_GateMP_RemoteCustom1Proxy_sharedMemReq__E
80033500   ti_sdo_ipc_GateMP_RemoteCustom2Proxy_Object__delete__S
80033520   ti_sdo_ipc_GateMP_RemoteCustom2Proxy_Params__init__S
80033540   ti_sdo_ipc_GateMP_RemoteCustom2Proxy_Proxy__abstract__S
80033560   ti_sdo_ipc_GateMP_RemoteCustom2Proxy_Proxy__delegate__S
80033580   ti_sdo_ipc_GateMP_RemoteCustom2Proxy_getReservedMask__E
800335a0   ti_sdo_ipc_GateMP_RemoteCustom2Proxy_sharedMemReq__E
800335c0   ti_sdo_ipc_GateMP_RemoteSystemProxy_Object__delete__S
800335e0   ti_sdo_ipc_GateMP_RemoteSystemProxy_Params__init__S
80033600   ti_sdo_ipc_GateMP_RemoteSystemProxy_Proxy__abstract__S
80033620   ti_sdo_ipc_GateMP_RemoteSystemProxy_Proxy__delegate__S
80033640   ti_sdo_ipc_GateMP_RemoteSystemProxy_getReservedMask__E
80033660   ti_sdo_ipc_GateMP_RemoteSystemProxy_sharedMemReq__E
80033680   ti_sdo_ipc_GateMP_attach__E
800336a0   ti_sdo_ipc_GateMP_getRegion0ReservedSize__E
800336c0   ti_sdo_ipc_GateMP_getSharedAddr__E
800336e0   ti_sdo_ipc_GateMP_getSharedAddr__F
80033700   ti_sdo_ipc_GateMP_start__E
80033720   ti_sdo_ipc_MessageQ_Module_startup__E
80033740   ti_sdo_ipc_MessageQ_SetupTransportProxy_attach__E
80033760   ti_sdo_ipc_MessageQ_SetupTransportProxy_isRegistered__E
80033780   ti_sdo_ipc_MessageQ_SetupTransportProxy_sharedMemReq__E
800337a0   ti_sdo_ipc_MessageQ_unregisterTransport__E
800337c0   ti_sdo_ipc_Notify_Module_GateProxy_enter__E
800337e0   ti_sdo_ipc_Notify_Module_GateProxy_leave__E
80033800   ti_sdo_ipc_Notify_Module_startup__E
80033820   ti_sdo_ipc_Notify_SetupProxy_attach__E
80033840   ti_sdo_ipc_Notify_SetupProxy_numIntLines__E
80033860   ti_sdo_ipc_Notify_SetupProxy_sharedMemReq__E
80033880   ti_sdo_ipc_Notify_exec__E
800338a0   ti_sdo_ipc_SharedRegion_attach__E
800338c0   ti_sdo_ipc_SharedRegion_clearReservedMemory__E
800338e0   ti_sdo_ipc_SharedRegion_reserveMemory__E
80033900   ti_sdo_ipc_SharedRegion_start__E
80033920   ti_sdo_ipc_family_c647x_Interrupt_Module_startup__E
80033940   ti_sdo_ipc_family_c647x_Interrupt_intDisable__E
80033960   ti_sdo_ipc_family_c647x_Interrupt_intEnable__E
80033980   ti_sdo_ipc_family_c647x_NotifySetup_numIntLines__E
800339a0   ti_sdo_ipc_gates_GateHWSem_Module_startup__E
800339c0   ti_sdo_ipc_gates_GateHWSem_getReservedMask__E
800339e0   ti_sdo_ipc_gates_GateHWSem_query__E
80033a00   ti_sdo_ipc_gates_GateHWSem_query__F
80033a20   ti_sdo_ipc_gates_GateHWSem_sharedMemReq__E
80033a40   ti_sdo_ipc_gates_GateMPSupportNull_Instance_init__F
80033a60   ti_sdo_ipc_gates_GateMPSupportNull_getReservedMask__E
80033a80   ti_sdo_ipc_gates_GateMPSupportNull_query__E
80033aa0   ti_sdo_ipc_gates_GateMPSupportNull_query__F
80033ac0   ti_sdo_ipc_gates_GateMPSupportNull_sharedMemReq__E
80033ae0   ti_sdo_ipc_gates_GatePeterson_getReservedMask__E
80033b00   ti_sdo_ipc_gates_GatePeterson_query__E
80033b20   ti_sdo_ipc_gates_GatePeterson_query__F
80033b40   ti_sdo_ipc_heaps_HeapMemMP_isBlocking__E
80033b60   ti_sdo_ipc_heaps_HeapMemMP_isBlocking__F
80033b80   ti_sdo_ipc_notifyDrivers_NotifyDriverShm_InterruptProxy_intClear__E
80033ba0   ti_sdo_ipc_notifyDrivers_NotifyDriverShm_InterruptProxy_intDisable__E
80033bc0   ti_sdo_ipc_notifyDrivers_NotifyDriverShm_InterruptProxy_intEnable__E
80033be0   ti_sdo_ipc_notifyDrivers_NotifyDriverShm_InterruptProxy_intSend__E
80033c00   ti_sdo_ipc_notifyDrivers_NotifyDriverShm_InterruptProxy_intUnregister__E
80033c20   ti_sdo_ipc_notifyDrivers_NotifyDriverShm_sharedMemReq__E
80033c40   ti_sdo_ipc_nsremote_NameServerRemoteNotify_cbFxn__I
80033c60   ti_sdo_ipc_transports_TransportShmSetup_isRegistered__E
80033c80   ti_sdo_ipc_transports_TransportShm_control__E
80033ca0   ti_sdo_ipc_transports_TransportShm_getStatus__E
80033cc0   ti_sdo_ipc_transports_TransportShm_notifyFxn__I
80033ce0   ti_sdo_ipc_transports_TransportShm_openByAddr__E
80033d00   ti_sdo_ipc_transports_TransportShm_setErrFxn__E
80033d20   ti_sdo_ipc_transports_TransportShm_setErrFxn__F
80033d40   ti_sdo_ipc_transports_TransportShm_sharedMemReq__E
80033d60   ti_sdo_utils_List_Instance_init__F
80033d80   ti_sdo_utils_MultiProc_getClusterId__E
80033da0   ti_sdo_utils_MultiProc_getClusterId__F
80033dc0   ti_sdo_utils_NameServer_Module__startupDone__S
80033de0   ti_sdo_utils_NameServer_Module_startup__E
80033e00   ti_sdo_utils_NameServer_SetupProxy_attach__E
80033e20   ti_sdo_utils_NameServer_SetupProxy_sharedMemReq__E
80033e40   ti_sysbios_BIOS_RtsGateProxy_enter__E
80033e60   ti_sysbios_BIOS_RtsGateProxy_leave__E
80033e80   ti_sysbios_BIOS_getThreadType__E
80033ea0   ti_sysbios_BIOS_setThreadType__E
80033ec0   ti_sysbios_family_c62_TaskSupport_Module__startupDone__S
80033ee0   ti_sysbios_family_c62_TaskSupport_checkStack__E
80033f00   ti_sysbios_family_c62_TaskSupport_getStackAlignment__E
80033f20   ti_sysbios_family_c64p_Exception_Module_startup__E
80033f40   ti_sysbios_family_c64p_Hwi_Module__startupDone__S
80033f60   ti_sysbios_family_c64p_Hwi_Module_startup__E
80033f80   ti_sysbios_family_c64p_Hwi_clearInterrupt__E
80033fa0   ti_sysbios_family_c64p_Hwi_getHandle__E
80033fc0   ti_sysbios_family_c64p_Hwi_startup__E
80033fe0   ti_sysbios_family_c64p_Hwi_switchFromBootStack__E
80034000   ti_sysbios_family_c64p_Hwi_unPluggedInterrupt__I
80034020   ti_sysbios_family_c64p_TimestampProvider_Module_startup__E
80034040   ti_sysbios_family_c64p_TimestampProvider_Module_startup__F
80034060   ti_sysbios_family_c64p_TimestampProvider_get64__E
80034080   ti_sysbios_family_c64p_tci6488_TimerSupport_enable__E
800340a0   ti_sysbios_family_c66_Cache_Module_startup__E
800340c0   ti_sysbios_family_c66_Cache_inv__E
800340e0   ti_sysbios_family_c66_Cache_wbInv__E
80034100   ti_sysbios_gates_GateAll_Instance_init__F
80034120   ti_sysbios_gates_GateAll_query__E
80034140   ti_sysbios_gates_GateAll_query__F
80034160   ti_sysbios_gates_GateHwi_Instance_init__F
80034180   ti_sysbios_gates_GateHwi_enter__E
800341a0   ti_sysbios_gates_GateHwi_leave__E
800341c0   ti_sysbios_gates_GateHwi_query__E
800341e0   ti_sysbios_gates_GateHwi_query__F
80034200   ti_sysbios_gates_GateMutexPri_query__E
80034200   ti_sysbios_xdcruntime_GateProcessSupport_query__F
80034200   ti_sysbios_xdcruntime_GateThreadSupport_query__F
80034220   ti_sysbios_gates_GateMutexPri_query__F
80034240   ti_sysbios_gates_GateMutex_query__E
80034260   ti_sysbios_gates_GateMutex_query__F
80034280   ti_sysbios_gates_GateSwi_Instance_init__F
800342a0   ti_sysbios_gates_GateSwi_query__E
800342c0   ti_sysbios_gates_GateSwi_query__F
800342e0   ti_sysbios_hal_Hwi_HwiProxy_Module__startupDone__S
80034300   ti_sysbios_hal_Hwi_HwiProxy_clearInterrupt__E
80034300   ti_sysbios_hal_Hwi_clearInterrupt__E
80034320   ti_sysbios_hal_Hwi_HwiProxy_disableInterrupt__E
80034320   ti_sysbios_hal_Hwi_disableInterrupt__E
80034340   ti_sysbios_hal_Hwi_HwiProxy_enableInterrupt__E
80034340   ti_sysbios_hal_Hwi_enableInterrupt__E
80034360   ti_sysbios_hal_Hwi_HwiProxy_startup__E
80034360   ti_sysbios_hal_Hwi_startup__E
80034380   ti_sysbios_hal_Hwi_HwiProxy_switchFromBootStack__E
80034380   ti_sysbios_hal_Hwi_switchFromBootStack__E
800343a0   ti_sysbios_hal_Hwi_Module_startup__E
800343c0   ti_sysbios_hal_Hwi_Module_startup__F
800343e0   ti_sysbios_hal_Timer_Module__startupDone__S
80034400   ti_sysbios_hal_Timer_Module_startup__E
80034420   ti_sysbios_hal_Timer_Module_startup__F
80034440   ti_sysbios_hal_Timer_TimerProxy_Module__startupDone__S
80034460   ti_sysbios_hal_Timer_TimerProxy_getExpiredCounts__E
80034480   ti_sysbios_hal_Timer_TimerProxy_getPeriod__E
800344a0   ti_sysbios_hal_Timer_TimerProxy_setNextTick__E
800344c0   ti_sysbios_hal_Timer_TimerProxy_startup__E
800344c0   ti_sysbios_hal_Timer_startup__E
800344e0   ti_sysbios_heaps_HeapBuf_Module_startup__E
80034500   ti_sysbios_heaps_HeapMem_Module_GateProxy_enter__E
80034520   ti_sysbios_heaps_HeapMem_Module_GateProxy_leave__E
80034540   ti_sysbios_heaps_HeapMem_Module_GateProxy_query__E
80034560   ti_sysbios_heaps_HeapMem_isBlocking__E
800345a0   ti_sysbios_knl_Clock_Module_startup__E
800345c0   ti_sysbios_knl_Idle_loop__E
800345e0   ti_sysbios_knl_Queue_Instance_init__F
80034600   ti_sysbios_knl_Queue_empty__E
80034620   ti_sysbios_knl_Swi_Module_startup__E
80034640   ti_sysbios_knl_Swi_disable__E
80034660   ti_sysbios_knl_Task_Module_startup__E
800346e0   ti_sysbios_knl_Task_SupportProxy_Module__startupDone__S
80034700   ti_sysbios_knl_Task_SupportProxy_checkStack__E
80034720   ti_sysbios_knl_Task_SupportProxy_getStackAlignment__E
80034740   ti_sysbios_knl_Task_SupportProxy_start__E
80034760   ti_sysbios_knl_Task_SupportProxy_swap__E
80034780   ti_sysbios_knl_Task_disable__E
800347a0   ti_sysbios_knl_Task_getHookContext__E
800347c0   ti_sysbios_knl_Task_getPri__E
800347e0   ti_sysbios_knl_Task_self__E
80034800   ti_sysbios_knl_Task_setHookContext__E
80034820   ti_sysbios_knl_Task_startup__E
80034840   ti_sysbios_timers_timer64_Timer_Module__startupDone__S
80034860   ti_sysbios_timers_timer64_Timer_Module_startup__E
80034880   ti_sysbios_timers_timer64_Timer_TimerSupportProxy_enable__E
800348a0   ti_sysbios_timers_timer64_Timer_setNextTick__E
800348c0   ti_sysbios_xdcruntime_GateThreadSupport_enter__E
800348e0   ti_sysbios_xdcruntime_GateThreadSupport_leave__E
80034900   ti_sysbios_xdcruntime_GateThreadSupport_query__E
80034920   __TI_tls_block_size
80034940   tolower
80034980   xdc_runtime_Error_check__E
800349a0   xdc_runtime_Error_init__E
800349c0   xdc_runtime_Error_print__E
800349e0   xdc_runtime_GateNull_enter__E
80034a00   xdc_runtime_GateNull_enter__F
80034a20   xdc_runtime_GateNull_leave__E
80034a40   xdc_runtime_GateNull_leave__F
80034a60   xdc_runtime_GateNull_query__E
80034a80   xdc_runtime_GateNull_query__F
80034aa0   xdc_runtime_Gate_enterSystem__E
80034ac0   xdc_runtime_Gate_enterSystem__F
80034ae0   xdc_runtime_Gate_leaveSystem__E
80034b00   xdc_runtime_Memory_HeapProxy_alloc__E
80034b20   xdc_runtime_Memory_HeapProxy_free__E
80034b40   xdc_runtime_Memory_alloc__E
80034b60   xdc_runtime_Memory_calloc__E
80034b80   xdc_runtime_Memory_free__E
80034ba0   xdc_runtime_Memory_getMaxDefaultTypeAlign__E
80034bc0   xdc_runtime_Memory_getMaxDefaultTypeAlign__F
80034be0   xdc_runtime_Registry_findById__E
80034c00   xdc_runtime_Startup_Module__startupDone__S
80034c20   xdc_runtime_Startup_exec__E
80034c40   xdc_runtime_Startup_reset__I
80034c60   xdc_runtime_Startup_rtsDone__E
80034c80   xdc_runtime_Startup_rtsDone__F
80034ca0   xdc_runtime_SysMin_Module_startup__E
80034cc0   xdc_runtime_SysMin_abort__E
80034ce0   xdc_runtime_SysMin_exit__E
80034d00   xdc_runtime_SysMin_putch__E
80034d20   xdc_runtime_SysMin_ready__E
80034d40   xdc_runtime_SysMin_ready__F
80034d60   xdc_runtime_System_Module_GateProxy_enter__E
80034d80   xdc_runtime_System_Module_GateProxy_leave__E
80034da0   xdc_runtime_System_Module_startup__E
80034dc0   xdc_runtime_System_Module_startup__F
80034de0   xdc_runtime_System_SupportProxy_abort__E
80034e00   xdc_runtime_System_SupportProxy_exit__E
80034e20   xdc_runtime_System_SupportProxy_putch__E
80034e40   xdc_runtime_System_SupportProxy_ready__E
80034e60   xdc_runtime_System_abort__E
80034e80   xdc_runtime_System_atexit__E
80034ea0   xdc_runtime_System_exit__E
80034ec0   xdc_runtime_System_exit__F
80034ee0   xdc_runtime_System_lastFxn__I
80034f00   xdc_runtime_System_vsprintf__E
80034f20   xdc_runtime_System_sprintf_va__F
80034f20   xdc_runtime_System_vsprintf__F
80034f40   xdc_runtime_Text_cordText__E
80034f60   xdc_runtime_Text_putSite__E
80034f80   xdc_runtime_Text_ropeText__E
80034fa0   xdc_runtime_Timestamp_SupportProxy_get64__E
80034fa0   xdc_runtime_Timestamp_get64__F
80034fc0   xdc_runtime_Timestamp_get64__E
80034fe0   xdc_runtime_knl_GateThread_Module__startupDone__S
80035000   xdc_runtime_knl_GateThread_Proxy_Object__delete__S
80035020   xdc_runtime_knl_GateThread_Proxy_enter__E
80035040   xdc_runtime_knl_GateThread_Proxy_leave__E
80035060   xdc_runtime_knl_GateThread_Proxy_query__E
80035060   xdc_runtime_knl_GateThread_query__F
80035080   xdc_runtime_knl_GateThread_enter__E
800350a0   xdc_runtime_knl_GateThread_enter__F
800350c0   xdc_runtime_knl_GateThread_leave__E
800350e0   xdc_runtime_knl_GateThread_leave__F
80035100   xdc_runtime_knl_GateThread_query__E
80035270   xdc_runtime_Text_charTab__A
80037ff8   ti_sysbios_family_c66_Cache_marvalues__C
80038850   xdc_runtime_Text_nodeTab__A
800389f0   _ctypes_
80038ea4   ti_omp_utils_OpenMP_baseIdOfCluster__C
80038ea8   ti_sysbios_knl_Task_hooks__A
80038ef0   xdc_runtime_Startup_sfxnTab__A
80038f78   ti_sysbios_knl_Task_Object__PARAMS__C
80038fb4   ti_sdo_ipc_notifyDrivers_NotifyDriverShm_Module__FXNS__C
80038fec   ti_sdo_ipc_GateMP_Object__PARAMS__C
80039020   ti_sdo_ipc_notifyDrivers_NotifyDriverShm_Object__PARAMS__C
80039054   ti_sdo_ipc_heaps_HeapMemMP_Object__PARAMS__C
80039084   ti_sysbios_family_c64p_Hwi_Object__PARAMS__C
800390e0   ti_sdo_ipc_ListMP_Object__PARAMS__C
8003910c   ti_sdo_ipc_gates_GateHWSem_Module__FXNS__C
80039138   ti_sdo_ipc_gates_GateMPSupportNull_Module__FXNS__C
80039164   ti_sdo_ipc_gates_GatePeterson_Module__FXNS__C
800391b8   ti_omp_utils_HeapOMP_Module__FXNS__C
800391e0   ti_sdo_ipc_heaps_HeapMemMP_Module__FXNS__C
80039208   ti_sdo_ipc_nsremote_NameServerRemoteNotify_Module__FXNS__C
80039230   ti_sdo_ipc_transports_TransportShm_Module__FXNS__C
80039258   ti_sdo_ipc_transports_TransportShm_Object__PARAMS__C
80039280   ti_sysbios_heaps_HeapMem_Module__FXNS__C
800392a8   ti_sysbios_knl_Swi_Object__PARAMS__C
800392f4   ti_sdo_ipc_gates_GateHWSem_Object__PARAMS__C
80039318   ti_sdo_ipc_gates_GateMPSupportNull_Object__PARAMS__C
8003933c   ti_sdo_ipc_gates_GatePeterson_Object__PARAMS__C
80039360   ti_sysbios_gates_GateAll_Module__FXNS__C
80039384   ti_sysbios_gates_GateHwi_Module__FXNS__C
800393a8   ti_sysbios_gates_GateMutexPri_Module__FXNS__C
800393cc   ti_sysbios_gates_GateMutex_Module__FXNS__C
800393f0   ti_sysbios_gates_GateSwi_Module__FXNS__C
80039414   ti_sysbios_heaps_HeapMem_Object__PARAMS__C
80039438   ti_sysbios_knl_Clock_Object__PARAMS__C
8003945c   ti_sysbios_knl_Semaphore_Object__PARAMS__C
80039480   xdc_runtime_GateNull_Module__FXNS__C
800394a4   ti_omp_utils_OpenMP_cppiHwSem__C
800394a8   xdc_runtime_Startup_sfxnRts__A
800394cc   xdc_runtime_knl_GateThread_Module__FXNS__C
80039534   ti_omp_utils_HeapOMP_Object__DESC__C
80039554   ti_omp_utils_HeapOMP_Object__PARAMS__C
80039574   ti_sdo_ipc_GateMP_Object__DESC__C
80039594   ti_sdo_ipc_ListMP_Object__DESC__C
800395b4   ti_sdo_ipc_Notify_Object__DESC__C
800395d4   ti_sdo_ipc_gates_GateHWSem_Object__DESC__C
800395f4   ti_sdo_ipc_gates_GateMPSupportNull_Object__DESC__C
80039614   ti_sdo_ipc_gates_GatePeterson_Object__DESC__C
80039634   ti_sdo_ipc_heaps_HeapMemMP_Object__DESC__C
80039654   ti_sdo_ipc_notifyDrivers_NotifyDriverShm_Object__DESC__C
80039674   ti_sdo_ipc_nsremote_NameServerRemoteNotify_Object__DESC__C
80039694   ti_sdo_ipc_nsremote_NameServerRemoteNotify_Object__PARAMS__C
800396b4   ti_sdo_ipc_transports_TransportShm_Object__DESC__C
800396d4   ti_sdo_utils_List_Object__DESC__C
800396f4   ti_sysbios_family_c64p_Hwi_Object__DESC__C
80039714   ti_sysbios_gates_GateAll_Object__DESC__C
80039734   ti_sysbios_gates_GateHwi_Object__DESC__C
80039754   ti_sysbios_gates_GateMutexPri_Object__DESC__C
80039774   ti_sysbios_gates_GateMutex_Object__DESC__C
80039794   ti_sysbios_gates_GateSwi_Object__DESC__C
800397b4   ti_sysbios_heaps_HeapMem_Object__DESC__C
800397d4   ti_sysbios_knl_Clock_Object__DESC__C
800397f4   ti_sysbios_knl_Queue_Object__DESC__C
80039814   ti_sysbios_knl_Semaphore_Object__DESC__C
80039834   ti_sysbios_knl_Swi_Object__DESC__C
80039854   ti_sysbios_knl_Task_Object__DESC__C
80039874   ti_sysbios_xdcruntime_GateThreadSupport_Object__DESC__C
80039894   xdc_runtime_GateNull_Object__DESC__C
800398b4   xdc_runtime_knl_GateThread_Object__DESC__C
800398d4   ti_sdo_ipc_Notify_Object__PARAMS__C
800398ec   ti_sdo_utils_List_Object__PARAMS__C
80039904   ti_sysbios_gates_GateAll_Object__PARAMS__C
8003991c   ti_sysbios_gates_GateHwi_Object__PARAMS__C
80039934   ti_sysbios_gates_GateMutexPri_Object__PARAMS__C
8003994c   ti_sysbios_gates_GateMutex_Object__PARAMS__C
80039964   ti_sysbios_gates_GateSwi_Object__PARAMS__C
8003997c   ti_sysbios_knl_Queue_Object__PARAMS__C
80039994   ti_sysbios_xdcruntime_GateThreadSupport_Object__PARAMS__C
800399ac   xdc_runtime_GateNull_Object__PARAMS__C
800399c4   xdc_runtime_knl_GateThread_Object__PARAMS__C
800399dc   ti_omp_utils_OpenMP_masterFxn__C
800399f4   ti_omp_utils_OpenMP_mpaxIndex__C
800399f8   ti_sdo_ipc_family_c647x_MultiProcSetup_procMap__A
80039a14   ti_omp_utils_OpenMP_mpaxRaddr__C
80039a18   ti_sdo_ipc_Ipc_userFxns__A
80039a24   ti_sysbios_family_c66_Cache_initSize__C
80039a30   xdc_runtime_Startup_firstFxns__A
80039a44   ti_omp_utils_OpenMP_noncachedMsmcAlias__C
80039a48   ti_sysbios_knl_Idle_coreList__A
80039a50   ti_sysbios_knl_Idle_coreList__C
80039a58   ti_sysbios_knl_Idle_funcList__A
80039a60   ti_sysbios_knl_Idle_funcList__C
80039a68   ti_sysbios_knl_Task_hooks__C
80039a70   xdc_runtime_Startup_firstFxns__C
80039a78   xdc_runtime_Startup_lastFxns__A
80039a80   xdc_runtime_Startup_lastFxns__C
80039a88   ti_omp_utils_OpenMP_ompHwSem__C
80039a8c   ti_omp_utils_OpenMP_qmssDestQueueNum__C
80039a90   ti_omp_utils_OpenMP_qmssHwSem__C
80039a94   ti_omp_utils_OpenMP_qmssMemRegion__C
80039a98   ti_omp_utils_OpenMP_qmssStartIndex__C
80039a9c   ti_omp_utils_OpenMP_stackRegionId__C
80039aa0   ti_omp_utils_OpenMP_stackSize__C
80039aa4   ti_omp_utils_OpenMP_threadPriority__C
80039aa8   ti_omp_utils_SemaphoreMP_Module__diagsEnabled__C
80039aac   ti_omp_utils_SemaphoreMP_Module__diagsIncluded__C
80039ab0   ti_omp_utils_SemaphoreMP_Module__diagsMask__C
80039ab4   ti_omp_utils_SemaphoreMP_notifyEventId__C
80039ab8   ti_omp_utils_ThreadLocal_A_invalidContext__C
80039abc   ti_omp_utils_ThreadLocal_A_invalidKey__C
80039ac0   ti_omp_utils_ThreadLocal_Module__diagsEnabled__C
80039ac4   ti_omp_utils_ThreadLocal_Module__diagsIncluded__C
80039ac8   ti_omp_utils_ThreadLocal_Module__diagsMask__C
80039acc   ti_sdo_ipc_GateMP_A_invalidClose__C
80039ad0   ti_sdo_ipc_GateMP_A_invalidDelete__C
80039ad4   ti_sdo_ipc_GateMP_E_gateUnavailable__C
80039ad8   ti_sdo_ipc_GateMP_E_localGate__C
80039adc   ti_sdo_ipc_GateMP_LM_create__C
80039ae0   ti_sdo_ipc_GateMP_LM_delete__C
80039ae4   ti_sdo_ipc_GateMP_LM_enter__C
80039ae8   ti_sdo_ipc_GateMP_LM_leave__C
80039aec   ti_sdo_ipc_GateMP_LM_open__C
80039af0   ti_sdo_ipc_GateMP_Module__diagsEnabled__C
80039af4   ti_sdo_ipc_GateMP_Module__diagsIncluded__C
80039af8   ti_sdo_ipc_GateMP_Module__diagsMask__C
80039afc   ti_sdo_ipc_GateMP_Module__loggerFxn2__C
80039b00   ti_sdo_ipc_GateMP_Module__loggerFxn4__C
80039b04   ti_sdo_ipc_GateMP_Module__loggerObj__C
80039b08   ti_sdo_ipc_Ipc_A_addrNotCacheAligned__C
80039b0c   ti_sdo_ipc_Ipc_A_addrNotInSharedRegion__C
80039b10   ti_sdo_ipc_Ipc_A_internal__C
80039b14   ti_sdo_ipc_Ipc_A_invArgument__C
80039b18   ti_sdo_ipc_Ipc_A_invParam__C
80039b1c   ti_sdo_ipc_Ipc_A_nullArgument__C
80039b20   ti_sdo_ipc_Ipc_A_nullPointer__C
80039b24   ti_sdo_ipc_Ipc_E_internal__C
80039b28   ti_sdo_ipc_Ipc_E_nameFailed__C
80039b2c   ti_sdo_ipc_Ipc_E_versionMismatch__C
80039b30   ti_sdo_ipc_Ipc_Module__diagsEnabled__C
80039b34   ti_sdo_ipc_Ipc_Module__diagsIncluded__C
80039b38   ti_sdo_ipc_Ipc_Module__diagsMask__C
80039b3c   ti_sdo_ipc_Ipc_numUserFxns__C
80039b40   ti_sdo_ipc_Ipc_procSync__C
80039b44   ti_sdo_ipc_Ipc_userFxns__C
80039b48   ti_sdo_ipc_ListMP_Module__diagsEnabled__C
80039b4c   ti_sdo_ipc_ListMP_Module__diagsIncluded__C
80039b50   ti_sdo_ipc_ListMP_Module__diagsMask__C
80039b54   ti_sdo_ipc_MessageQ_A_invalidMsg__C
80039b58   ti_sdo_ipc_MessageQ_A_invalidObj__C
80039b5c   ti_sdo_ipc_MessageQ_A_invalidQueueId__C
80039b60   ti_sdo_ipc_MessageQ_A_procIdInvalid__C
80039b64   ti_sdo_ipc_MessageQ_A_unregisteredTransport__C
80039b68   ti_sdo_ipc_MessageQ_Instance_State_highList__O
80039b6c   ti_sdo_ipc_MessageQ_Instance_State_normalList__O
80039b70   ti_sdo_ipc_MessageQ_LM_putLocal__C
80039b74   ti_sdo_ipc_MessageQ_Module__diagsEnabled__C
80039b78   ti_sdo_ipc_MessageQ_Module__diagsIncluded__C
80039b7c   ti_sdo_ipc_MessageQ_Module__diagsMask__C
80039b80   ti_sdo_ipc_MessageQ_Module__loggerFxn4__C
80039b84   ti_sdo_ipc_MessageQ_Module__loggerObj__C
80039b88   ti_sdo_ipc_MessageQ_Object__count__C
80039b8c   ti_sdo_ipc_MessageQ_Object__table__C
80039b90   ti_sdo_ipc_Notify_A_alreadyRegistered__C
80039b94   ti_sdo_ipc_Notify_A_internal__C
80039b98   ti_sdo_ipc_Notify_A_invArgument__C
80039b9c   ti_sdo_ipc_Notify_A_notRegistered__C
80039ba0   ti_sdo_ipc_Notify_A_reservedEvent__C
80039ba4   ti_sdo_ipc_Notify_Module__diagsEnabled__C
80039ba8   ti_sdo_ipc_Notify_Module__diagsIncluded__C
80039bac   ti_sdo_ipc_Notify_Module__diagsMask__C
80039bb0   ti_sdo_ipc_Notify_Module__gateObj__C
80039bb4   ti_sdo_ipc_Notify_Object__heap__C
80039bb8   ti_sdo_ipc_Notify_numEvents__C
80039bbc   ti_sdo_ipc_Notify_sendEventPollCount__C
80039bc0   ti_sdo_ipc_SharedRegion_A_addrOutOfRange__C
80039bc4   ti_sdo_ipc_SharedRegion_A_alreadyExists__C
80039bc8   ti_sdo_ipc_SharedRegion_A_cacheLineSizeIsZero__C
80039bcc   ti_sdo_ipc_SharedRegion_A_idTooLarge__C
80039bd0   ti_sdo_ipc_SharedRegion_A_noHeap__C
80039bd4   ti_sdo_ipc_SharedRegion_A_overlap__C
80039bd8   ti_sdo_ipc_SharedRegion_A_region0Invalid__C
80039bdc   ti_sdo_ipc_SharedRegion_A_regionInvalid__C
80039be0   ti_sdo_ipc_SharedRegion_A_reserveTooMuch__C
80039be4   ti_sdo_ipc_SharedRegion_INVALIDSRPTR__C
80039be8   ti_sdo_ipc_SharedRegion_Module__diagsEnabled__C
80039bec   ti_sdo_ipc_SharedRegion_Module__diagsIncluded__C
80039bf0   ti_sdo_ipc_SharedRegion_Module__diagsMask__C
80039bf4   ti_sdo_ipc_SharedRegion_cacheLineSize__C
80039bf8   ti_sdo_ipc_SharedRegion_numOffsetBits__C
80039bfc   ti_sdo_ipc_SharedRegion_offsetMask__C
80039c00   ti_sdo_ipc_family_c647x_Interrupt_INTERDSPINT__C
80039c04   ti_sdo_ipc_family_c647x_Interrupt_IPCAR0__C
80039c08   ti_sdo_ipc_family_c647x_Interrupt_IPCGR0__C
80039c0c   ti_sdo_ipc_family_c647x_Interrupt_KICK0__C
80039c10   ti_sdo_ipc_family_c647x_Interrupt_KICK1__C
80039c14   ti_sdo_ipc_family_c647x_MultiProcSetup_procMap__C
80039c18   ti_sdo_ipc_family_c647x_NotifySetup_dspIntVectId__C
80039c1c   ti_sdo_ipc_gates_GateHWSem_A_invSemNum__C
80039c20   ti_sdo_ipc_gates_GateHWSem_Module__diagsEnabled__C
80039c24   ti_sdo_ipc_gates_GateHWSem_Module__diagsIncluded__C
80039c28   ti_sdo_ipc_gates_GateHWSem_Module__diagsMask__C
80039c2c   ti_sdo_ipc_gates_GateHWSem_baseAddr__C
80039c30   ti_sdo_ipc_gates_GateHWSem_numSems__C
80039c34   ti_sdo_ipc_gates_GateHWSem_reservedMaskArr__C
80039c38   ti_sdo_ipc_gates_GateHWSem_reservedMaskArr__A
80039c3c   ti_sdo_ipc_gates_GateMPSupportNull_A_invalidAction__C
80039c40   ti_sdo_ipc_gates_GateMPSupportNull_Module__diagsEnabled__C
80039c44   ti_sdo_ipc_gates_GateMPSupportNull_Module__diagsIncluded__C
80039c48   ti_sdo_ipc_gates_GateMPSupportNull_Module__diagsMask__C
80039c4c   ti_sdo_ipc_gates_GateMPSupportNull_action__C
80039c50   ti_sdo_ipc_gates_GatePeterson_E_gateRemotelyOpened__C
80039c54   ti_sdo_ipc_gates_GatePeterson_Module__diagsEnabled__C
80039c58   ti_sdo_ipc_gates_GatePeterson_Module__diagsIncluded__C
80039c5c   ti_sdo_ipc_gates_GatePeterson_Module__diagsMask__C
80039c60   ti_sdo_ipc_gates_GatePeterson_numInstances__C
80039c64   ti_sdo_ipc_heaps_HeapMemMP_A_align__C
80039c68   ti_sdo_ipc_heaps_HeapMemMP_A_heapSize__C
80039c6c   ti_sdo_ipc_heaps_HeapMemMP_A_invalidFree__C
80039c70   ti_sdo_ipc_heaps_HeapMemMP_A_zeroBlock__C
80039c74   ti_sdo_ipc_heaps_HeapMemMP_E_memory__C
80039c78   ti_sdo_ipc_heaps_HeapMemMP_Module__diagsEnabled__C
80039c7c   ti_sdo_ipc_heaps_HeapMemMP_Module__diagsIncluded__C
80039c80   ti_sdo_ipc_heaps_HeapMemMP_Module__diagsMask__C
80039c84   ti_sdo_ipc_interfaces_IGateMPSupport_Interface__BASE__C
80039c88   ti_sdo_ipc_interfaces_IMessageQTransport_Interface__BASE__C
80039c8c   ti_sdo_ipc_interfaces_INotifyDriver_Interface__BASE__C
80039c90   ti_sdo_ipc_notifyDrivers_NotifyDriverShm_Module__diagsEnabled__C
80039c94   ti_sdo_ipc_notifyDrivers_NotifyDriverShm_Module__diagsIncluded__C
80039c98   ti_sdo_ipc_notifyDrivers_NotifyDriverShm_Module__diagsMask__C
80039c9c   ti_sdo_ipc_notifyDrivers_NotifyDriverShm_Object__heap__C
80039ca0   ti_sdo_ipc_nsremote_NameServerRemoteNotify_A_invalidValueLen__C
80039ca4   ti_sdo_ipc_nsremote_NameServerRemoteNotify_Instance_State_semMultiBlock__O
80039ca8   ti_sdo_ipc_nsremote_NameServerRemoteNotify_Instance_State_semRemoteWait__O
80039cac   ti_sdo_ipc_nsremote_NameServerRemoteNotify_Instance_State_swiObj__O
80039cb0   ti_sdo_ipc_nsremote_NameServerRemoteNotify_Module__diagsEnabled__C
80039cb4   ti_sdo_ipc_nsremote_NameServerRemoteNotify_Module__diagsIncluded__C
80039cb8   ti_sdo_ipc_nsremote_NameServerRemoteNotify_Module__diagsMask__C
80039cbc   ti_sdo_ipc_nsremote_NameServerRemoteNotify_notifyEventId__C
80039cc0   ti_sdo_ipc_nsremote_NameServerRemoteNotify_timeout__C
80039cc4   ti_sdo_ipc_transports_TransportShmSetup_priority__C
80039cc8   ti_sdo_ipc_transports_TransportShm_Instance_State_swiObj__O
80039ccc   ti_sdo_ipc_transports_TransportShm_Module__diagsEnabled__C
80039cd0   ti_sdo_ipc_transports_TransportShm_Module__diagsIncluded__C
80039cd4   ti_sdo_ipc_transports_TransportShm_Module__diagsMask__C
80039cd8   ti_sdo_utils_INameServerRemote_Interface__BASE__C
80039cdc   ti_sdo_utils_List_Object__count__C
80039ce0   ti_sdo_utils_List_Object__table__C
80039ce4   ti_sdo_utils_MultiProc_A_invalidMultiProcId__C
80039ce8   ti_sdo_utils_MultiProc_Module__diagsEnabled__C
80039cec   ti_sdo_utils_MultiProc_Module__diagsIncluded__C
80039cf0   ti_sdo_utils_MultiProc_Module__diagsMask__C
80039cf4   ti_sdo_utils_NameServer_A_invArgument__C
80039cf8   ti_sdo_utils_NameServer_A_invalidLen__C
80039cfc   ti_sdo_utils_NameServer_E_entryExists__C
80039d00   ti_sdo_utils_NameServer_E_maxReached__C
80039d04   ti_sdo_utils_NameServer_Instance_State_freeList__O
80039d08   ti_sdo_utils_NameServer_Instance_State_nameList__O
80039d0c   ti_sdo_utils_NameServer_Module__diagsEnabled__C
80039d10   ti_sdo_utils_NameServer_Module__diagsIncluded__C
80039d14   ti_sdo_utils_NameServer_Module__diagsMask__C
80039d18   ti_sdo_utils_NameServer_Object__count__C
80039d1c   ti_sdo_utils_NameServer_Object__table__C
80039d20   ti_sysbios_BIOS_Module__diagsEnabled__C
80039d24   ti_sysbios_BIOS_Module__diagsIncluded__C
80039d28   ti_sysbios_BIOS_Module__diagsMask__C
80039d2c   ti_sysbios_BIOS_installedErrorHook__C
80039d30   ti_sysbios_family_c62_TaskSupport_stackAlignment__C
80039d34   ti_sysbios_family_c64p_Exception_E_exceptionMin__C
80039d38   ti_sysbios_family_c64p_Exception_exceptionHook__C
80039d3c   ti_sysbios_family_c64p_Exception_externalHook__C
80039d40   ti_sysbios_family_c64p_Exception_internalHook__C
80039d44   ti_sysbios_family_c64p_Exception_nmiHook__C
80039d48   ti_sysbios_family_c64p_Hwi_E_alreadyDefined__C
80039d4c   ti_sysbios_family_c64p_Hwi_E_handleNotFound__C
80039d50   ti_sysbios_family_c64p_Hwi_LD_end__C
80039d54   ti_sysbios_family_c64p_Hwi_LM_begin__C
80039d58   ti_sysbios_family_c64p_Hwi_Module__diagsEnabled__C
80039d5c   ti_sysbios_family_c64p_Hwi_Module__diagsIncluded__C
80039d60   ti_sysbios_family_c64p_Hwi_Module__diagsMask__C
80039d64   ti_sysbios_family_c64p_Hwi_Module__loggerFxn1__C
80039d68   ti_sysbios_family_c64p_Hwi_Module__loggerFxn8__C
80039d6c   ti_sysbios_family_c64p_Hwi_Module__loggerObj__C
80039d70   ti_sysbios_family_c66_Cache_atomicBlockSize__C
80039d74   ti_sysbios_gates_GateMutexPri_A_badContext__C
80039d78   ti_sysbios_gates_GateMutexPri_Instance_State_pendQ__O
80039d7c   ti_sysbios_gates_GateMutexPri_Module__diagsEnabled__C
80039d80   ti_sysbios_gates_GateMutexPri_Module__diagsIncluded__C
80039d84   ti_sysbios_gates_GateMutexPri_Module__diagsMask__C
80039d88   ti_sysbios_gates_GateMutex_A_badContext__C
80039d8c   ti_sysbios_gates_GateMutex_Instance_State_sem__O
80039d90   ti_sysbios_gates_GateMutex_Module__diagsEnabled__C
80039d94   ti_sysbios_gates_GateMutex_Module__diagsIncluded__C
80039d98   ti_sysbios_gates_GateMutex_Module__diagsMask__C
80039d9c   ti_sysbios_gates_GateSwi_A_badContext__C
80039da0   ti_sysbios_gates_GateSwi_Module__diagsEnabled__C
80039da4   ti_sysbios_gates_GateSwi_Module__diagsIncluded__C
80039da8   ti_sysbios_gates_GateSwi_Module__diagsMask__C
80039dac   ti_sysbios_hal_Hwi_E_stackOverflow__C
80039db0   ti_sysbios_heaps_HeapBuf_Instance_State_freeList__O
80039db4   ti_sysbios_heaps_HeapBuf_Object__count__C
80039db8   ti_sysbios_heaps_HeapBuf_Object__table__C
80039dbc   ti_sysbios_heaps_HeapBuf_numConstructedHeaps__C
80039dc0   ti_sysbios_heaps_HeapMem_A_align__C
80039dc4   ti_sysbios_heaps_HeapMem_A_heapSize__C
80039dc8   ti_sysbios_heaps_HeapMem_A_invalidFree__C
80039dcc   ti_sysbios_heaps_HeapMem_A_zeroBlock__C
80039dd0   ti_sysbios_heaps_HeapMem_E_memory__C
80039dd4   ti_sysbios_heaps_HeapMem_Module__diagsEnabled__C
80039dd8   ti_sysbios_heaps_HeapMem_Module__diagsIncluded__C
80039ddc   ti_sysbios_heaps_HeapMem_Module__diagsMask__C
80039de0   ti_sysbios_heaps_HeapMem_Module__gateObj__C
80039de4   ti_sysbios_heaps_HeapMem_Object__count__C
80039de8   ti_sysbios_heaps_HeapMem_Object__table__C
80039dec   ti_sysbios_heaps_HeapMem_reqAlign__C
80039df0   ti_sysbios_knl_Clock_A_badThreadType__C
80039df4   ti_sysbios_knl_Clock_LM_begin__C
80039df8   ti_sysbios_knl_Clock_LM_tick__C
80039dfc   ti_sysbios_knl_Clock_LW_delayed__C
80039e00   ti_sysbios_knl_Clock_Module_State_clockQ__O
80039e04   ti_sysbios_knl_Clock_Module__diagsEnabled__C
80039e08   ti_sysbios_knl_Clock_Module__diagsIncluded__C
80039e0c   ti_sysbios_knl_Clock_Module__diagsMask__C
80039e10   ti_sysbios_knl_Clock_Module__loggerFxn1__C
80039e14   ti_sysbios_knl_Clock_Module__loggerFxn2__C
80039e18   ti_sysbios_knl_Clock_Module__loggerObj__C
80039e1c   ti_sysbios_knl_Clock_tickMode__C
80039e20   ti_sysbios_knl_Clock_tickSource__C
80039e24   ti_sysbios_knl_Queue_Object__count__C
80039e28   ti_sysbios_knl_Queue_Object__table__C
80039e2c   ti_sysbios_knl_Semaphore_A_badContext__C
80039e30   ti_sysbios_knl_Semaphore_A_noEvents__C
80039e34   ti_sysbios_knl_Semaphore_A_overflow__C
80039e38   ti_sysbios_knl_Semaphore_Instance_State_pendQ__O
80039e3c   ti_sysbios_knl_Semaphore_LM_pend__C
80039e40   ti_sysbios_knl_Semaphore_LM_post__C
80039e44   ti_sysbios_knl_Semaphore_Module__diagsEnabled__C
80039e48   ti_sysbios_knl_Semaphore_Module__diagsIncluded__C
80039e4c   ti_sysbios_knl_Semaphore_Module__diagsMask__C
80039e50   ti_sysbios_knl_Semaphore_Module__loggerFxn2__C
80039e54   ti_sysbios_knl_Semaphore_Module__loggerFxn4__C
80039e58   ti_sysbios_knl_Semaphore_Module__loggerObj__C
80039e5c   ti_sysbios_knl_Swi_A_badPriority__C
80039e60   ti_sysbios_knl_Swi_LD_end__C
80039e64   ti_sysbios_knl_Swi_LM_begin__C
80039e68   ti_sysbios_knl_Swi_LM_post__C
80039e6c   ti_sysbios_knl_Swi_Module__diagsEnabled__C
80039e70   ti_sysbios_knl_Swi_Module__diagsIncluded__C
80039e74   ti_sysbios_knl_Swi_Module__diagsMask__C
80039e78   ti_sysbios_knl_Swi_Module__loggerFxn1__C
80039e7c   ti_sysbios_knl_Swi_Module__loggerFxn4__C
80039e80   ti_sysbios_knl_Swi_Module__loggerObj__C
80039e84   ti_sysbios_knl_Swi_Object__count__C
80039e88   ti_sysbios_knl_Swi_Object__table__C
80039e8c   ti_sysbios_knl_Task_A_badPriority__C
80039e90   ti_sysbios_knl_Task_A_badTaskState__C
80039e94   ti_sysbios_knl_Task_A_badThreadType__C
80039e98   ti_sysbios_knl_Task_A_noPendElem__C
80039e9c   ti_sysbios_knl_Task_E_deleteNotAllowed__C
80039ea0   ti_sysbios_knl_Task_E_spOutOfBounds__C
80039ea4   ti_sysbios_knl_Task_E_stackOverflow__C
80039ea8   ti_sysbios_knl_Task_LD_block__C
80039eac   ti_sysbios_knl_Task_LD_exit__C
80039eb0   ti_sysbios_knl_Task_LD_ready__C
80039eb4   ti_sysbios_knl_Task_LM_setPri__C
80039eb8   ti_sysbios_knl_Task_LM_switch__C
80039ebc   ti_sysbios_knl_Task_LM_yield__C
80039ec0   ti_sysbios_knl_Task_Module_State_inactiveQ__O
80039ec4   ti_sysbios_knl_Task_Module_State_terminatedQ__O
80039ec8   ti_sysbios_knl_Task_Module__diagsEnabled__C
80039ecc   ti_sysbios_knl_Task_Module__diagsIncluded__C
80039ed0   ti_sysbios_knl_Task_Module__diagsMask__C
80039ed4   ti_sysbios_knl_Task_Module__loggerFxn2__C
80039ed8   ti_sysbios_knl_Task_Module__loggerFxn4__C
80039edc   ti_sysbios_knl_Task_Module__loggerObj__C
80039ee0   ti_sysbios_knl_Task_Object__count__C
80039ee4   ti_sysbios_knl_Task_Object__heap__C
80039ee8   ti_sysbios_knl_Task_Object__table__C
80039eec   ti_sysbios_knl_Task_allBlockedFunc__C
80039ef0   ti_sysbios_knl_Task_defaultStackHeap__C
80039ef4   ti_sysbios_knl_Task_defaultStackSize__C
80039ef8   ti_sysbios_knl_Task_numConstructedTasks__C
80039efc   ti_sysbios_knl_Task_numPriorities__C
80039f00   ti_sysbios_timers_timer64_Timer_A_notAvailable__C
80039f04   ti_sysbios_timers_timer64_Timer_E_cannotSupport__C
80039f08   ti_sysbios_timers_timer64_Timer_Module__diagsEnabled__C
80039f0c   ti_sysbios_timers_timer64_Timer_Module__diagsIncluded__C
80039f10   ti_sysbios_timers_timer64_Timer_Module__diagsMask__C
80039f14   ti_sysbios_timers_timer64_Timer_anyMask__C
80039f18   ti_sysbios_timers_timer64_Timer_freqDivisor__C
80039f1c   ti_sysbios_timers_timer64_Timer_numLocalTimers__C
80039f20   ti_sysbios_timers_timer64_Timer_numTimerDevices__C
80039f24   ti_sysbios_xdcruntime_GateThreadSupport_Instance_State_gate__O
80039f28   xdc_runtime_Assert_E_assertFailed__C
80039f2c   xdc_runtime_Core_A_initializedParams__C
80039f30   xdc_runtime_Core_Module__diagsEnabled__C
80039f34   xdc_runtime_Core_Module__diagsIncluded__C
80039f38   xdc_runtime_Core_Module__diagsMask__C
80039f3c   xdc_runtime_Error_E_generic__C
80039f40   xdc_runtime_Error_E_memory__C
80039f44   xdc_runtime_Error_Module__diagsEnabled__C
80039f48   xdc_runtime_Error_Module__diagsIncluded__C
80039f4c   xdc_runtime_Error_Module__diagsMask__C
80039f50   xdc_runtime_Error_Module__loggerFxn8__C
80039f54   xdc_runtime_Error_Module__loggerObj__C
80039f58   xdc_runtime_Error_policy__C
80039f5c   xdc_runtime_Error_raiseHook__C
80039f60   xdc_runtime_IGateProvider_Interface__BASE__C
80039f64   xdc_runtime_IHeap_Interface__BASE__C
80039f68   xdc_runtime_IModule_Interface__BASE__C
80039f6c   xdc_runtime_Log_L_error__C
80039f70   xdc_runtime_Main_Module__diagsEnabled__C
80039f74   xdc_runtime_Main_Module__diagsIncluded__C
80039f78   xdc_runtime_Main_Module__diagsMask__C
80039f7c   xdc_runtime_Main_Module__loggerFxn4__C
80039f80   xdc_runtime_Main_Module__loggerObj__C
80039f84   xdc_runtime_Memory_defaultHeapInstance__C
80039f88   xdc_runtime_Startup_execImpl__C
80039f8c   xdc_runtime_Startup_maxPasses__C
80039f90   xdc_runtime_Startup_sfxnRts__C
80039f94   xdc_runtime_Startup_sfxnTab__C
80039f98   xdc_runtime_Startup_startModsFxn__C
80039f9c   xdc_runtime_SysMin_bufSize__C
80039fa0   xdc_runtime_SysMin_outputFunc__C
80039fa4   xdc_runtime_System_Module__gateObj__C
80039fa8   xdc_runtime_System_extendFxn__C
80039fac   xdc_runtime_System_maxAtexitHandlers__C
80039fb0   xdc_runtime_Text_charTab__C
80039fb4   xdc_runtime_Text_nameEmpty__C
80039fb8   xdc_runtime_Text_nameStatic__C
80039fbc   xdc_runtime_Text_nameUnknown__C
80039fc0   xdc_runtime_Text_nodeTab__C
80039fc4   xdc_runtime_Text_visitRopeFxn__C
80039fc8   ti_omp_utils_OpenMP_enableMemoryConsistency__C
80039fcc   ti_omp_utils_OpenMP_qmssInit__C
80039fd0   ti_omp_utils_SemaphoreMP_Module__id__C
80039fd4   ti_omp_utils_ThreadLocal_Module__id__C
80039fd8   ti_sdo_ipc_GateMP_Module__id__C
80039fdc   ti_sdo_ipc_GateMP_Module__loggerDefined__C
80039fe0   ti_sdo_ipc_Ipc_Module__id__C
80039fe4   ti_sdo_ipc_Ipc_generateSlaveDataForHost__C
80039fe8   ti_sdo_ipc_ListMP_Module__id__C
80039fec   ti_sdo_ipc_MessageQ_Module__id__C
80039ff0   ti_sdo_ipc_MessageQ_Module__loggerDefined__C
80039ff4   ti_sdo_ipc_Notify_Module__id__C
80039ff8   ti_sdo_ipc_Notify_numLines__C
80039ffc   ti_sdo_ipc_Notify_reservedEvents__C
8003a000   ti_sdo_ipc_SharedRegion_Module__id__C
8003a004   ti_sdo_ipc_SharedRegion_numEntries__C
8003a008   ti_sdo_ipc_SharedRegion_translate__C
8003a00c   ti_sdo_ipc_family_c647x_Interrupt_enableKick__C
8003a010   ti_sdo_ipc_gates_GateHWSem_Module__id__C
8003a014   ti_sdo_ipc_gates_GateMPSupportNull_Module__id__C
8003a018   ti_sdo_ipc_gates_GatePeterson_Module__id__C
8003a01c   ti_sdo_ipc_heaps_HeapMemMP_Module__id__C
8003a020   ti_sdo_ipc_notifyDrivers_NotifyDriverShm_Module__id__C
8003a024   ti_sdo_ipc_nsremote_NameServerRemoteNotify_Module__id__C
8003a028   ti_sdo_ipc_transports_TransportShm_Module__id__C
8003a02c   ti_sdo_ipc_transports_TransportShm_notifyEventId__C
8003a030   ti_sdo_utils_MultiProc_Module__id__C
8003a034   ti_sdo_utils_MultiProc_numProcessors__C
8003a038   ti_sdo_utils_MultiProc_numProcsInCluster__C
8003a03c   ti_sdo_utils_NameServer_Module__id__C
8003a040   ti_sysbios_BIOS_Module__id__C
8003a044   ti_sysbios_family_c64p_Exception_Module__id__C
8003a048   ti_sysbios_family_c64p_Hwi_Module__id__C
8003a04c   ti_sysbios_family_c64p_Hwi_Module__loggerDefined__C
8003a050   ti_sysbios_gates_GateMutexPri_Module__id__C
8003a054   ti_sysbios_gates_GateMutex_Module__id__C
8003a058   ti_sysbios_gates_GateSwi_Module__id__C
8003a05c   ti_sysbios_hal_Hwi_Module__id__C
8003a060   ti_sysbios_heaps_HeapMem_Module__id__C
8003a064   ti_sysbios_knl_Clock_Module__id__C
8003a068   ti_sysbios_knl_Clock_Module__loggerDefined__C
8003a06c   ti_sysbios_knl_Semaphore_Module__id__C
8003a070   ti_sysbios_knl_Semaphore_Module__loggerDefined__C
8003a074   ti_sysbios_knl_Swi_Module__id__C
8003a078   ti_sysbios_knl_Swi_Module__loggerDefined__C
8003a07c   ti_sysbios_knl_Task_Module__id__C
8003a080   ti_sysbios_knl_Task_Module__loggerDefined__C
8003a084   ti_sysbios_knl_Task_deleteTerminatedTasks__C
8003a088   ti_sysbios_knl_Task_initStackFlag__C
8003a08c   ti_sysbios_timers_timer64_Timer_Module__id__C
8003a090   ti_sysbios_timers_timer64_Timer_startupNeeded__C
8003a094   xdc_runtime_Core_Module__id__C
8003a098   xdc_runtime_Error_Module__loggerDefined__C
8003a09c   xdc_runtime_Error_maxDepth__C
8003a0a0   xdc_runtime_Main_Module__id__C
8003a0a4   xdc_runtime_Main_Module__loggerDefined__C
8003a0a8   xdc_runtime_Memory_Module__id__C
8003a0ac   xdc_runtime_SysMin_flushAtExit__C
8003a0b0   xdc_runtime_Text_charCnt__C
8003a0b4   xdc_runtime_Text_isLoaded__C
8003a0b8   xdc_runtime_Text_registryModsLastId__C
8003a0bc   xdc_runtime_Text_unnamedModsLastId__C
8003a170   __TI_table_binit
8003a170   __binit__
8003a170   binit
8003a400   ti_sysbios_family_c64p_Hwi0
8003a400   ti_sysbios_family_c64p_Hwi_int0
8003a420   ti_sysbios_family_c64p_Hwi_int1
8003a440   ti_sysbios_family_c64p_Hwi_int2
8003a460   ti_sysbios_family_c64p_Hwi_int3
8003a480   ti_sysbios_family_c64p_Hwi_int4
8003a4a0   ti_sysbios_family_c64p_Hwi_int5
8003a4c0   ti_sysbios_family_c64p_Hwi_int6
8003a4e0   ti_sysbios_family_c64p_Hwi_int7
8003a500   ti_sysbios_family_c64p_Hwi_int8
8003a520   ti_sysbios_family_c64p_Hwi_int9
8003a540   ti_sysbios_family_c64p_Hwi_int10
8003a560   ti_sysbios_family_c64p_Hwi_int11
8003a580   ti_sysbios_family_c64p_Hwi_int12
8003a5a0   ti_sysbios_family_c64p_Hwi_int13
8003a5c0   ti_sysbios_family_c64p_Hwi_int14
8003a5e0   ti_sysbios_family_c64p_Hwi_int15
8003a800   _c_int00
8003b1a0   __TI_Handler_Table_Base
8003b1ac   __TI_Handler_Table_Limit
8003b1e8   __TI_CINIT_Base
8003b230   __TI_CINIT_Limit
a0380000   linkingRAM0
a0390000   eventDesc
a0392000   cpdmaCfg
a0392018   qmssInitConfig
a0392044   memInfo
a039205c   descCfg
a039208c   cppiHnd
a0392090   completionQueHnd
a0392094   eventQueHnd
a0392098   EventFreeDescHnd
a039209c   releaseHnd
a03920a0   isQMSSInitialized
a03920a4   release
a03920a8   runCount
a03920ac   Ipc_sr0MemorySetup
a03920b0   gomp_thread_attr
a03920e8   gomp_thread_destructor
a03920ec   gomp_main_exit
a03920f0   gomp_tls_key
a0392100   queueFree
a0394100   qmssGObj
a03946d0   ThreadLocal_destructors
a0394710   gomp_global_icv
a0394720   gomp_max_active_levels_var
a0394724   gomp_thread_limit_var
a0394728   gomp_available_cpus
a039472c   gomp_managed_threads
a0394730   gomp_cpu_affinity
a0394734   gomp_cpu_affinity_len
a0394738   gomp_remaining_threads_count
a039473c   gomp_remaining_threads_lock
a0394740   gomp_spin_count_var
a0394748   gomp_throttled_spin_count_var
a0394750   SemaphoreMP_pendElemKey
a0394754   ThreadLocal_usedKeys
a0394758   __TI_STATIC_BASE
a0394758   qmssLObjIsValid
a0394760   omp_qmssGblCfgParams
a0394880   tenPowers
a03948a8   qmssLObj
ffffffff   __TI_pprof_out_hndl
ffffffff   __TI_prof_data_size
ffffffff   __TI_prof_data_start
ffffffff   __c_args__
UNDEFED    __TI_INITARRAY_Base
UNDEFED    __TI_INITARRAY_Limit
UNDEFED    __TI_TLS_BLOCK_SIZE
UNDEFED    __TI_TLS_INIT_Base
UNDEFED    __TI_TLS_INIT_Limit

[1532 symbols]
