******************************************************************************
               TMS320C6x Linker Unix v7.4.2                    
******************************************************************************
>> Linked Tue Apr 30 20:40:48 2013

OUTPUT FILE NAME:   <dwt.out>
ENTRY POINT SYMBOL: "_c_int00"  address: 0c037400


MEMORY CONFIGURATION

         name            origin    length      used     unused   attr    fill
----------------------  --------  ---------  --------  --------  ----  --------
  L2SRAM                00800000   00060000  0002c618  000339e8  RW X
  L1DSRAM               00f00000   00004000  00000000  00004000  RW  
  MSMCSRAM              0c000000   00300000  000387ae  002c7852  RW X
  MSMCSRAM_CACHE        0c300000   00100000  00000000  00100000  RW X
  DDR3                  80000000   20000000  010802d8  1ef7fd28  RW X
  MSMCSRAM_NOCACHE      a0300000   00100000  0003996e  000c6692  RW X


SEGMENT ALLOCATION MAP

run origin  load origin   length   init length attrs members
----------  ----------- ---------- ----------- ----- -------
00800000    00800000    0002c618   0002b4f4    rw-
  00800000    00800000    0002b4f4   0002b4f4    rw- .localfar
  0082b4f4    0082b4f4    00000004   00000000    rw- .tls_tp
  0082b4f8    0082b4f8    00001000   00000000    rw- .stack
  0082c4f8    0082c4f8    00000120   00000000    rw- .cio
0c000000    0c000000    00036f0e   00036f0e    r-x
  0c000000    0c000000    00032000   00032000    r-x .text
  0c032000    0c032000    00004f0e   00004f0e    r-- .const
0c036f10    0c036f10    000000d0   00000008    rw-
  0c036f10    0c036f10    00000008   00000008    rw- .tdata
  0c036f18    0c036f18    000000c8   00000000    rw- .tbss
0c036fe0    0c036fe0    00000010   00000010    r--
  0c036fe0    0c036fe0    00000010   00000010    r-- .switch.1
0c037000    0c037000    00000200   00000200    r-x
  0c037000    0c037000    00000200   00000200    r-x .vecs
0c0373b4    0c0373b4    0000004c   0000004c    r--
  0c0373b4    0c0373b4    00000030   00000030    r-- .switch.2
  0c0373e4    0c0373e4    0000001c   0000001c    r-- .binit
0c037400    0c037400    000013c0   000013c0    r-x
  0c037400    0c037400    000000a0   000000a0    r-x .text:_c_int00
  0c0374a0    0c0374a0    00000070   00000070    r-- .switch.3
  0c037510    0c037510    00001288   00001288    r-- .cinit
  0c038798    0c038798    00000028   00000028    r-- .TI.tls_init
80080000    0c037200    00000011   00000011    rw-
  80080000    0c037200    00000011   00000011    rw- .neardata
80080018    0c037218    0000019c   0000019c    rw-
  80080018    0c037218    0000019c   0000019c    rw- .fardata
800801b4    800801b4    00000124   00000000    rw-
  800801b4    800801b4    00000120   00000000    rw- .far
  800802d4    800802d4    00000004   00000000    rw- .bss
a0325000    a0325000    000120ac   000120ac    rw-
  a0325000    a0325000    000120ac   000120ac    rw- .qmss.1
a03370b0    a03370b0    00000050   00000050    rw-
  a03370b0    a03370b0    00000050   00000050    rw- gomp_data.1
a0337100    a0337100    00002672   00002672    rw-
  a0337100    a0337100    00002400   00002400    rw- .qmss.2
  a0339500    a0339500    00000272   00000272    rw- gomp_data.2
a0339780    a0339780    00000200   00000000    rw-
  a0339780    a0339780    00000200   00000000    rw- .cppi


SECTION ALLOCATION MAP

 output                                  attributes/
section   page    origin      length       input sections
--------  ----  ----------  ----------   ----------------
.init_array 
*          0    00800000    00000000     UNINITIALIZED

.init_array 
*          0    80000000    00000000     UNINITIALIZED

.localfar 
*          0    00800000    0002b4f4     
                  00800000    00028030     omp_config_pe66.oe66 (.far) [fill = 0]
                  00828030    00001000     omp_config_pe66.oe66 (.far:taskStackSection) [fill = 0]
                  00829030    00000150     rts6600_elf_mt.lib : _mutex.obj (.far) [fill = 0]
                  00829180    00000140                        : defs.obj (.far) [fill = 0]
                  008292c0    00000008                        : trgdrv.obj (.far) [fill = 0]
                  008292c8    00000800     omp_config_pe66.oe66 (.fardata:ti_sdo_ipc_GateMP_Module_State_0_remoteCustom1Gates__A)
                  00829ac8    00000778     omp_config_pe66.oe66 (.fardata)
                  0082a240    00000500     omp_config_pe66.oe66 (.fardata:ti_sysbios_family_c66_tci66xx_CpIntc_Module_State_0_dispatchTab__A)
                  0082a740    00000180     omp_config_pe66.oe66 (.fardata:ti_sysbios_timers_timer64_Timer_Module_State_0_device__A)
                  0082a8c0    000000e0     omp_config_pe66.oe66 (.fardata:ti_sdo_utils_NameServer_Object__table__V)
                  0082a9a0    000000a0     omp_config_pe66.oe66 (.fardata:ti_sdo_ipc_Ipc_Module_State_0_procEntry__A)
                  0082aa40    00000098     omp_config_pe66.oe66 (.fardata:ti_sysbios_knl_Task_Object__table__V)
                  0082aad8    00000098     omp_config_pe66.oe66 (.fardata:ti_sysbios_timers_timer64_Timer_Object__table__V)
                  0082ab70    00000090     omp_config_pe66.oe66 (.fardata:ti_sdo_ipc_SharedRegion_Module_State_0_regions__A)
                  0082ac00    00000080     omp_config_pe66.oe66 (.fardata:ti_sdo_ipc_GateMP_Module_State_0_remoteSystemGates__A)
                  0082ac80    00000080     omp_config_pe66.oe66 (.fardata:ti_sysbios_knl_Swi_Module_State_0_readyQ__A)
                  0082ad00    00000080     omp_config_pe66.oe66 (.fardata:ti_sysbios_knl_Task_Module_State_0_readyQ__A)
                  0082ad80    00000080     omp_config_pe66.oe66 (.fardata:ti_sysbios_timers_timer64_Timer_Module_State_0_gctrl__A)
                  0082ae00    00000080     omp_config_pe66.oe66 (.fardata:ti_sysbios_timers_timer64_Timer_Module_State_0_handles__A)
                  0082ae80    00000080     omp_config_pe66.oe66 (.fardata:ti_sysbios_timers_timer64_Timer_Module_State_0_intFreqs__A)
                  0082af00    0000004c     omp_config_pe66.oe66 (.fardata:ti_sysbios_family_c66_tci66xx_CpIntc_Module_State_0_hostIntToSysInt__A)
                  0082af4c    00000004     --HOLE--
                  0082af50    00000040     omp_config_pe66.oe66 (.fardata:ti_sdo_ipc_MessageQ_Module_State_0_transports__A)
                  0082af90    00000040     omp_config_pe66.oe66 (.fardata:ti_sysbios_gates_GateMutex_Object__table__V)
                  0082afd0    00000030     omp_config_pe66.oe66 (.fardata:ti_sysbios_knl_Swi_Object__table__V)
                  0082b000    00000020     omp_config_pe66.oe66 (.fardata:ti_sdo_ipc_MessageQ_Module_State_0_heaps__A)
                  0082b020    00000020     omp_config_pe66.oe66 (.fardata:ti_sdo_ipc_Notify_Module_State_0_notifyHandles__A)
                  0082b040    00000020     omp_config_pe66.oe66 (.fardata:ti_sdo_ipc_family_c647x_Interrupt_Module_State_0_args__A)
                  0082b060    00000020     omp_config_pe66.oe66 (.fardata:ti_sdo_ipc_transports_TransportShmSetup_Module_State_0_handles__A)
                  0082b080    00000020     omp_config_pe66.oe66 (.fardata:xdc_runtime_System_Module_State_0_atexitHandlers__A)
                  0082b0a0    00000018     omp_config_pe66.oe66 (.fardata:ti_sysbios_family_c64p_Hwi_Object__table__V)
                  0082b0b8    00000018     omp_config_pe66.oe66 (.fardata:ti_sysbios_gates_GateMutexPri_Object__table__V)
                  0082b0d0    00000018     omp_config_pe66.oe66 (.fardata:ti_sysbios_heaps_HeapMem_Object__table__V)
                  0082b0e8    00000014     omp_config_pe66.oe66 (.fardata:ti_sysbios_family_c66_tci66xx_CpIntc_Module_State_0_initSIER__A)
                  0082b0fc    00000004     --HOLE--
                  0082b100    00000010     omp_config_pe66.oe66 (.fardata:ti_sysbios_family_c66_tci66xx_CpIntc_Module_State_0_controller__A)
                  0082b110    00000010     omp_config_pe66.oe66 (.fardata:ti_sysbios_gates_GateAll_Object__table__V)
                  0082b120    0000000c     omp_config_pe66.oe66 (.fardata:ti_omp_utils_HeapOMP_Object__table__V)
                  0082b12c    00000004     --HOLE--
                  0082b130    0000000c     omp_config_pe66.oe66 (.fardata:ti_sysbios_gates_GateSwi_Object__table__V)
                  0082b13c    00000004     --HOLE--
                  0082b140    00000008     omp_config_pe66.oe66 (.fardata:ti_sysbios_hal_Hwi_Object__table__V)
                  0082b148    00000008     omp_config_pe66.oe66 (.fardata:ti_sysbios_hal_Timer_Object__table__V)
                  0082b150    00000004     omp_config_pe66.oe66 (.fardata:ti_sdo_ipc_GateMP_Module_State_0_remoteCustom2Gates__A)
                  0082b154    00000004     --HOLE--
                  0082b158    00000004     omp_config_pe66.oe66 (.fardata:ti_sdo_ipc_Notify_Module_State_0_notifyHandles_0__A)
                  0082b15c    00000004     --HOLE--
                  0082b160    00000004     omp_config_pe66.oe66 (.fardata:ti_sdo_ipc_Notify_Module_State_0_notifyHandles_1__A)
                  0082b164    00000004     --HOLE--
                  0082b168    00000004     omp_config_pe66.oe66 (.fardata:ti_sdo_ipc_Notify_Module_State_0_notifyHandles_2__A)
                  0082b16c    00000004     --HOLE--
                  0082b170    00000004     omp_config_pe66.oe66 (.fardata:ti_sdo_ipc_Notify_Module_State_0_notifyHandles_3__A)
                  0082b174    00000004     --HOLE--
                  0082b178    00000004     omp_config_pe66.oe66 (.fardata:ti_sdo_ipc_Notify_Module_State_0_notifyHandles_4__A)
                  0082b17c    00000004     --HOLE--
                  0082b180    00000004     omp_config_pe66.oe66 (.fardata:ti_sdo_ipc_Notify_Module_State_0_notifyHandles_5__A)
                  0082b184    00000004     --HOLE--
                  0082b188    00000004     omp_config_pe66.oe66 (.fardata:ti_sdo_ipc_Notify_Module_State_0_notifyHandles_6__A)
                  0082b18c    00000004     --HOLE--
                  0082b190    00000004     omp_config_pe66.oe66 (.fardata:ti_sdo_ipc_Notify_Module_State_0_notifyHandles_7__A)
                  0082b194    00000004     --HOLE--
                  0082b198    00000004     omp_config_pe66.oe66 (.fardata:ti_sysbios_gates_GateHwi_Object__table__V)
                  0082b19c    00000004     --HOLE--
                  0082b1a0    00000004     omp_config_pe66.oe66 (.fardata:ti_sysbios_knl_Task_Module_State_0_idleTask__A)
                  0082b1a4    00000004     --HOLE--
                  0082b1a8    00000004     omp_config_pe66.oe66 (.fardata:xdc_runtime_GateNull_Object__table__V)
                  0082b1ac    00000004     --HOLE--
                  0082b1b0    000001e0     rts6600_elf_mt.lib : defs.obj (.fardata:_ftable)
                  0082b390    000000a0                        : lowlev.obj (.fardata:_stream)
                  0082b430    00000078                        : lowlev.obj (.fardata:_device)
                  0082b4a8    00000018                        : _pthread.obj (.fardata)
                  0082b4c0    00000010                        : exit.obj (.fardata)
                  0082b4d0    0000000c                        : _data_synch.obj (.fardata)
                  0082b4dc    00000008                        : _lock.obj (.fardata)
                  0082b4e4    00000008                        : _mutex.obj (.fardata)
                  0082b4ec    00000004                        : defs.obj (.fardata)
                  0082b4f0    00000004                        : dtor_list.obj (.fardata)

.tls_tp    0    0082b4f4    00000004     UNINITIALIZED
                  0082b4f4    00000004     ti.omp.utils.ae66 : ThreadLocalStorage.oe66 (.tls_tp)

.stack     0    0082b4f8    00001000     UNINITIALIZED
                  0082b4f8    00000008     boot.ae66 : boot.oe66 (.stack)
                  0082b500    00000ff8     --HOLE--

.cio       0    0082c4f8    00000120     UNINITIALIZED
                  0082c4f8    00000120     rts6600_elf_mt.lib : trgmsg.obj (.cio)

xdc.meta   0    0c000000    00000100     COPY SECTION
                  0c000000    00000100     omp_config_pe66.oe66 (xdc.meta)

.text      0    0c000000    00032000     
                  0c000000    000011c0     ipc.ae66 : Ipc.obj (.text:ti_sdo_ipc_GateMP_Instance_init__F)
                  0c0011c0    00000a60              : Ipc.obj (.text:ti_sdo_ipc_heaps_HeapMemMP_alloc__E)
                  0c001c20    00000a20              : Ipc.obj (.text:ti_sdo_ipc_heaps_HeapMemMP_free__E)
                  0c002640    000009a0     ti.targets.rts6000.ae66 : System.oe66 (.text:xdc_runtime_System_doPrint__I)
                  0c002fe0    00000980     ipc.ae66 : Ipc.obj (.text:Ipc_attach)
                  0c003960    00000900              : Ipc.obj (.text:ti_sdo_ipc_transports_TransportShm_Instance_init__F)
                  0c004260    000008c0              : Ipc.obj (.text:ti_sdo_ipc_GateMP_Instance_finalize__F)
                  0c004b20    000008a0              : Ipc.obj (.text:ti_sdo_ipc_ListMP_Instance_init__F)
                  0c0053c0    00000840              : Ipc.obj (.text:MessageQ_put)
                  0c005c00    00000800     ti.omp.ae66 : team.oe66 (.text:gomp_team_start)
                  0c006400    000007e0     ti.drv.qmss.ae66 : qmss_drv.oe66 (.text:Qmss_insertMemoryRegion)
                  0c006be0    00000780     ipc.ae66 : Ipc.obj (.text:ti_sdo_ipc_heaps_HeapMemMP_Instance_init__F)
                  0c007360    00000780     sysbios.ae66 : BIOS.obj (.text:ti_sysbios_family_c64p_Exception_handler__I)
                  0c007ae0    000006c0     ipc.ae66 : Ipc.obj (.text:ti_sdo_ipc_nsremote_NameServerRemoteNotify_Instance_init__F)
                  0c0081a0    000006a0              : Ipc.obj (.text:NameServer_add)
                  0c008840    00000680     sysbios.ae66 : BIOS.obj (.text:ti_sysbios_knl_Task_Instance_finalize__F)
                  0c008ec0    00000620     ipc.ae66 : Ipc.obj (.text:Notify_sendEvent)
                  0c0094e0    00000600     sysbios.ae66 : BIOS.obj (.text:ti_sysbios_heaps_HeapMem_alloc__E)
                  0c009ae0    00000600                  : BIOS.obj (.text:ti_sysbios_heaps_HeapMem_free__E)
                  0c00a0e0    000005e0     ipc.ae66 : Ipc.obj (.text:Notify_registerEventSingle)
                  0c00a6c0    000005c0              : Ipc.obj (.text:ListMP_getHead)
                  0c00ac80    000005c0              : Ipc.obj (.text:Notify_unregisterEventSingle)
                  0c00b240    000005c0     rts6600_elf_mt.lib : divd.obj (.text:__c6xabi_divd)
                  0c00b800    000005c0                        : _printfi.obj (.text:_getarg_diouxp)
                  0c00bdc0    000005c0     ipc.ae66 : Ipc.obj (.text:ti_sdo_ipc_SharedRegion_start__F)
                  0c00c380    000005c0     sysbios.ae66 : BIOS.obj (.text:ti_sysbios_timers_timer64_Timer_Module_startup__F)
                  0c00c940    00000580     ipc.ae66 : Ipc.obj (.text:ti_sdo_ipc_nsremote_NameServerRemoteNotify_get__F)
                  0c00cec0    00000580              : Ipc.obj (.text:ti_sdo_ipc_transports_TransportShm_put__E)
                  0c00d440    00000560     ti.omp.ae66 : task.oe66 (.text:gomp_barrier_handle_tasks)
                  0c00d9a0    00000540     ipc.ae66 : Ipc.obj (.text:ti_sdo_ipc_Ipc_procSyncStart__I)
                  0c00dee0    000004e0              : Ipc.obj (.text:ti_sdo_ipc_notifyDrivers_NotifyDriverShm_Instance_init__F)
                  0c00e3c0    000004e0     sysbios.ae66 : BIOS.obj (.text:ti_sysbios_knl_Semaphore_pend__E)
                  0c00e8a0    000004a0     ipc.ae66 : Ipc.obj (.text:ti_sdo_ipc_gates_GatePeterson_Instance_init__F)
                  0c00ed40    000004a0              : Ipc.obj (.text:ti_sdo_ipc_nsremote_NameServerRemoteNotify_swiFxn__I)
                  0c00f1e0    00000480     dwt.obj (.text)
                  0c00f660    00000480     sysbios.ae66 : BIOS.obj (.text:ti_sysbios_knl_Task_Module_startup__F)
                  0c00fae0    00000460     rts6600_elf_mt.lib : _printfi.obj (.text:_printfi)
                  0c00ff40    00000460                        : _printfi.obj (.text:_setfield)
                  0c0103a0    00000460     ipc.ae66 : Ipc.obj (.text:ti_sdo_ipc_GateMP_setRegion0Reserved__F)
                  0c010800    00000460              : Ipc.obj (.text:ti_sdo_ipc_Ipc_procSyncFinish__I)
                  0c010c60    00000440              : Ipc.obj (.text:ListMP_putTail)
                  0c0110a0    00000440     ti.omp.navigator.C6678.ae66 : Navigator.oe66 (.text:sysInit)
                  0c0114e0    00000440     ipc.ae66 : Ipc.obj (.text:ti_sdo_ipc_heaps_HeapMemMP_getStats__E)
                  0c011920    00000440              : Ipc.obj (.text:ti_sdo_ipc_heaps_HeapMemMP_postInit__I)
                  0c011d60    00000420     ti.omp.ae66 : env.oe66 (.text:parse_schedule)
                  0c012180    00000400     ipc.ae66 : Ipc.obj (.text:ti_sdo_ipc_Notify_Instance_init__F)
                  0c012580    000003c0     ti.drv.cppi.ae66 : cppi_desc.oe66 (.text:Cppi_initDescriptor)
                  0c012940    000003c0     rts6600_elf_mt.lib : fputs.obj (.text:fputs)
                  0c012d00    000003c0     ti.omp.config.sysbios.ae66 : bar.oe66 (.text:gomp_team_barrier_wait_end)
                  0c0130c0    000003c0     ti.omp.ae66 : env.oe66 (.text:parse_spincount)
                  0c013480    000003c0     ipc.ae66 : Ipc.obj (.text:ti_sdo_ipc_SharedRegion_reserveMemory__F)
                  0c013840    000003c0     sysbios.ae66 : BIOS.obj (.text:ti_sysbios_knl_Task_Instance_init__F)
                  0c013c00    000003c0                  : BIOS.obj (.text:ti_sysbios_knl_Task_setPri__E)
                  0c013fc0    000003a0     ti.omp.ae66 : env.oe66 (.text:parse_affinity)
                  0c014360    00000380     ipc.ae66 : Ipc.obj (.text:HeapMemMP_sharedMemReq)
                  0c0146e0    00000340              : Ipc.obj (.text:GateMP_sharedMemReq)
                  0c014a20    00000340     ti.drv.qmss.ae66 : qmss_drv.oe66 (.text:Qmss_init)
                  0c014d60    00000320     rts6600_elf_mt.lib : _printfi.obj (.text:_pproc_fge)
                  0c015080    00000320                        : strtoul.obj (.text:strtoul)
                  0c0153a0    00000320     ti.omp.utils.ae66 : ThreadLocal.oe66 (.text:ti_omp_utils_ThreadLocal_setspecific__E)
                  0c0156c0    00000300     ipc.ae66 : Ipc.obj (.text:GateMP_openByAddr)
                  0c0159c0    00000300              : Ipc.obj (.text:ti_sdo_ipc_transports_TransportShm_openByAddr__F)
                  0c015cc0    00000300     sysbios.ae66 : BIOS.obj (.text:ti_sysbios_family_c64p_Hwi_dispatchC__I)
                  0c015fc0    000002e0     ipc.ae66 : Ipc.obj (.text:SharedRegion_getEntry)
                  0c0162a0    000002e0              : Ipc.obj (.text:SharedRegion_getPtr)
                  0c016580    000002e0     rts6600_elf_mt.lib : _printfi.obj (.text:_pproc_fwp)
                  0c016860    000002e0     ti.omp.ae66 : env.oe66 (.text:parse_stacksize)
                  0c016b40    000002e0     sysbios.ae66 : BIOS.obj (.text:ti_sysbios_gates_GateMutexPri_enter__E)
                  0c016e20    000002e0                  : BIOS.obj (.text:ti_sysbios_heaps_HeapMem_Instance_init__F)
                  0c017100    000002c0     ti.omp.utils.ae66 : OpenMP.oe66 (.text:ti_omp_utils_OpenMP_masterTask__I)
                  0c0173c0    000002c0     ipc.ae66 : Ipc.obj (.text:ti_sdo_ipc_notifyDrivers_NotifyDriverShm_isr__I)
                  0c017680    000002c0     sysbios.ae66 : BIOS.obj (.text:ti_sysbios_knl_Task_exit__E)
                  0c017940    000002a0     ipc.ae66 : Ipc.obj (.text:NameServer_getLocal)
                  0c017be0    000002a0     rts6600_elf_mt.lib : _printfi.obj (.text:fcvt)
                  0c017e80    000002a0     ti.omp.ae66 : env.oe66 (.text:initialize_env)
                  0c018120    000002a0     sysbios.ae66 : BIOS.obj (.text:ti_sysbios_family_c66_tci66xx_CpIntc_Module_startup__F)
                  0c0183c0    000002a0                  : BIOS.obj (.text:ti_sysbios_knl_Clock_workFunc__E)
                  0c018660    00000280     ipc.ae66 : Ipc.obj (.text:Ipc_start)
                  0c0188e0    00000280              : Ipc.obj (.text:SharedRegion_getSRPtr)
                  0c018b60    00000280     sysbios.ae66 : BIOS.obj (.text:deviceConfig$47)
                  0c018de0    00000280     rts6600_elf_mt.lib : _printfi.obj (.text:ecvt)
                  0c019060    00000280     ti.omp.ae66 : team.oe66 (.text:gomp_team_end)
                  0c0192e0    00000280     ipc.ae66 : Ipc.obj (.text:ti_sdo_ipc_notifyDrivers_NotifyDriverShm_sharedMemReq__F)
                  0c019560    00000280     sysbios.ae66 : BIOS.obj (.text:ti_sysbios_knl_Clock_Instance_init__F)
                  0c0197e0    00000280     ti.targets.rts6000.ae66 : Core-mem.oe66 (.text:xdc_runtime_Core_createObject__I)
                  0c019a60    00000280                             : Error.oe66 (.text:xdc_runtime_Error_raiseX__F)
                  0c019ce0    00000260     ipc.ae66 : Ipc.obj (.text:ListMP_sharedMemReq)
                  0c019f40    00000260     ti.omp.navigator.C6678.ae66 : Navigator.oe66 (.text:getsysHandles)
                  0c01a1a0    00000260     ti.omp.ae66 : parallel.oe66 (.text:gomp_resolve_num_threads)
                  0c01a400    00000260     ipc.ae66 : Ipc.obj (.text:ti_sdo_ipc_ListMP_Instance_finalize__F)
                  0c01a660    00000260              : Ipc.obj (.text:ti_sdo_ipc_heaps_HeapMemMP_Instance_finalize__F)
                  0c01a8c0    00000260              : Ipc.obj (.text:ti_sdo_ipc_notifyDrivers_NotifyDriverShm_disableEvent__E)
                  0c01ab20    00000260     ti.targets.rts6000.ae66 : Startup.oe66 (.text:xdc_runtime_Startup_startMods__I)
                  0c01ad80    00000240     ti.drv.cppi.ae66 : cppi_drv.oe66 (.text:Cppi_open)
                  0c01afc0    00000240     rts6600_elf_mt.lib : imath64.obj (.text:__c6xabi_divull)
                  0c01b200    00000240                        : _printfi.obj (.text:_pconv_e)
                  0c01b440    00000240                        : _printfi.obj (.text:_pproc_diouxp)
                  0c01b680    00000240                        : fputc.obj (.text:fputc)
                  0c01b8c0    00000240     sysbios.ae66 : BIOS.obj (.text:ti_sysbios_family_c64p_Exception_internalHandler__I)
                  0c01bb00    00000240                  : BIOS.obj (.text:ti_sysbios_knl_Semaphore_post__E)
                  0c01bd40    00000220     rts6600_elf_mt.lib : _printfi.obj (.text:_pproc_str)
                  0c01bf60    00000220     ti.omp.ae66 : env.oe66 (.text:parse_wait_policy)
                  0c01c180    00000220     rts6600_elf_mt.lib : setvbuf.obj (.text:setvbuf)
                  0c01c3a0    00000220     ti.omp.utils.ae66 : ThreadLocal.oe66 (.text:ti_omp_utils_ThreadLocal_getspecific__E)
                  0c01c5c0    00000220     ipc.ae66 : Ipc.obj (.text:ti_sdo_ipc_GateMP_start__F)
                  0c01c7e0    00000220     sysbios.ae66 : BIOS.obj (.text:ti_sysbios_family_c64p_Hwi_reconfig__E)
                  0c01ca00    00000220                  : BIOS.obj (.text:ti_sysbios_knl_Swi_run__I)
                  0c01cc20    00000220                  : BIOS.obj (.text:ti_sysbios_knl_Task_schedule__I)
                  0c01ce40    00000220                  : BIOS.obj (.text:ti_sysbios_knl_Task_startCore__E)
                  0c01d060    00000200     ipc.ae66 : Ipc.obj (.text:GateMP_enter)
                  0c01d260    00000200              : Ipc.obj (.text:GateMP_leave)
                  0c01d460    00000200              : Ipc.obj (.text:ListMP_openByAddr)
                  0c01d660    00000200     ti.drv.qmss.ae66 : qmss_drv.oe66 (.text:Qmss_internalQueueOpen)
                  0c01d860    00000200     rts6600_elf_mt.lib : _printfi.obj (.text:_pconv_g)
                  0c01da60    00000200     sysbios.ae66 : c64p_Hwi_disp_always.obj (.text:_ti_sysbios_family_c64p_Hwi_dispatchAlways)
                  0c01dc60    00000200                  : BIOS.obj (.text:block$59)
                  0c01de60    00000200     ti.drv.cppi.ae66 : cppi_heap.oe66 (.text:cppi_internal_heap_add)
                  0c01e060    00000200     ipc.ae66 : Ipc.obj (.text:ti_sdo_ipc_notifyDrivers_NotifyDriverShm_sendEvent__E)
                  0c01e260    00000200              : Ipc.obj (.text:ti_sdo_ipc_transports_TransportShm_Instance_finalize__F)
                  0c01e460    000001e0     ti.omp.ae66 : env.oe66 (.text:parse_boolean)
                  0c01e640    000001e0                 : env.oe66 (.text:parse_unsigned_long)
                  0c01e820    000001e0     ipc.ae66 : Ipc.obj (.text:ti_sdo_ipc_GateMP_attach__F)
                  0c01ea00    000001e0              : Ipc.obj (.text:ti_sdo_ipc_GateMP_getFreeResource__I)
                  0c01ebe0    000001e0     sysbios.ae66 : BIOS.obj (.text:ti_sysbios_knl_Task_postInit__I)
                  0c01edc0    000001e0                  : BIOS.obj (.text:ti_sysbios_timers_timer64_Timer_getFreq__E)
                  0c01efa0    000001c0     ti.drv.cppi.ae66 : cppi_drv.oe66 (.text:Cppi_initCfg)
                  0c01f160    000001c0     ti.omp.ae66 : parallel.oe66 (.text:GOMP_parallel_end)
                  0c01f320    000001c0     ipc.ae66 : Ipc.obj (.text:HeapMemMP_openByAddr)
                  0c01f4e0    000001c0     ti.drv.qmss.ae66 : qmss_drv.oe66 (.text:Qmss_internaldownloadFirmware)
                  0c01f6a0    000001c0     rts6600_elf_mt.lib : _printfi.obj (.text:_mcpy)
                  0c01f860    000001c0     ipc.ae66 : Ipc.obj (.text:ti_sdo_ipc_notifyDrivers_NotifyDriverShm_registerEvent__E)
                  0c01fa20    000001c0     sysbios.ae66 : BIOS.obj (.text:ti_sysbios_knl_Swi_Instance_init__F)
                  0c01fbe0    000001c0                  : BIOS.obj (.text:ti_sysbios_timers_timer64_Timer_setPeriodMicroSecs__E)
                  0c01fda0    000001a0     ipc.ae66 : Ipc.obj (.text:SharedRegion_getCacheLineSize)
                  0c01ff40    000001a0              : Ipc.obj (.text:SharedRegion_getHeap)
                  0c0200e0    000001a0              : Ipc.obj (.text:SharedRegion_isCacheEnabled)
                  0c020280    000001a0     rts6600_elf_mt.lib : imath40.obj (.text:__c6xabi_divul)
                  0c020420    000001a0     ti.omp.ae66 : team.oe66 (.text:gomp_new_team)
                  0c0205c0    000001a0     ti.omp.navigator.C6678.ae66 : Navigator.oe66 (.text:sysExit)
                  0c020760    000001a0     ipc.ae66 : Ipc.obj (.text:ti_sdo_ipc_GateMP_openRegion0Reserved__F)
                  0c020900    000001a0              : Ipc.obj (.text:ti_sdo_ipc_notifyDrivers_NotifyDriverShm_enableEvent__E)
                  0c020aa0    000001a0              : Ipc.obj (.text:ti_sdo_ipc_notifyDrivers_NotifyDriverShm_unregisterEvent__E)
                  0c020c40    000001a0              : Ipc.obj (.text:ti_sdo_ipc_nsremote_NameServerRemoteNotify_attach__E)
                  0c020de0    000001a0     sysbios.ae66 : BIOS.obj (.text:ti_sysbios_gates_GateMutex_enter__E)
                  0c020f80    000001a0                  : BIOS.obj (.text:ti_sysbios_timers_timer64_Timer_start__E)
                  0c021120    00000180     rts6600_elf_mt.lib : trgdrv.obj (.text:HOSTrename)
                  0c0212a0    00000180     ipc.ae66 : Ipc.obj (.text:MultiProc_setLocalId)
                  0c021420    00000180              : Ipc.obj (.text:Notify_intLineRegistered)
                  0c0215a0    00000180     rts6600_elf_mt.lib : copy_decompress_rle.obj (.text:__TI_decompress_rle_core)
                  0c021720    00000180     ti.omp.ae66 : team.oe66 (.text:gomp_thread_start)
                  0c0218a0    00000180     sysbios.ae66 : c64p_Exception_asm.obj (.text)
                  0c021a20    00000180     ti.omp.utils.ae66 : OpenMP.oe66 (.text:ti_omp_utils_OpenMP_createThread__E)
                  0c021ba0    00000180     ipc.ae66 : Ipc.obj (.text:ti_sdo_ipc_MessageQ_registerTransport__F)
                  0c021d20    00000180              : Ipc.obj (.text:ti_sdo_ipc_Notify_Module_startup__F)
                  0c021ea0    00000180              : Ipc.obj (.text:ti_sdo_ipc_gates_GatePeterson_enter__E)
                  0c022020    00000180              : Ipc.obj (.text:ti_sdo_utils_NameServer_Module_startup__F)
                  0c0221a0    00000180     sysbios.ae66 : BIOS.obj (.text:ti_sysbios_heaps_HeapBuf_Module_startup__F)
                  0c022320    00000180                  : BIOS.obj (.text:ti_sysbios_knl_Swi_schedule__I)
                  0c0224a0    00000180                  : BIOS.obj (.text:ti_sysbios_knl_Task_unblockI__E)
                  0c022620    00000180     ti.targets.rts6000.ae66 : Text.oe66 (.text:xdc_runtime_Text_putSite__F)
                  0c0227a0    00000160     ti.omp.ae66 : team.oe66 (.text:gomp_free_thread)
                  0c022900    00000160     ti.omp.utils.ae66 : ThreadLocal.oe66 (.text:ti_omp_utils_ThreadLocal_key_delete__E)
                  0c022a60    00000160     ipc.ae66 : Ipc.obj (.text:ti_sdo_ipc_GateMP_createLocal__F)
                  0c022bc0    00000160              : Ipc.obj (.text:ti_sdo_ipc_MessageQ_unregisterTransport__F)
                  0c022d20    00000160              : Ipc.obj (.text:ti_sdo_ipc_gates_GateHWSem_Instance_init__F)
                  0c022e80    00000160              : Ipc.obj (.text:ti_sdo_ipc_transports_TransportShm_sharedMemReq__F)
                  0c022fe0    00000160              : Ipc.obj (.text:ti_sdo_utils_NameServer_isRegistered__E)
                  0c023140    00000160              : Ipc.obj (.text:ti_sdo_utils_NameServer_registerRemoteDriver__E)
                  0c0232a0    00000160              : Ipc.obj (.text:ti_sdo_utils_NameServer_unregisterRemoteDriver__E)
                  0c023400    00000140     ti.csl.ae66 : csl_chip.oe66 (.text:CSL_chipReadReg)
                  0c023540    00000140     ipc.ae66 : Ipc.obj (.text:GateMP_close)
                  0c023680    00000140              : Ipc.obj (.text:Notify_attach)
                  0c0237c0    00000140     boot.ae66 : autoinit.oe66 (.text:_auto_init_elf)
                  0c023900    00000140     rts6600_elf_mt.lib : _printfi.obj (.text:_pproc_fflags)
                  0c023a40    00000140                        : fseek.obj (.text:fseek)
                  0c023b80    00000140                        : lowlev.obj (.text:getdevice)
                  0c023cc0    00000140     ti.omp.config.sysbios.ae66 : bar.oe66 (.text:gomp_barrier_wait_end)
                  0c023e00    00000140     ti.omp.ae66 : team.oe66 (.text:initialize_team)
                  0c023f40    00000140     ipc.ae66 : Ipc.obj (.text:ti_sdo_ipc_Notify_exec__F)
                  0c024080    00000140     sysbios.ae66 : BIOS.obj (.text:ti_sysbios_family_c64p_Hwi_Module_startup__F)
                  0c0241c0    00000140                  : BIOS.obj (.text:ti_sysbios_family_c66_Cache_Module_startup__F)
                  0c024300    00000140                  : BIOS.obj (.text:ti_sysbios_gates_GateSwi_enter__E)
                  0c024440    00000140                  : BIOS.obj (.text:ti_sysbios_knl_Clock_Instance_finalize__F)
                  0c024580    00000140                  : BIOS.obj (.text:ti_sysbios_knl_Semaphore_Instance_init__F)
                  0c0246c0    00000140                  : BIOS.obj (.text:ti_sysbios_knl_Swi_post__E)
                  0c024800    00000140                  : BIOS.obj (.text:ti_sysbios_knl_Task_blockI__E)
                  0c024940    00000140                  : BIOS.obj (.text:ti_sysbios_knl_Task_yield__E)
                  0c024a80    00000120     rts6600_elf_mt.lib : fclose.obj (.text:_closefile)
                  0c024ba0    00000120                        : _printfi.obj (.text:_ltostr)
                  0c024cc0    00000120     ti.omp.config.sysbios.ae66 : bar.oe66 (.text:gomp_sem_wait_concat)
                  0c024de0    00000120     ti.omp.navigator.C6678.ae66 : Navigator.oe66 (.text:init_Navigator)
                  0c024f00    00000120     sysbios.ae66 : BIOS.obj (.text:rtsUnlock$0)
                  0c025020    00000120     ti.omp.utils.ae66 : OpenMP.oe66 (.text:ti_omp_utils_OpenMP_threadSpawnLoop__I)
                  0c025140    00000120     ipc.ae66 : Ipc.obj (.text:ti_sdo_ipc_MessageQ_Module_startup__F)
                  0c025260    00000120              : Ipc.obj (.text:ti_sdo_ipc_family_c647x_Interrupt_intRegister__E)
                  0c025380    00000120              : Ipc.obj (.text:ti_sdo_ipc_nsremote_NameServerRemoteNotify_Instance_finalize__F)
                  0c0254a0    00000120     omp_config_pe66.oe66 (.text:xdc_runtime_System_printfExtend__I)
                  0c0255c0    00000100     rts6600_elf_mt.lib : _io_perm.obj (.text:_wrt_ok)
                  0c0256c0    00000100                        : cpy_tbl.obj (.text:copy_in)
                  0c0257c0    00000100     ti.omp.ae66 : work.oe66 (.text:gomp_init_work_share)
                  0c0258c0    00000100                 : task.oe66 (.text:gomp_sem_wait)
                  0c0259c0    00000100     ti.omp.config.sysbios.ae66 : bar.oe66 (.text:gomp_sem_wait)
                  0c025ac0    00000100     sysbios.ae66 : BIOS.obj (.text:initDevice$47)
                  0c025bc0    00000100     ti.omp.utils.ae66 : OpenMPMem.oe66 (.text:ompBufferFree)
                  0c025cc0    00000100     ti.omp.utils.C6678.ae66 : OpenMPDnldCore.oe66 (.text:reset_run_core)
                  0c025dc0    00000100                             : OpenMPDnldCore.oe66 (.text:siu_ibl_download_core)
                  0c025ec0    00000100     ti.omp.utils.ae66 : ThreadLocal.oe66 (.text:ti_omp_utils_ThreadLocal_key_create__E)
                  0c025fc0    00000100     ipc.ae66 : Ipc.obj (.text:ti_sdo_ipc_Notify_Instance_finalize__F)
                  0c0260c0    00000100     omp_config_pe66.oe66 (.text:ti_sdo_ipc_Notify_Object__create__S)
                  0c0261c0    00000100     ipc.ae66 : Ipc.obj (.text:ti_sdo_ipc_SharedRegion_attach__F)
                  0c0262c0    00000100              : Ipc.obj (.text:ti_sdo_ipc_SharedRegion_clearReservedMemory__F)
                  0c0263c0    00000100              : Ipc.obj (.text:ti_sdo_ipc_family_c647x_Interrupt_Module_startup__F)
                  0c0264c0    00000100              : Ipc.obj (.text:ti_sdo_ipc_gates_GateHWSem_Module_startup__F)
                  0c0265c0    00000100              : Ipc.obj (.text:ti_sdo_ipc_gates_GateMPSupportNull_enter__E)
                  0c0266c0    00000100              : Ipc.obj (.text:ti_sdo_ipc_gates_GateMPSupportNull_leave__E)
                  0c0267c0    00000100     omp_config_pe66.oe66 (.text:ti_sdo_ipc_gates_GatePeterson_Object__create__S)
                  0c0268c0    00000100     omp_config_pe66.oe66 (.text:ti_sdo_ipc_nsremote_NameServerRemoteNotify_Object__create__S)
                  0c0269c0    00000100     ipc.ae66 : Ipc.obj (.text:ti_sdo_ipc_transports_TransportShmSetup_attach__E)
                  0c026ac0    00000100     omp_config_pe66.oe66 (.text:ti_sdo_ipc_transports_TransportShm_Object__create__S)
                  0c026bc0    00000100     omp_config_pe66.oe66 (.text:ti_sysbios_family_c64p_Hwi_Object__create__S)
                  0c026cc0    00000100     sysbios.ae66 : BIOS.obj (.text:ti_sysbios_gates_GateMutexPri_leave__E)
                  0c026dc0    00000100                  : BIOS.obj (.text:ti_sysbios_knl_Clock_startI__E)
                  0c026ec0    00000100     omp_config_pe66.oe66 (.text:ti_sysbios_knl_Swi_Object__create__S)
                  0c026fc0    00000100     sysbios.ae66 : BIOS.obj (.text:ti_sysbios_knl_Swi_restoreHwi__E)
                  0c0270c0    00000100     omp_config_pe66.oe66 (.text:ti_sysbios_knl_Task_Object__create__S)
                  0c0271c0    00000100     ti.targets.rts6000.ae66 : Core-mem.oe66 (.text:xdc_runtime_Core_deleteObject__I)
                  0c0272c0    00000100                             : Startup.oe66 (.text:xdc_runtime_Startup_exec__F)
                  0c0273c0    00000100                             : Text.oe66 (.text:xdc_runtime_Text_putMod__F)
                  0c0274c0    00000100                             : Text.oe66 (.text:xdc_runtime_Text_visitRope2__I)
                  0c0275c0    000000e0     rts6600_elf_mt.lib : trgdrv.obj (.text:HOSTgetenv)
                  0c0276a0    000000e0                        : trgdrv.obj (.text:HOSTlseek)
                  0c027780    000000e0                        : trgdrv.obj (.text:HOSTopen)
                  0c027860    000000e0                        : divi.obj (.text:__divi)
                  0c027940    000000e0                        : _printfi.obj (.text:_div)
                  0c027a20    000000e0                        : atoi.obj (.text:atoi)
                  0c027b00    000000e0                        : lowlev.obj (.text:close)
                  0c027be0    000000e0                        : copy_zero_init.obj (.text:decompress:ZI:__TI_zero_init)
                  0c027cc0    000000e0                        : exit.obj (.text:exit)
                  0c027da0    000000e0                        : ltoa.obj (.text:ltoa)
                  0c027e80    000000e0                        : memset.obj (.text:memset)
                  0c027f60    000000e0                        : printf.obj (.text:printf)
                  0c028040    000000e0     ti.omp.navigator.C6678.ae66 : Navigator.oe66 (.text:queue_pop_elem_wait)
                  0c028120    000000e0     omp_config_pe66.oe66 (.text:realloc)
                  0c028200    000000e0     ti.omp.utils.ae66 : OpenMP.oe66 (.text:ti_omp_utils_OpenMP_mainTaskExit__F)
                  0c0282e0    000000e0     omp_config_pe66.oe66 (.text:ti_sdo_ipc_GateMP_Object__create__S)
                  0c0283c0    000000e0     omp_config_pe66.oe66 (.text:ti_sdo_ipc_ListMP_Object__create__S)
                  0c0284a0    000000e0     ipc.ae66 : Ipc.obj (.text:ti_sdo_ipc_family_c647x_Interrupt_intShmStub__I)
                  0c028580    000000e0              : Ipc.obj (.text:ti_sdo_ipc_family_c647x_NotifySetup_attach__E)
                  0c028660    000000e0              : Ipc.obj (.text:ti_sdo_ipc_gates_GateHWSem_enter__E)
                  0c028740    000000e0     omp_config_pe66.oe66 (.text:ti_sdo_ipc_heaps_HeapMemMP_Object__create__S)
                  0c028820    000000e0     omp_config_pe66.oe66 (.text:ti_sdo_ipc_notifyDrivers_NotifyDriverShm_Object__create__S)
                  0c028900    000000e0     sysbios.ae66 : BIOS.obj (.text:ti_sysbios_family_c64p_Hwi_Instance_finalize__F)
                  0c0289e0    000000e0                  : BIOS.obj (.text:ti_sysbios_family_c64p_Hwi_Instance_init__F)
                  0c028ac0    000000e0                  : BIOS.obj (.text:ti_sysbios_knl_Clock_start__E)
                  0c028ba0    000000e0                  : BIOS.obj (.text:ti_sysbios_timers_timer64_Timer_startup__E)
                  0c028c80    000000e0     ti.targets.rts6000.ae66 : Error.oe66 (.text:xdc_runtime_Error_print__F)
                  0c028d60    000000e0                             : Memory.oe66 (.text:xdc_runtime_Memory_alloc__F)
                  0c028e40    000000e0     omp_config_pe66.oe66 (.text:xdc_runtime_knl_GateThread_Object__create__S)
                  0c028f20    000000c0     ti.drv.cppi.ae66 : cppi_drv.oe66 (.text:Cppi_close)
                  0c028fe0    000000c0                      : cppi_drv.oe66 (.text:Cppi_exit)
                  0c0290a0    000000c0     rts6600_elf_mt.lib : trgdrv.obj (.text:HOSTread)
                  0c029160    000000c0                        : trgdrv.obj (.text:HOSTwrite)
                  0c029220    000000c0     ipc.ae66 : Ipc.obj (.text:HeapMemMP_create)
                  0c0292e0    000000c0              : Ipc.obj (.text:ListMP_create)
                  0c0293a0    000000c0              : Ipc.obj (.text:SharedRegion_getId)
                  0c029460    000000c0     rts6600_elf_mt.lib : dtor_list.obj (.text:__cxa_finalize)
                  0c029520    000000c0                        : divu.obj (.text:__divu)
                  0c0295e0    000000c0                        : fflush.obj (.text:_doflush)
                  0c0296a0    000000c0     ti.drv.cppi.ae66 : cppi_heap.oe66 (.text:cppi_internal_heap_release)
                  0c029760    000000c0     ti.omp.ae66 : alloc.oe66 (.text:gomp_realloc)
                  0c029820    000000c0     rts6600_elf_mt.lib : _mutex.obj (.text:mutex_init)
                  0c0298e0    000000c0                        : _pthread.obj (.text:pthread_mutex_lock)
                  0c0299a0    000000c0                        : _pthread.obj (.text:pthread_mutex_unlock)
                  0c029a60    000000c0                        : _pthread.obj (.text:pthread_once)
                  0c029b20    000000c0     ti.omp.utils.ae66 : ThreadLocal.oe66 (.text:ti_omp_utils_ThreadLocal_exitFxn__F)
                  0c029be0    000000c0     ipc.ae66 : Ipc.obj (.text:ti_sdo_ipc_GateMP_getRegion0ReservedSize__F)
                  0c029ca0    000000c0     sysbios.ae66 : BIOS.obj (.text:ti_sysbios_BIOS_errorRaiseHook__I)
                  0c029d60    000000c0                  : BIOS.obj (.text:ti_sysbios_gates_GateAll_leave__E)
                  0c029e20    000000c0                  : BIOS.obj (.text:ti_sysbios_heaps_HeapMem_getStats__E)
                  0c029ee0    000000c0                  : BIOS.obj (.text:ti_sysbios_knl_Clock_logTick__E)
                  0c029fa0    000000c0                  : BIOS.obj (.text:ti_sysbios_knl_Swi_Instance_finalize__F)
                  0c02a060    000000c0                  : BIOS.obj (.text:ti_sysbios_knl_Task_allBlockedFunction__I)
                  0c02a120    000000c0                  : BIOS.obj (.text:ti_sysbios_timers_timer64_Timer_stop__E)
                  0c02a1e0    000000c0     rts6600_elf_mt.lib : tls.obj (.text:tls:init:__TI_tls_init)
                  0c02a2a0    000000c0                        : vfprintf.obj (.text:vfprintf)
                  0c02a360    000000c0     ti.targets.rts6000.ae66 : System.oe66 (.text:xdc_runtime_System_formatNum__I)
                  0c02a420    000000a0     ti.omp.navigator.C6678.ae66 : Navigator.oe66 (.text:Create_Queue)
                  0c02a4c0    000000a0     rts6600_elf_mt.lib : trgdrv.obj (.text:HOSTunlink)
                  0c02a560    000000a0     ti.drv.qmss.ae66 : qmss_drv.oe66 (.text:Qmss_queueClose)
                  0c02a600    000000a0                      : qmss_drv.oe66 (.text:Qmss_startCfg)
                  0c02a6a0    000000a0     rts6600_elf_mt.lib : dtor_list.obj (.text:_Z11__TI_atexitPFYvPvES_S_)
                  0c02a740    000000a0                        : remu.obj (.text:__remu)
                  0c02a7e0    000000a0                        : fopen.obj (.text:_cleanup)
                  0c02a880    000000a0                        : _printfi.obj (.text:_ecpy)
                  0c02a920    000000a0                        : _printfi.obj (.text:_fcpy)
                  0c02a9c0    000000a0                        : _printfi.obj (.text:_pconv_f)
                  0c02aa60    000000a0     sysbios.ae66 : c64p_Hwi_asm.obj (.text:_ti_sysbios_family_c64p_Hwi_plug__E)
                  0c02ab00    000000a0     ti.drv.cppi.ae66 : cppi_heap.oe66 (.text:cppi_internal_heap_malloc)
                  0c02aba0    000000a0     rts6600_elf_mt.lib : lowlev.obj (.text:finddevice)
                  0c02ac40    000000a0     ti.omp.config.sysbios.ae66 : bar.oe66 (.text:gomp_team_barrier_wake)
                  0c02ace0    000000a0     rts6600_elf_mt.lib : lowlev.obj (.text:lseek)
                  0c02ad80    000000a0                        : memcpy64.obj (.text:memcpy)
                  0c02ae20    000000a0                        : _mutex.obj (.text:mutex_unlock)
                  0c02aec0    000000a0     ti.omp.navigator.C6678.ae66 : Navigator.oe66 (.text:queue_push_elem)
                  0c02af60    000000a0     rts6600_elf_mt.lib : strerror.obj (.text:strerror)
                  0c02b000    000000a0     ti.omp.utils.ae66 : ThreadLocalStorage.oe66 (.text:ti_omp_utils_ThreadLocalStorage_createFxn__F)
                  0c02b0a0    000000a0     ipc.ae66 : Ipc.obj (.text:ti_sdo_ipc_family_c647x_Interrupt_intUnregister__E)
                  0c02b140    000000a0              : Ipc.obj (.text:ti_sdo_ipc_gates_GatePeterson_leave__E)
                  0c02b1e0    000000a0              : Ipc.obj (.text:ti_sdo_ipc_notifyDrivers_NotifyDriverShm_Instance_finalize__F)
                  0c02b280    000000a0     sysbios.ae66 : BIOS.obj (.text:ti_sysbios_heaps_HeapMem_init__I)
                  0c02b320    000000a0     omp_config_pe66.oe66 (.text:ti_sysbios_knl_Clock_Object__create__S)
                  0c02b3c0    000000a0     sysbios.ae66 : BIOS.obj (.text:ti_sysbios_knl_Idle_run__E)
                  0c02b460    000000a0                  : BIOS.obj (.text:ti_sysbios_knl_Task_deleteTerminatedTasksFunc__I)
                  0c02b500    000000a0     rts6600_elf_mt.lib : lowlev.obj (.text:write)
                  0c02b5a0    000000a0     ti.targets.rts6000.ae66 : Assert.oe66 (.text:xdc_runtime_Assert_raise__I)
                  0c02b640    000000a0                             : SysMin.oe66 (.text:xdc_runtime_SysMin_abort__F)
                  0c02b6e0    000000a0                             : SysMin.oe66 (.text:xdc_runtime_SysMin_flush__F)
                  0c02b780    000000a0                             : SysMin.oe66 (.text:xdc_runtime_SysMin_putch__F)
                  0c02b820    00000080     rts6600_elf_mt.lib : trgdrv.obj (.text:HOSTclose)
                  0c02b8a0    00000080     ti.drv.qmss.ae66 : qmss_drv.oe66 (.text:Qmss_getMemRegQueueHandle)
                  0c02b920    00000080                      : qmss_drv.oe66 (.text:Qmss_queueOpen)
                  0c02b9a0    00000080     rts6600_elf_mt.lib : _mutex.obj (.text:__TI_resource_lock)
                  0c02ba20    00000080                        : llshift.obj (.text:__c6xabi_llshl)
                  0c02baa0    00000080     sysbios.ae66 : c62_TaskSupport_asm.obj (.text:_ti_sysbios_family_c62_TaskSupport_swap__E)
                  0c02bb20    00000080     ti.drv.cppi.ae66 : cppi_listlib.oe66 (.text:cppi_list_remove)
                  0c02bba0    00000080     ti.omp.config.sysbios.ae66 : bar.oe66 (.text:gomp_barrier_init)
                  0c02bc20    00000080     ti.omp.ae66 : team.oe66 (.text:gomp_new_icv)
                  0c02bca0    00000080     ti.omp.config.sysbios.ae66 : bar.oe66 (.text:gomp_sem_post)
                  0c02bd20    00000080                                : bar.oe66 (.text:gomp_sem_post_num)
                  0c02bda0    00000080                                : preinit.oe66 (.text:initMPAX)
                  0c02be20    00000080     ti.omp.ae66 : critical.oe66 (.text:initialize_critical)
                  0c02bea0    00000080     omp_config_pe66.oe66 (.text:malloc)
                  0c02bf20    00000080     rts6600_elf_mt.lib : _mutex.obj (.text:mutex_lock)
                  0c02bfa0    00000080     ti.omp.utils.ae66 : OpenMPMem.oe66 (.text:ompBufferAlloc)
                  0c02c020    00000080     rts6600_elf_mt.lib : _pthread.obj (.text:pthread_mutex_init)
                  0c02c0a0    00000080                        : trgmsg.obj (.text:readmsg)
                  0c02c120    00000080     ti.omp.utils.C6678.ae66 : OpenMPDnldCore.oe66 (.text:reset_core)
                  0c02c1a0    00000080     omp_config_pe66.oe66 (.text:ti_omp_utils_HeapOMP_Object__create__S)
                  0c02c220    00000080     ti.omp.utils.ae66 : HeapOMP.oe66 (.text:ti_omp_utils_HeapOMP_alloc__E)
                  0c02c2a0    00000080                       : OpenMP.oe66 (.text:ti_omp_utils_OpenMP_exitThread__F)
                  0c02c320    00000080                       : OpenMP.oe66 (.text:ti_omp_utils_OpenMP_setProcId__I)
                  0c02c3a0    00000080     omp_config_pe66.oe66 (.text:ti_sdo_ipc_gates_GateHWSem_Object__create__S)
                  0c02c420    00000080     omp_config_pe66.oe66 (.text:ti_sdo_ipc_gates_GateMPSupportNull_Object__create__S)
                  0c02c4a0    00000080     ipc.ae66 : Ipc.obj (.text:ti_sdo_ipc_nsremote_NameServerRemoteNotify_detach__E)
                  0c02c520    00000080              : Ipc.obj (.text:ti_sdo_ipc_transports_TransportShm_swiFxn__I)
                  0c02c5a0    00000080     omp_config_pe66.oe66 (.text:ti_sdo_utils_List_Object__create__S)
                  0c02c620    00000080     omp_config_pe66.oe66 (.text:ti_sysbios_BIOS_exitFunc__I)
                  0c02c6a0    00000080     sysbios.ae66 : BIOS.obj (.text:ti_sysbios_BIOS_exit__E)
                  0c02c720    00000080                  : BIOS.obj (.text:ti_sysbios_family_c62_TaskSupport_start__E)
                  0c02c7a0    00000080                  : BIOS.obj (.text:ti_sysbios_family_c64p_Exception_Module_startup__F)
                  0c02c820    00000080                  : BIOS.obj (.text:ti_sysbios_family_c64p_Hwi_eventMap__E)
                  0c02c8a0    00000080                  : BIOS.obj (.text:ti_sysbios_family_c66_Cache_invL1pAll__E)
                  0c02c920    00000080                  : BIOS.obj (.text:ti_sysbios_family_c66_Cache_wbInvAll__E)
                  0c02c9a0    00000080     omp_config_pe66.oe66 (.text:ti_sysbios_gates_GateAll_Object__create__S)
                  0c02ca20    00000080     omp_config_pe66.oe66 (.text:ti_sysbios_gates_GateHwi_Object__create__S)
                  0c02caa0    00000080     omp_config_pe66.oe66 (.text:ti_sysbios_gates_GateMutexPri_Object__create__S)
                  0c02cb20    00000080     omp_config_pe66.oe66 (.text:ti_sysbios_gates_GateMutex_Object__create__S)
                  0c02cba0    00000080     omp_config_pe66.oe66 (.text:ti_sysbios_gates_GateSwi_Object__create__S)
                  0c02cc20    00000080     sysbios.ae66 : BIOS.obj (.text:ti_sysbios_gates_GateSwi_leave__E)
                  0c02cca0    00000080                  : BIOS.obj (.text:ti_sysbios_hal_Hwi_checkStack:ti_sysbios_hal_Hwi_checkStack)
                  0c02cd20    00000080     omp_config_pe66.oe66 (.text:ti_sysbios_heaps_HeapMem_Object__create__S)
                  0c02cda0    00000080     sysbios.ae66 : BIOS.obj (.text:ti_sysbios_knl_Clock_Module_startup__F)
                  0c02ce20    00000080     omp_config_pe66.oe66 (.text:ti_sysbios_knl_Clock_doTick__I)
                  0c02cea0    00000080     sysbios.ae66 : BIOS.obj (.text:ti_sysbios_knl_Clock_getTicks__E)
                  0c02cf20    00000080     omp_config_pe66.oe66 (.text:ti_sysbios_knl_Queue_Object__create__S)
                  0c02cfa0    00000080     omp_config_pe66.oe66 (.text:ti_sysbios_knl_Semaphore_Object__create__S)
                  0c02d020    00000080     sysbios.ae66 : BIOS.obj (.text:ti_sysbios_knl_Semaphore_pendTimeout__I)
                  0c02d0a0    00000080                  : BIOS.obj (.text:ti_sysbios_knl_Swi_startup__E)
                  0c02d120    00000080                  : BIOS.obj (.text:ti_sysbios_knl_Task_restore__E)
                  0c02d1a0    00000080                  : BIOS.obj (.text:ti_sysbios_timers_timer64_Timer_getCount__E)
                  0c02d220    00000080                  : BIOS.obj (.text:ti_sysbios_timers_timer64_Timer_getPeriod__E)
                  0c02d2a0    00000080     omp_config_pe66.oe66 (.text:ti_sysbios_xdcruntime_GateThreadSupport_Object__create__S)
                  0c02d320    00000080     rts6600_elf_mt.lib : trgmsg.obj (.text:writemsg)
                  0c02d3a0    00000080     ti.targets.rts6000.ae66 : Core-label.oe66 (.text:xdc_runtime_Core_assignLabel__I)
                  0c02d420    00000080                             : Core-params.oe66 (.text:xdc_runtime_Core_assignParams__I)
                  0c02d4a0    00000080     omp_config_pe66.oe66 (.text:xdc_runtime_SysMin_output__I)
                  0c02d520    00000080     ti.targets.rts6000.ae66 : System.oe66 (.text:xdc_runtime_System_atexit__F)
                  0c02d5a0    00000080                             : System.oe66 (.text:xdc_runtime_System_rtsExit__I)
                  0c02d620    00000080                             : Text.oe66 (.text:xdc_runtime_Text_printVisFxn__I)
                  0c02d6a0    00000080                             : Text.oe66 (.text:xdc_runtime_Text_xprintf__I)
                  0c02d720    00000060     ipc.ae66 : Ipc.obj (.text:GateMP_Params_init)
                  0c02d780    00000060              : Ipc.obj (.text:HeapMemMP_Params_init)
                  0c02d7e0    00000060     ti.omp.utils.ae66 : HeapOMP.oe66 (.text:HeapOMP_getHeapFromAddr)
                  0c02d840    00000060     ipc.ae66 : Ipc.obj (.text:Notify_numIntLines)
                  0c02d8a0    00000060     ti.omp.navigatorOsal.C6678.ae66 : Navigatorosal.oe66 (.text:Osal_cppiCsEnter)
                  0c02d900    00000060                                     : Navigatorosal.oe66 (.text:Osal_qmssCsEnter)
                  0c02d960    00000060     rts6600_elf_mt.lib : frcmpyd_div.obj (.text:__c6xabi_frcmpyd_div)
                  0c02d9c0    00000060                        : llshift.obj (.text:__c6xabi_llshru)
                  0c02da20    00000060                        : imath64.obj (.text:_subcull)
                  0c02da80    00000060     ti.drv.cppi.ae66 : cppi_listlib.oe66 (.text:cppi_list_add)
                  0c02dae0    00000060     rts6600_elf_mt.lib : _mutex.obj (.text:create_resource_mutexes)
                  0c02db40    00000060                        : _mutex.obj (.text:destroy_resource_mutexes)
                  0c02dba0    00000060     ti.omp.navigator.C6678.ae66 : Navigator.oe66 (.text:exit_Navigator)
                  0c02dc00    00000060     ti.omp.config.sysbios.ae66 : bar.oe66 (.text:gomp_barrier_wait)
                  0c02dc60    00000060     ti.omp.ae66 : alloc.oe66 (.text:gomp_free)
                  0c02dcc0    00000060                 : task.oe66 (.text:gomp_init_task)
                  0c02dd20    00000060                 : alloc.oe66 (.text:gomp_malloc)
                  0c02dd80    00000060     ti.omp.config.sysbios.ae66 : bar.oe66 (.text:gomp_team_barrier_wait)
                  0c02dde0    00000060     ti.omp.ae66 : error.oe66 (.text:gomp_verror)
                  0c02de40    00000060     rts6600_elf_mt.lib : memccpy.obj (.text:memccpy)
                  0c02dea0    00000060     ti.omp.utils.ae66 : OpenMPMem.oe66 (.text:ompBufferMgmtInit)
                  0c02df00    00000060     ti.omp.ae66 : env.oe66 (.text:omp_set_num_threads)
                  0c02df60    00000060     rts6600_elf_mt.lib : _pthread.obj (.text:pthread_mutex_destroy)
                  0c02dfc0    00000060     ti.omp.ae66 : team.oe66 (.text:team_destructor)
                  0c02e020    00000060     ti.omp.utils.ae66 : OpenMP.oe66 (.text:ti_omp_utils_OpenMP_mainTask__I)
                  0c02e080    00000060                       : ThreadLocalStorage.oe66 (.text:ti_omp_utils_ThreadLocalStorage_deleteFxn__F)
                  0c02e0e0    00000060     omp_config_pe66.oe66 (.text:ti_sdo_ipc_GateMP_Object__delete__S)
                  0c02e140    00000060     omp_config_pe66.oe66 (.text:ti_sdo_ipc_ListMP_Object__delete__S)
                  0c02e1a0    00000060     ipc.ae66 : Ipc.obj (.text:ti_sdo_ipc_family_c647x_NotifySetup_sharedMemReq__E)
                  0c02e200    00000060              : Ipc.obj (.text:ti_sdo_ipc_gates_GateHWSem_leave__E)
                  0c02e260    00000060              : Ipc.obj (.text:ti_sdo_ipc_gates_GatePeterson_Instance_finalize__F)
                  0c02e2c0    00000060     omp_config_pe66.oe66 (.text:ti_sdo_ipc_gates_GatePeterson_Object__delete__S)
                  0c02e320    00000060     ipc.ae66 : Ipc.obj (.text:ti_sdo_ipc_gates_GatePeterson_sharedMemReq__E)
                  0c02e380    00000060     omp_config_pe66.oe66 (.text:ti_sdo_ipc_heaps_HeapMemMP_Object__delete__S)
                  0c02e3e0    00000060     omp_config_pe66.oe66 (.text:ti_sdo_ipc_notifyDrivers_NotifyDriverShm_Object__delete__S)
                  0c02e440    00000060     ipc.ae66 : Ipc.obj (.text:ti_sdo_ipc_notifyDrivers_NotifyDriverShm_setNotifyHandle__E)
                  0c02e4a0    00000060     omp_config_pe66.oe66 (.text:ti_sdo_ipc_nsremote_NameServerRemoteNotify_Object__delete__S)
                  0c02e500    00000060     ipc.ae66 : Ipc.obj (.text:ti_sdo_ipc_transports_TransportShmSetup_sharedMemReq__E)
                  0c02e560    00000060     omp_config_pe66.oe66 (.text:ti_sdo_ipc_transports_TransportShm_Object__delete__S)
                  0c02e5c0    00000060     sysbios.ae66 : BIOS.obj (.text:ti_sysbios_BIOS_registerRTSLock__I)
                  0c02e620    00000060                  : BIOS.obj (.text:ti_sysbios_family_c64p_EventCombiner_Module_startup__F)
                  0c02e680    00000060                  : BIOS.obj (.text:ti_sysbios_family_c64p_EventCombiner_unused__F)
                  0c02e6e0    00000060     omp_config_pe66.oe66 (.text:ti_sysbios_family_c64p_Hwi_Object__delete__S)
                  0c02e740    00000060     sysbios.ae66 : BIOS.obj (.text:ti_sysbios_family_c66_tci66xx_CpIntc_unused__F)
                  0c02e7a0    00000060                  : BIOS.obj (.text:ti_sysbios_gates_GateAll_enter__E)
                  0c02e800    00000060     omp_config_pe66.oe66 (.text:ti_sysbios_gates_GateMutexPri_Object__delete__S)
                  0c02e860    00000060     sysbios.ae66 : BIOS.obj (.text:ti_sysbios_gates_GateMutex_Instance_init__F)
                  0c02e8c0    00000060     omp_config_pe66.oe66 (.text:ti_sysbios_gates_GateMutex_Object__delete__S)
                  0c02e920    00000060     sysbios.ae66 : BIOS.obj (.text:ti_sysbios_hal_Hwi_initStack:ti_sysbios_hal_Hwi_initStack)
                  0c02e980    00000060                  : BIOS.obj (.text:ti_sysbios_knl_Swi_Module_startup__F)
                  0c02e9e0    00000060     omp_config_pe66.oe66 (.text:ti_sysbios_knl_Task_Object__delete__S)
                  0c02ea40    00000060     sysbios.ae66 : BIOS.obj (.text:ti_sysbios_knl_Task_enter__I)
                  0c02eaa0    00000060     omp_config_pe66.oe66 (.text:ti_sysbios_xdcruntime_GateThreadSupport_Object__delete__S)
                  0c02eb00    00000060     rts6600_elf_mt.lib : lowlev.obj (.text:unlink)
                  0c02eb60    00000060     omp_config_pe66.oe66 (.text:xdc_runtime_GateNull_Object__create__S)
                  0c02ebc0    00000060     ti.targets.rts6000.ae66 : Memory.oe66 (.text:xdc_runtime_Memory_calloc__F)
                  0c02ec20    00000060                             : Memory.oe66 (.text:xdc_runtime_Memory_valloc__F)
                  0c02ec80    00000060                             : SysMin.oe66 (.text:xdc_runtime_SysMin_Module_startup__F)
                  0c02ece0    00000060                             : SysMin.oe66 (.text:xdc_runtime_SysMin_exit__F)
                  0c02ed40    00000060                             : System.oe66 (.text:xdc_runtime_System_avprintf__F)
                  0c02eda0    00000060                             : System.oe66 (.text:xdc_runtime_System_vprintf__F)
                  0c02ee00    00000060                             : Text.oe66 (.text:xdc_runtime_Text_cordText__F)
                  0c02ee60    00000060     omp_config_pe66.oe66 (.text:xdc_runtime_knl_GateThread_Object__delete__S)
                  0c02eec0    00000040     ti.omp.ae66 : barrier.oe66 (.text:GOMP_barrier)
                  0c02ef00    00000040                 : parallel.oe66 (.text:GOMP_parallel_start)
                  0c02ef40    00000040     ti.omp.navigatorOsal.C6678.ae66 : Navigatorosal.oe66 (.text:Osal_cppiFree)
                  0c02ef80    00000040                                     : Navigatorosal.oe66 (.text:Osal_cppiMalloc)
                  0c02efc0    00000040                                     : Navigatorosal.oe66 (.text:Osal_qmssBeginMemAccess)
                  0c02f000    00000040                                     : Navigatorosal.oe66 (.text:Osal_qmssEndMemAccess)
                  0c02f040    00000040     ti.drv.qmss.ae66 : qmss_drv.oe66 (.text:Qmss_getMemRegDescSize)
                  0c02f080    00000040     ti.omp.navigator.C6678.ae66 : Navigator.oe66 (.text:Queue_empty)
                  0c02f0c0    00000040     rts6600_elf_mt.lib : _data_synch.obj (.text:__TI_data_synch_WB)
                  0c02f100    00000040                        : _data_synch.obj (.text:__TI_data_synch_WBINV)
                  0c02f140    00000040                        : _mutex.obj (.text:__TI_resource_unlock)
                  0c02f180    00000040                        : isinf.obj (.text:__c6xabi_isinf)
                  0c02f1c0    00000040                        : _printfi.obj (.text:__c6xabi_isnan)
                  0c02f200    00000040                        : args_main.obj (.text:_args_main)
                  0c02f240    00000040     ti.omp.config.sysbios.ae66 : preinit.oe66 (.text:_system_pre_init)
                  0c02f280    00000040     sysbios.ae66 : c62_TaskSupport_asm.obj (.text:_ti_sysbios_family_c62_TaskSupport_buildTaskStack)
                  0c02f2c0    00000040                  : c64p_Hwi_asm_switch.obj (.text:_ti_sysbios_family_xxx_Hwi_switchToIsrStack)
                  0c02f300    00000040     omp_config_pe66.oe66 (.text:free)
                  0c02f340    00000040     ti.omp.ae66 : team.oe66 (.text:free_team)
                  0c02f380    00000040     ti.omp.config.sysbios.ae66 : bar.oe66 (.text:gomp_barrier_destroy)
                  0c02f3c0    00000040                                : bar.oe66 (.text:gomp_barrier_reinit)
                  0c02f400    00000040     ti.omp.ae66 : task.oe66 (.text:gomp_end_task)
                  0c02f440    00000040                 : error.oe66 (.text:gomp_error)
                  0c02f480    00000040                 : error.oe66 (.text:gomp_fatal)
                  0c02f4c0    00000040                 : work.oe66 (.text:gomp_fini_work_share)
                  0c02f500    00000040                 : team.oe66 (.text:gomp_free_pool_helper)
                  0c02f540    00000040     ti.omp.config.sysbios.ae66 : thread.oe66 (.text:gomp_thread_create)
                  0c02f580    00000040     rts6600_elf_mt.lib : _mutex.obj (.text:init_mutexes)
                  0c02f5c0    00000040     ti.omp.navigator.C6678.ae66 : Navigator.oe66 (.text:l2_global_address)
                  0c02f600    00000040     ti.omp.ae66 : parallel.oe66 (.text:omp_get_num_threads)
                  0c02f640    00000040     rts6600_elf_mt.lib : _pthread.obj (.text:pthread_self)
                  0c02f680    00000040                        : rand.obj (.text:rand)
                  0c02f6c0    00000040     sysbios.ae66 : BIOS.obj (.text:rtsLock$0)
                  0c02f700    00000040     omp_config_pe66.oe66 (.text:ti_omp_utils_HeapOMP_Handle__label__S)
                  0c02f740    00000040     omp_config_pe66.oe66 (.text:ti_omp_utils_HeapOMP_Object__delete__S)
                  0c02f780    00000040     ti.omp.utils.ae66 : HeapOMP.oe66 (.text:ti_omp_utils_HeapOMP_free__E)
                  0c02f7c0    00000040                       : ThreadLocalStorage.oe66 (.text:ti_omp_utils_ThreadLocalStorage_switchFxn__F)
                  0c02f800    00000040                       : ThreadLocal.oe66 (.text:ti_omp_utils_ThreadLocal_createFxn__F)
                  0c02f840    00000040     ipc.ae66 : Ipc.obj (.text:ti_sdo_ipc_family_c647x_Interrupt_intClear__E)
                  0c02f880    00000040              : Ipc.obj (.text:ti_sdo_ipc_family_c647x_Interrupt_intSend__E)
                  0c02f8c0    00000040     omp_config_pe66.oe66 (.text:ti_sdo_ipc_gates_GateHWSem_Handle__label__S)
                  0c02f900    00000040     omp_config_pe66.oe66 (.text:ti_sdo_ipc_gates_GateHWSem_Object__delete__S)
                  0c02f940    00000040     omp_config_pe66.oe66 (.text:ti_sdo_ipc_gates_GateMPSupportNull_Handle__label__S)
                  0c02f980    00000040     omp_config_pe66.oe66 (.text:ti_sdo_ipc_gates_GateMPSupportNull_Object__delete__S)
                  0c02f9c0    00000040     omp_config_pe66.oe66 (.text:ti_sdo_ipc_gates_GatePeterson_Handle__label__S)
                  0c02fa00    00000040     omp_config_pe66.oe66 (.text:ti_sdo_ipc_heaps_HeapMemMP_Handle__label__S)
                  0c02fa40    00000040     omp_config_pe66.oe66 (.text:ti_sdo_ipc_notifyDrivers_NotifyDriverShm_Handle__label__S)
                  0c02fa80    00000040     ipc.ae66 : Ipc.obj (.text:ti_sdo_ipc_notifyDrivers_NotifyDriverShm_disable__E)
                  0c02fac0    00000040              : Ipc.obj (.text:ti_sdo_ipc_notifyDrivers_NotifyDriverShm_enable__E)
                  0c02fb00    00000040     omp_config_pe66.oe66 (.text:ti_sdo_ipc_nsremote_NameServerRemoteNotify_Handle__label__S)
                  0c02fb40    00000040     ipc.ae66 : Ipc.obj (.text:ti_sdo_ipc_nsremote_NameServerRemoteNotify_sharedMemReq__E)
                  0c02fb80    00000040     omp_config_pe66.oe66 (.text:ti_sdo_ipc_transports_TransportShm_Handle__label__S)
                  0c02fbc0    00000040     omp_config_pe66.oe66 (.text:ti_sdo_utils_NameServer_Module__startupDone__F)
                  0c02fc00    00000040     omp_config_pe66.oe66 (.text:ti_sdo_utils_NameServer_Object__get__S)
                  0c02fc40    00000040     omp_config_pe66.oe66 (.text:ti_sysbios_BIOS_startFunc__I)
                  0c02fc80    00000040     sysbios.ae66 : BIOS.obj (.text:ti_sysbios_BIOS_start__E)
                  0c02fcc0    00000040     omp_config_pe66.oe66 (.text:ti_sysbios_family_c64p_Hwi_Module__startupDone__F)
                  0c02fd00    00000040     sysbios.ae66 : BIOS.obj (.text:ti_sysbios_family_c64p_Hwi_disableInterrupt__E)
                  0c02fd40    00000040                  : BIOS.obj (.text:ti_sysbios_family_c64p_Hwi_enableInterrupt__E)
                  0c02fd80    00000040     omp_config_pe66.oe66 (.text:ti_sysbios_gates_GateAll_Handle__label__S)
                  0c02fdc0    00000040     omp_config_pe66.oe66 (.text:ti_sysbios_gates_GateAll_Object__delete__S)
                  0c02fe00    00000040     omp_config_pe66.oe66 (.text:ti_sysbios_gates_GateHwi_Handle__label__S)
                  0c02fe40    00000040     omp_config_pe66.oe66 (.text:ti_sysbios_gates_GateHwi_Object__delete__S)
                  0c02fe80    00000040     omp_config_pe66.oe66 (.text:ti_sysbios_gates_GateMutexPri_Handle__label__S)
                  0c02fec0    00000040     sysbios.ae66 : BIOS.obj (.text:ti_sysbios_gates_GateMutexPri_Instance_finalize__F)
                  0c02ff00    00000040                  : BIOS.obj (.text:ti_sysbios_gates_GateMutexPri_Instance_init__F)
                  0c02ff40    00000040     omp_config_pe66.oe66 (.text:ti_sysbios_gates_GateMutexPri_Object__destruct__S)
                  0c02ff80    00000040     omp_config_pe66.oe66 (.text:ti_sysbios_gates_GateMutex_Handle__label__S)
                  0c02ffc0    00000040     sysbios.ae66 : BIOS.obj (.text:ti_sysbios_gates_GateMutex_Instance_finalize__F)
                  0c030000    00000040                  : BIOS.obj (.text:ti_sysbios_gates_GateMutex_leave__E)
                  0c030040    00000040     omp_config_pe66.oe66 (.text:ti_sysbios_gates_GateSwi_Handle__label__S)
                  0c030080    00000040     omp_config_pe66.oe66 (.text:ti_sysbios_gates_GateSwi_Object__delete__S)
                  0c0300c0    00000040     omp_config_pe66.oe66 (.text:ti_sysbios_hal_Timer_Module__startupDone__F)
                  0c030100    00000040     omp_config_pe66.oe66 (.text:ti_sysbios_heaps_HeapMem_Handle__label__S)
                  0c030140    00000040     omp_config_pe66.oe66 (.text:ti_sysbios_heaps_HeapMem_Object__delete__S)
                  0c030180    00000040     omp_config_pe66.oe66 (.text:ti_sysbios_heaps_HeapMem_Object__get__S)
                  0c0301c0    00000040     omp_config_pe66.oe66 (.text:ti_sysbios_knl_Clock_Object__destruct__S)
                  0c030200    00000040     sysbios.ae66 : BIOS.obj (.text:ti_sysbios_knl_Semaphore_Instance_finalize__F)
                  0c030240    00000040     omp_config_pe66.oe66 (.text:ti_sysbios_knl_Semaphore_Object__destruct__S)
                  0c030280    00000040     omp_config_pe66.oe66 (.text:ti_sysbios_knl_Swi_Object__destruct__S)
                  0c0302c0    00000040     omp_config_pe66.oe66 (.text:ti_sysbios_knl_Swi_Object__get__S)
                  0c030300    00000040     omp_config_pe66.oe66 (.text:ti_sysbios_knl_Task_Object__get__S)
                  0c030340    00000040     omp_config_pe66.oe66 (.text:ti_sysbios_timers_timer64_Timer_Module__startupDone__F)
                  0c030380    00000040     sysbios.ae66 : BIOS.obj (.text:ti_sysbios_xdcruntime_GateThreadSupport_Instance_finalize__F)
                  0c0303c0    00000040                  : BIOS.obj (.text:ti_sysbios_xdcruntime_GateThreadSupport_Instance_init__F)
                  0c030400    00000040                  : BIOS.obj (.text:ti_sysbios_xdcruntime_GateThreadSupport_enter__F)
                  0c030440    00000040                  : BIOS.obj (.text:ti_sysbios_xdcruntime_GateThreadSupport_leave__F)
                  0c030480    00000040     ti.targets.rts6000.ae66 : Error.oe66 (.text:xdc_runtime_Error_check__F)
                  0c0304c0    00000040                             : Error.oe66 (.text:xdc_runtime_Error_init__F)
                  0c030500    00000040     omp_config_pe66.oe66 (.text:xdc_runtime_GateNull_Handle__label__S)
                  0c030540    00000040     omp_config_pe66.oe66 (.text:xdc_runtime_GateNull_Object__delete__S)
                  0c030580    00000040     ti.targets.rts6000.ae66 : Gate.oe66 (.text:xdc_runtime_Gate_leaveSystem__F)
                  0c0305c0    00000040                             : Memory.oe66 (.text:xdc_runtime_Memory_free__F)
                  0c030600    00000040                             : Registry.oe66 (.text:xdc_runtime_Registry_findById__F)
                  0c030640    00000040                             : System.oe66 (.text:xdc_runtime_System_abort__F)
                  0c030680    00000040     omp_config_pe66.oe66 (.text:xdc_runtime_System_aprintf__E)
                  0c0306c0    00000040     omp_config_pe66.oe66 (.text:xdc_runtime_System_printf__E)
                  0c030700    00000040     ti.targets.rts6000.ae66 : Text.oe66 (.text:xdc_runtime_Text_ropeText__F)
                  0c030740    00000040     omp_config_pe66.oe66 (.text:xdc_runtime_knl_GateThread_Handle__label__S)
                  0c030780    00000040     ti.targets.rts6000.ae66 : GateThread.oe66 (.text:xdc_runtime_knl_GateThread_Instance_finalize__F)
                  0c0307c0    00000040                             : GateThread.oe66 (.text:xdc_runtime_knl_GateThread_Instance_init__F)
                  0c030800    00000020     ti.drv.cppi.ae66 : cppi_drv.oe66 (.text:Cppi_init)
                  0c030820    00000020     ipc.ae66 : Ipc.obj (.text:GateMP_getDefaultRemote)
                  0c030840    00000020              : Ipc.obj (.text:MultiProc_getBaseIdOfCluster)
                  0c030860    00000020              : Ipc.obj (.text:MultiProc_getNumProcsInCluster)
                  0c030880    00000020              : Ipc.obj (.text:MultiProc_self)
                  0c0308a0    00000020     ti.omp.navigatorOsal.C6678.ae66 : Navigatorosal.oe66 (.text:Osal_cppiBeginMemAccess)
                  0c0308c0    00000020                                     : Navigatorosal.oe66 (.text:Osal_cppiCsExit)
                  0c0308e0    00000020                                     : Navigatorosal.oe66 (.text:Osal_cppiEndMemAccess)
                  0c030900    00000020                                     : Navigatorosal.oe66 (.text:Osal_qmssCsExit)
                  0c030920    00000020     ti.drv.qmss.ae66 : qmss_drv.oe66 (.text:Qmss_getQueueNumber)
                  0c030940    00000020                      : qmss_drv.oe66 (.text:Qmss_start)
                  0c030960    00000020     rts6600_elf_mt.lib : _data_synch.obj (.text:__TI_data_synch_INV)
                  0c030980    00000020                        : errno.obj (.text:__c6xabi_errno_addr)
                  0c0309a0    00000020                        : negll.obj (.text:__c6xabi_negll)
                  0c0309c0    00000020                        : dtor_list.obj (.text:__cxa_atexit)
                  0c0309e0    00000020                        : dtor_list.obj (.text:__cxa_ia64_exit)
                  0c030a00    00000020     ti.targets.rts6000.ae66 : xdc_noinit.oe66 (.text:__xdc__init)
                  0c030a20    00000020     rts6600_elf_mt.lib : _lock.obj (.text:_nop)
                  0c030a40    00000020                        : printf.obj (.text:_outc)
                  0c030a60    00000020                        : vfprintf.obj (.text:_outc)
                  0c030a80    00000020                        : printf.obj (.text:_outs)
                  0c030aa0    00000020                        : vfprintf.obj (.text:_outs)
                  0c030ac0    00000020                        : _lock.obj (.text:_register_lock)
                  0c030ae0    00000020                        : _lock.obj (.text:_register_unlock)
                  0c030b00    00000020     sysbios.ae66 : c62_TaskSupport_asm.obj (.text:_ti_sysbios_family_c62_TaskSupport_glue)
                  0c030b20    00000020                  : c64p_Hwi_asm_switch.obj (.text:_ti_sysbios_family_xxx_Hwi_switchToTaskStack)
                  0c030b40    00000020     rts6600_elf_mt.lib : exit.obj (.text:abort)
                  0c030b60    00000020                        : dtor_list.obj (.text:atexit)
                  0c030b80    00000020     ti.drv.cppi.ae66 : cppi_listlib.oe66 (.text:cppi_list_get_head)
                  0c030ba0    00000020     rts6600_elf_mt.lib : copy_decompress_none.obj (.text:decompress:none:__TI_decompress_none)
                  0c030bc0    00000020                        : copy_decompress_rle.obj (.text:decompress:rle24:__TI_decompress_rle24)
                  0c030be0    00000020                        : _mutex.obj (.text:delete_mutexes)
                  0c030c00    00000020                        : getenv.obj (.text:getenv)
                  0c030c20    00000020     ti.omp.ae66 : env.oe66 (.text:getenv)
                  0c030c40    00000020     ti.omp.config.sysbios.ae66 : proc.oe66 (.text:gomp_dynamic_max_threads)
                  0c030c60    00000020                                : affinity.oe66 (.text:gomp_init_affinity)
                  0c030c80    00000020                                : proc.oe66 (.text:gomp_init_num_threads)
                  0c030ca0    00000020                                : affinity.oe66 (.text:gomp_init_thread_affinity)
                  0c030cc0    00000020     ti.omp.ae66 : team.oe66 (.text:gomp_new_thread_pool)
                  0c030ce0    00000020     rts6600_elf_mt.lib : _mutex.obj (.text:mutex_destroy)
                  0c030d00    00000020     sysbios.ae66 : BIOS.obj (.text:nullFunc$0)
                  0c030d20    00000020     ti.omp.ae66 : parallel.oe66 (.text:omp_get_thread_num)
                  0c030d40    00000020     rts6600_elf_mt.lib : _pthread.obj (.text:pthread_equal)
                  0c030d60    00000020     ti.omp.utils.ae66 : HeapOMP.oe66 (.text:ti_omp_utils_HeapOMP_Instance_init__F)
                  0c030d80    00000020                       : HeapOMP.oe66 (.text:ti_omp_utils_HeapOMP_getStats__E)
                  0c030da0    00000020                       : HeapOMP.oe66 (.text:ti_omp_utils_HeapOMP_isBlocking__F)
                  0c030dc0    00000020                       : OpenMP.oe66 (.text:ti_omp_utils_OpenMP_useSharedHeap__F)
                  0c030de0    00000020                       : ThreadLocalStorage.oe66 (.text:ti_omp_utils_ThreadLocalStorage_registerFxn__F)
                  0c030e00    00000020                       : ThreadLocal.oe66 (.text:ti_omp_utils_ThreadLocal_registerFxn__F)
                  0c030e20    00000020     omp_config_pe66.oe66 (.text:ti_sdo_ipc_GateMP_Params__init__S)
                  0c030e40    00000020     omp_config_pe66.oe66 (.text:ti_sdo_ipc_GateMP_RemoteCustom1Proxy_Object__create__S)
                  0c030e60    00000020     omp_config_pe66.oe66 (.text:ti_sdo_ipc_GateMP_RemoteCustom1Proxy_Object__delete__S)
                  0c030e80    00000020     omp_config_pe66.oe66 (.text:ti_sdo_ipc_GateMP_RemoteCustom1Proxy_Params__init__S)
                  0c030ea0    00000020     omp_config_pe66.oe66 (.text:ti_sdo_ipc_GateMP_RemoteCustom1Proxy_Proxy__abstract__S)
                  0c030ec0    00000020     omp_config_pe66.oe66 (.text:ti_sdo_ipc_GateMP_RemoteCustom1Proxy_Proxy__delegate__S)
                  0c030ee0    00000020     omp_config_pe66.oe66 (.text:ti_sdo_ipc_GateMP_RemoteCustom2Proxy_Object__create__S)
                  0c030f00    00000020     omp_config_pe66.oe66 (.text:ti_sdo_ipc_GateMP_RemoteCustom2Proxy_Object__delete__S)
                  0c030f20    00000020     omp_config_pe66.oe66 (.text:ti_sdo_ipc_GateMP_RemoteCustom2Proxy_Params__init__S)
                  0c030f40    00000020     omp_config_pe66.oe66 (.text:ti_sdo_ipc_GateMP_RemoteCustom2Proxy_Proxy__abstract__S)
                  0c030f60    00000020     omp_config_pe66.oe66 (.text:ti_sdo_ipc_GateMP_RemoteCustom2Proxy_Proxy__delegate__S)
                  0c030f80    00000020     omp_config_pe66.oe66 (.text:ti_sdo_ipc_GateMP_RemoteSystemProxy_Object__create__S)
                  0c030fa0    00000020     omp_config_pe66.oe66 (.text:ti_sdo_ipc_GateMP_RemoteSystemProxy_Object__delete__S)
                  0c030fc0    00000020     omp_config_pe66.oe66 (.text:ti_sdo_ipc_GateMP_RemoteSystemProxy_Params__init__S)
                  0c030fe0    00000020     omp_config_pe66.oe66 (.text:ti_sdo_ipc_GateMP_RemoteSystemProxy_Proxy__abstract__S)
                  0c031000    00000020     omp_config_pe66.oe66 (.text:ti_sdo_ipc_GateMP_RemoteSystemProxy_Proxy__delegate__S)
                  0c031020    00000020     ipc.ae66 : Ipc.obj (.text:ti_sdo_ipc_GateMP_getSharedAddr__F)
                  0c031040    00000020     omp_config_pe66.oe66 (.text:ti_sdo_ipc_ListMP_Params__init__S)
                  0c031060    00000020     omp_config_pe66.oe66 (.text:ti_sdo_ipc_MessageQ_Object__get__S)
                  0c031080    00000020     omp_config_pe66.oe66 (.text:ti_sdo_ipc_Notify_Module_GateProxy_enter__E)
                  0c0310a0    00000020     omp_config_pe66.oe66 (.text:ti_sdo_ipc_Notify_Module_GateProxy_leave__E)
                  0c0310c0    00000020     ipc.ae66 : Ipc.obj (.text:ti_sdo_ipc_family_c647x_Interrupt_intDisable__E)
                  0c0310e0    00000020              : Ipc.obj (.text:ti_sdo_ipc_family_c647x_Interrupt_intEnable__E)
                  0c031100    00000020              : Ipc.obj (.text:ti_sdo_ipc_family_c647x_NotifySetup_numIntLines__E)
                  0c031120    00000020     omp_config_pe66.oe66 (.text:ti_sdo_ipc_gates_GateHWSem_Params__init__S)
                  0c031140    00000020     ipc.ae66 : Ipc.obj (.text:ti_sdo_ipc_gates_GateHWSem_getReservedMask__E)
                  0c031160    00000020              : Ipc.obj (.text:ti_sdo_ipc_gates_GateHWSem_query__F)
                  0c031180    00000020              : Ipc.obj (.text:ti_sdo_ipc_gates_GateHWSem_sharedMemReq__E)
                  0c0311a0    00000020              : Ipc.obj (.text:ti_sdo_ipc_gates_GateMPSupportNull_Instance_init__F)
                  0c0311c0    00000020     omp_config_pe66.oe66 (.text:ti_sdo_ipc_gates_GateMPSupportNull_Params__init__S)
                  0c0311e0    00000020     ipc.ae66 : Ipc.obj (.text:ti_sdo_ipc_gates_GateMPSupportNull_getReservedMask__E)
                  0c031200    00000020              : Ipc.obj (.text:ti_sdo_ipc_gates_GateMPSupportNull_query__F)
                  0c031220    00000020              : Ipc.obj (.text:ti_sdo_ipc_gates_GateMPSupportNull_sharedMemReq__E)
                  0c031240    00000020     omp_config_pe66.oe66 (.text:ti_sdo_ipc_gates_GatePeterson_Params__init__S)
                  0c031260    00000020     ipc.ae66 : Ipc.obj (.text:ti_sdo_ipc_gates_GatePeterson_getReservedMask__E)
                  0c031280    00000020              : Ipc.obj (.text:ti_sdo_ipc_gates_GatePeterson_query__F)
                  0c0312a0    00000020     omp_config_pe66.oe66 (.text:ti_sdo_ipc_heaps_HeapMemMP_Params__init__S)
                  0c0312c0    00000020     ipc.ae66 : Ipc.obj (.text:ti_sdo_ipc_heaps_HeapMemMP_isBlocking__F)
                  0c0312e0    00000020     omp_config_pe66.oe66 (.text:ti_sdo_ipc_notifyDrivers_NotifyDriverShm_Params__init__S)
                  0c031300    00000020     omp_config_pe66.oe66 (.text:ti_sdo_ipc_nsremote_NameServerRemoteNotify_Object__first__S)
                  0c031320    00000020     omp_config_pe66.oe66 (.text:ti_sdo_ipc_nsremote_NameServerRemoteNotify_Object__next__S)
                  0c031340    00000020     omp_config_pe66.oe66 (.text:ti_sdo_ipc_nsremote_NameServerRemoteNotify_Params__init__S)
                  0c031360    00000020     ipc.ae66 : Ipc.obj (.text:ti_sdo_ipc_nsremote_NameServerRemoteNotify_cbFxn__I)
                  0c031380    00000020              : Ipc.obj (.text:ti_sdo_ipc_transports_TransportShmSetup_isRegistered__E)
                  0c0313a0    00000020     omp_config_pe66.oe66 (.text:ti_sdo_ipc_transports_TransportShm_Params__init__S)
                  0c0313c0    00000020     ipc.ae66 : Ipc.obj (.text:ti_sdo_ipc_transports_TransportShm_control__E)
                  0c0313e0    00000020              : Ipc.obj (.text:ti_sdo_ipc_transports_TransportShm_getStatus__E)
                  0c031400    00000020              : Ipc.obj (.text:ti_sdo_ipc_transports_TransportShm_notifyFxn__I)
                  0c031420    00000020              : Ipc.obj (.text:ti_sdo_ipc_transports_TransportShm_setErrFxn__F)
                  0c031440    00000020              : Ipc.obj (.text:ti_sdo_utils_List_Instance_init__F)
                  0c031460    00000020     omp_config_pe66.oe66 (.text:ti_sdo_utils_List_Object__destruct__S)
                  0c031480    00000020     omp_config_pe66.oe66 (.text:ti_sdo_utils_List_Object__get__S)
                  0c0314a0    00000020     ipc.ae66 : Ipc.obj (.text:ti_sdo_utils_MultiProc_getClusterId__F)
                  0c0314c0    00000020     omp_config_pe66.oe66 (.text:ti_sdo_utils_NameServer_Object__first__S)
                  0c0314e0    00000020     omp_config_pe66.oe66 (.text:ti_sdo_utils_NameServer_Object__next__S)
                  0c031500    00000020     omp_config_pe66.oe66 (.text:ti_sysbios_BIOS_RtsGateProxy_enter__E)
                  0c031520    00000020     omp_config_pe66.oe66 (.text:ti_sysbios_BIOS_RtsGateProxy_leave__E)
                  0c031540    00000020     sysbios.ae66 : BIOS.obj (.text:ti_sysbios_BIOS_getThreadType__E)
                  0c031560    00000020                  : BIOS.obj (.text:ti_sysbios_BIOS_setThreadType__E)
                  0c031580    00000020     omp_config_pe66.oe66 (.text:ti_sysbios_family_c62_TaskSupport_Module__startupDone__S)
                  0c0315a0    00000020     sysbios.ae66 : BIOS.obj (.text:ti_sysbios_family_c62_TaskSupport_getStackAlignment__E)
                  0c0315c0    00000020     omp_config_pe66.oe66 (.text:ti_sysbios_family_c64p_Hwi_Params__init__S)
                  0c0315e0    00000020     sysbios.ae66 : BIOS.obj (.text:ti_sysbios_family_c64p_Hwi_clearInterrupt__E)
                  0c031600    00000020                  : BIOS.obj (.text:ti_sysbios_family_c64p_Hwi_getHandle__E)
                  0c031620    00000020                  : BIOS.obj (.text:ti_sysbios_family_c64p_Hwi_startup__E)
                  0c031640    00000020                  : BIOS.obj (.text:ti_sysbios_family_c64p_Hwi_switchFromBootStack__E)
                  0c031660    00000020                  : BIOS.obj (.text:ti_sysbios_family_c64p_Hwi_unPluggedInterrupt__I)
                  0c031680    00000020                  : BIOS.obj (.text:ti_sysbios_family_c64p_TimestampProvider_Module_startup__F)
                  0c0316a0    00000020                  : BIOS.obj (.text:ti_sysbios_family_c64p_TimestampProvider_get32__E)
                  0c0316c0    00000020                  : BIOS.obj (.text:ti_sysbios_family_c64p_tci6488_TimerSupport_enable__E)
                  0c0316e0    00000020                  : BIOS.obj (.text:ti_sysbios_family_c66_Cache_inv__E)
                  0c031700    00000020                  : BIOS.obj (.text:ti_sysbios_family_c66_Cache_wbInv__E)
                  0c031720    00000020                  : BIOS.obj (.text:ti_sysbios_gates_GateAll_Instance_init__F)
                  0c031740    00000020                  : BIOS.obj (.text:ti_sysbios_gates_GateAll_query__F)
                  0c031760    00000020                  : BIOS.obj (.text:ti_sysbios_gates_GateHwi_Instance_init__F)
                  0c031780    00000020                  : BIOS.obj (.text:ti_sysbios_gates_GateHwi_enter__E)
                  0c0317a0    00000020                  : BIOS.obj (.text:ti_sysbios_gates_GateHwi_leave__E)
                  0c0317c0    00000020                  : BIOS.obj (.text:ti_sysbios_gates_GateHwi_query__F)
                  0c0317e0    00000020                  : BIOS.obj (.text:ti_sysbios_gates_GateMutexPri_query__F)
                  0c031800    00000020                  : BIOS.obj (.text:ti_sysbios_gates_GateMutex_query__F)
                  0c031820    00000020                  : BIOS.obj (.text:ti_sysbios_gates_GateSwi_Instance_init__F)
                  0c031840    00000020                  : BIOS.obj (.text:ti_sysbios_gates_GateSwi_query__F)
                  0c031860    00000020     omp_config_pe66.oe66 (.text:ti_sysbios_hal_Hwi_HwiProxy_Module__startupDone__S)
                  0c031880    00000020     sysbios.ae66 : BIOS.obj (.text:ti_sysbios_hal_Hwi_Module_startup__F)
                  0c0318a0    00000020                  : BIOS.obj (.text:ti_sysbios_hal_Timer_Module_startup__F)
                  0c0318c0    00000020     omp_config_pe66.oe66 (.text:ti_sysbios_hal_Timer_TimerProxy_Module__startupDone__S)
                  0c0318e0    00000020     omp_config_pe66.oe66 (.text:ti_sysbios_hal_Timer_TimerProxy_getExpiredCounts__E)
                  0c031900    00000020     omp_config_pe66.oe66 (.text:ti_sysbios_hal_Timer_TimerProxy_getPeriod__E)
                  0c031920    00000020     omp_config_pe66.oe66 (.text:ti_sysbios_hal_Timer_TimerProxy_setNextTick__E)
                  0c031940    00000020     omp_config_pe66.oe66 (.text:ti_sysbios_heaps_HeapBuf_Object__get__S)
                  0c031960    00000020     omp_config_pe66.oe66 (.text:ti_sysbios_heaps_HeapMem_Module_GateProxy_enter__E)
                  0c031980    00000020     omp_config_pe66.oe66 (.text:ti_sysbios_heaps_HeapMem_Module_GateProxy_leave__E)
                  0c0319a0    00000020     sysbios.ae66 : BIOS.obj (.text:ti_sysbios_heaps_HeapMem_isBlocking__E)
                  0c0319c0    00000020     omp_config_pe66.oe66 (.text:ti_sysbios_knl_Clock_Params__init__S)
                  0c0319e0    00000020     sysbios.ae66 : BIOS.obj (.text:ti_sysbios_knl_Idle_loop__E)
                  0c031a00    00000020                  : BIOS.obj (.text:ti_sysbios_knl_Queue_Instance_init__F)
                  0c031a20    00000020     omp_config_pe66.oe66 (.text:ti_sysbios_knl_Queue_Object__destruct__S)
                  0c031a40    00000020     omp_config_pe66.oe66 (.text:ti_sysbios_knl_Queue_Object__get__S)
                  0c031a60    00000020     sysbios.ae66 : BIOS.obj (.text:ti_sysbios_knl_Queue_empty__E)
                  0c031a80    00000020     omp_config_pe66.oe66 (.text:ti_sysbios_knl_Semaphore_Params__init__S)
                  0c031aa0    00000020     omp_config_pe66.oe66 (.text:ti_sysbios_knl_Swi_Params__init__S)
                  0c031ac0    00000020     sysbios.ae66 : BIOS.obj (.text:ti_sysbios_knl_Swi_disable__E)
                  0c031ae0    00000020     omp_config_pe66.oe66 (.text:ti_sysbios_knl_Task_Object__first__S)
                  0c031b00    00000020     omp_config_pe66.oe66 (.text:ti_sysbios_knl_Task_Object__next__S)
                  0c031b20    00000020     omp_config_pe66.oe66 (.text:ti_sysbios_knl_Task_Params__init__S)
                  0c031b40    00000020     omp_config_pe66.oe66 (.text:ti_sysbios_knl_Task_SupportProxy_Module__startupDone__S)
                  0c031b60    00000020     sysbios.ae66 : BIOS.obj (.text:ti_sysbios_knl_Task_disable__E)
                  0c031b80    00000020                  : BIOS.obj (.text:ti_sysbios_knl_Task_getHookContext__E)
                  0c031ba0    00000020                  : BIOS.obj (.text:ti_sysbios_knl_Task_getPri__E)
                  0c031bc0    00000020                  : BIOS.obj (.text:ti_sysbios_knl_Task_self__E)
                  0c031be0    00000020                  : BIOS.obj (.text:ti_sysbios_knl_Task_setHookContext__E)
                  0c031c00    00000020                  : BIOS.obj (.text:ti_sysbios_knl_Task_startup__E)
                  0c031c20    00000020                  : BIOS.obj (.text:ti_sysbios_timers_timer64_Timer_setNextTick__E)
                  0c031c40    00000020     rts6600_elf_mt.lib : tls.obj (.text:tls:block_size:__TI_tls_block_size)
                  0c031c60    00000020                        : tls_get_tp.obj (.text:tls:get_tp)
                  0c031c80    00000020     ti.targets.rts6000.ae66 : GateNull.oe66 (.text:xdc_runtime_GateNull_enter__F)
                  0c031ca0    00000020                             : GateNull.oe66 (.text:xdc_runtime_GateNull_leave__F)
                  0c031cc0    00000020                             : GateNull.oe66 (.text:xdc_runtime_GateNull_query__F)
                  0c031ce0    00000020                             : Gate.oe66 (.text:xdc_runtime_Gate_enterSystem__F)
                  0c031d00    00000020     omp_config_pe66.oe66 (.text:xdc_runtime_IHeap_alloc)
                  0c031d20    00000020     omp_config_pe66.oe66 (.text:xdc_runtime_IHeap_free)
                  0c031d40    00000020     omp_config_pe66.oe66 (.text:xdc_runtime_Memory_HeapProxy_alloc__E)
                  0c031d60    00000020     omp_config_pe66.oe66 (.text:xdc_runtime_Memory_HeapProxy_free__E)
                  0c031d80    00000020     ti.targets.rts6000.ae66 : Memory.oe66 (.text:xdc_runtime_Memory_getMaxDefaultTypeAlign__F)
                  0c031da0    00000020     omp_config_pe66.oe66 (.text:xdc_runtime_Startup_Module__startupDone__S)
                  0c031dc0    00000020     omp_config_pe66.oe66 (.text:xdc_runtime_Startup_exec__I)
                  0c031de0    00000020     omp_config_pe66.oe66 (.text:xdc_runtime_Startup_reset__I)
                  0c031e00    00000020     ti.targets.rts6000.ae66 : Startup.oe66 (.text:xdc_runtime_Startup_rtsDone__F)
                  0c031e20    00000020                             : SysMin.oe66 (.text:xdc_runtime_SysMin_ready__F)
                  0c031e40    00000020     omp_config_pe66.oe66 (.text:xdc_runtime_System_Module_GateProxy_enter__E)
                  0c031e60    00000020     omp_config_pe66.oe66 (.text:xdc_runtime_System_Module_GateProxy_leave__E)
                  0c031e80    00000020     ti.targets.rts6000.ae66 : System.oe66 (.text:xdc_runtime_System_Module_startup__F)
                  0c031ea0    00000020                             : System.oe66 (.text:xdc_runtime_System_exit__F)
                  0c031ec0    00000020                             : System.oe66 (.text:xdc_runtime_System_lastFxn__I)
                  0c031ee0    00000020                             : System.oe66 (.text:xdc_runtime_System_vsprintf__F)
                  0c031f00    00000020     omp_config_pe66.oe66 (.text:xdc_runtime_Text_visitRope__I)
                  0c031f20    00000020     omp_config_pe66.oe66 (.text:xdc_runtime_knl_GateThread_Module__startupDone__S)
                  0c031f40    00000020     omp_config_pe66.oe66 (.text:xdc_runtime_knl_GateThread_Proxy_Object__create__S)
                  0c031f60    00000020     omp_config_pe66.oe66 (.text:xdc_runtime_knl_GateThread_Proxy_Object__delete__S)
                  0c031f80    00000020     omp_config_pe66.oe66 (.text:xdc_runtime_knl_GateThread_Proxy_enter__E)
                  0c031fa0    00000020     omp_config_pe66.oe66 (.text:xdc_runtime_knl_GateThread_Proxy_leave__E)
                  0c031fc0    00000020     ti.targets.rts6000.ae66 : GateThread.oe66 (.text:xdc_runtime_knl_GateThread_enter__F)
                  0c031fe0    00000020                             : GateThread.oe66 (.text:xdc_runtime_knl_GateThread_leave__F)

.const     0    0c032000    00004f0e     
                  0c032000    000028cd     omp_config_pe66.oe66 (.const:xdc_runtime_Text_charTab__A)
                  0c0348cd    00000003     --HOLE-- [fill = 0]
                  0c0348d0    00000500     sysbios.ae66 : BIOS.obj (.const:.string)
                  0c034dd0    00000400     omp_config_pe66.oe66 (.const:ti_sysbios_family_c66_Cache_marvalues__C)
                  0c0351d0    00000396     ti.omp.navigator.C6678.ae66 : Navigator.oe66 (.const:.string)
                  0c035566    00000233     ti.omp.ae66 : env.oe66 (.const:.string)
                  0c035799    00000003     --HOLE-- [fill = 0]
                  0c03579c    00000004     ti.targets.rts6000.ae66 : Assert.oe66 (.const:.string)
                  0c0357a0    000001a8     omp_config_pe66.oe66 (.const:xdc_runtime_Text_nodeTab__A)
                  0c035948    00000101     rts6600_elf_mt.lib : ctype.obj (.const:.string:_ctypes_)
                  0c035a49    00000003     --HOLE-- [fill = 0]
                  0c035a4c    000000df     omp_config_pe66.oe66 (.const:.string)
                  0c035b2b    00000001     --HOLE-- [fill = 0]
                  0c035b2c    00000004     omp_config_pe66.oe66 (.const:ti_omp_utils_OpenMP_baseIdOfCluster__C)
                  0c035b30    000000a0     omp_config_pe66.oe66 (.const:ti_sysbios_family_c66_tci66xx_CpIntc_sysIntToHostInt__A)
                  0c035bd0    0000006a     ti.omp.ae66 : team.oe66 (.const:.string)
                  0c035c3a    00000061     rts6600_elf_mt.lib : strerror.obj (.const:.string)
                  0c035c9b    00000001     --HOLE-- [fill = 0]
                  0c035c9c    00000058     ti.targets.rts6000.ae66 : Error.oe66 (.const:.string)
                  0c035cf4    00000004     omp_config_pe66.oe66 (.const:ti_omp_utils_OpenMP_cppiHwSem__C)
                  0c035cf8    00000050     omp_config_pe66.oe66 (.const:xdc_runtime_Startup_sfxnTab__A)
                  0c035d48    0000004f     ti.omp.utils.ae66 : OpenMP.oe66 (.const:.string)
                  0c035d97    00000001     --HOLE-- [fill = 0]
                  0c035d98    00000040     ti.targets.rts6000.ae66 : Text.oe66 (.const:.string)
                  0c035dd8    0000003c     omp_config_pe66.oe66 (.const:ti_sysbios_knl_Task_Object__PARAMS__C)
                  0c035e14    00000038     omp_config_pe66.oe66 (.const:ti_sdo_ipc_notifyDrivers_NotifyDriverShm_Module__FXNS__C)
                  0c035e4c    00000034     omp_config_pe66.oe66 (.const:ti_sdo_ipc_GateMP_Object__PARAMS__C)
                  0c035e80    00000034     omp_config_pe66.oe66 (.const:ti_sdo_ipc_notifyDrivers_NotifyDriverShm_Object__PARAMS__C)
                  0c035eb4    00000030     omp_config_pe66.oe66 (.const:ti_sdo_ipc_heaps_HeapMemMP_Object__PARAMS__C)
                  0c035ee4    00000030     omp_config_pe66.oe66 (.const:ti_sysbios_family_c64p_Hwi_Object__PARAMS__C)
                  0c035f14    00000004     omp_config_pe66.oe66 (.const:ti_omp_utils_OpenMP_masterFxn__C)
                  0c035f18    00000030     omp_config_pe66.oe66 (.const:ti_sysbios_knl_Task_hooks__A)
                  0c035f48    0000002c     ti.targets.rts6000.ae66 : Startup.oe66 (.const:.string)
                  0c035f74    0000002c     omp_config_pe66.oe66 (.const:ti_sdo_ipc_ListMP_Object__PARAMS__C)
                  0c035fa0    0000002c     omp_config_pe66.oe66 (.const:ti_sdo_ipc_gates_GateHWSem_Module__FXNS__C)
                  0c035fcc    0000002c     omp_config_pe66.oe66 (.const:ti_sdo_ipc_gates_GateMPSupportNull_Module__FXNS__C)
                  0c035ff8    0000002c     omp_config_pe66.oe66 (.const:ti_sdo_ipc_gates_GatePeterson_Module__FXNS__C)
                  0c036024    00000028     omp_config_pe66.oe66 (.const:ti_omp_utils_HeapOMP_Module__FXNS__C)
                  0c03604c    00000028     omp_config_pe66.oe66 (.const:ti_sdo_ipc_heaps_HeapMemMP_Module__FXNS__C)
                  0c036074    00000028     omp_config_pe66.oe66 (.const:ti_sdo_ipc_nsremote_NameServerRemoteNotify_Module__FXNS__C)
                  0c03609c    00000028     omp_config_pe66.oe66 (.const:ti_sdo_ipc_transports_TransportShm_Module__FXNS__C)
                  0c0360c4    00000028     omp_config_pe66.oe66 (.const:ti_sdo_ipc_transports_TransportShm_Object__PARAMS__C)
                  0c0360ec    00000028     omp_config_pe66.oe66 (.const:ti_sysbios_heaps_HeapMem_Module__FXNS__C)
                  0c036114    00000028     omp_config_pe66.oe66 (.const:ti_sysbios_knl_Swi_Object__PARAMS__C)
                  0c03613c    00000004     omp_config_pe66.oe66 (.const:ti_omp_utils_OpenMP_mpaxIndex__C)
                  0c036140    00000028     omp_config_pe66.oe66 (.const:xdc_runtime_Startup_sfxnRts__A)
                  0c036168    00000025     ti.omp.utils.C6678.ae66 : OpenMPDnldCore.oe66 (.const:.string)
                  0c03618d    00000003     --HOLE-- [fill = 0]
                  0c036190    00000024     omp_config_pe66.oe66 (.const:ti_sdo_ipc_gates_GateHWSem_Object__PARAMS__C)
                  0c0361b4    00000024     omp_config_pe66.oe66 (.const:ti_sdo_ipc_gates_GateMPSupportNull_Object__PARAMS__C)
                  0c0361d8    00000024     omp_config_pe66.oe66 (.const:ti_sdo_ipc_gates_GatePeterson_Object__PARAMS__C)
                  0c0361fc    00000024     omp_config_pe66.oe66 (.const:ti_sysbios_gates_GateAll_Module__FXNS__C)
                  0c036220    00000024     omp_config_pe66.oe66 (.const:ti_sysbios_gates_GateHwi_Module__FXNS__C)
                  0c036244    00000024     omp_config_pe66.oe66 (.const:ti_sysbios_gates_GateMutexPri_Module__FXNS__C)
                  0c036268    00000024     omp_config_pe66.oe66 (.const:ti_sysbios_gates_GateMutex_Module__FXNS__C)
                  0c03628c    00000024     omp_config_pe66.oe66 (.const:ti_sysbios_gates_GateSwi_Module__FXNS__C)
                  0c0362b0    00000024     omp_config_pe66.oe66 (.const:ti_sysbios_heaps_HeapMem_Object__PARAMS__C)
                  0c0362d4    00000024     omp_config_pe66.oe66 (.const:ti_sysbios_knl_Clock_Object__PARAMS__C)
                  0c0362f8    00000024     omp_config_pe66.oe66 (.const:ti_sysbios_knl_Semaphore_Object__PARAMS__C)
                  0c03631c    00000024     omp_config_pe66.oe66 (.const:xdc_runtime_GateNull_Module__FXNS__C)
                  0c036340    00000024     omp_config_pe66.oe66 (.const:xdc_runtime_knl_GateThread_Module__FXNS__C)
                  0c036364    00000023     rts6600_elf_mt.lib : _printfi.obj (.const:.string)
                  0c036387    00000023     ti.omp.ae66 : alloc.oe66 (.const:.string)
                  0c0363aa    00000002     --HOLE-- [fill = 0]
                  0c0363ac    00000020     ti.targets.rts6000.ae66 : Core-mem.oe66 (.const:.string)
                  0c0363cc    00000020     omp_config_pe66.oe66 (.const:ti_omp_utils_HeapOMP_Object__DESC__C)
                  0c0363ec    00000020     omp_config_pe66.oe66 (.const:ti_omp_utils_HeapOMP_Object__PARAMS__C)
                  0c03640c    00000020     omp_config_pe66.oe66 (.const:ti_sdo_ipc_GateMP_Object__DESC__C)
                  0c03642c    00000020     omp_config_pe66.oe66 (.const:ti_sdo_ipc_ListMP_Object__DESC__C)
                  0c03644c    00000020     omp_config_pe66.oe66 (.const:ti_sdo_ipc_Notify_Object__DESC__C)
                  0c03646c    00000020     omp_config_pe66.oe66 (.const:ti_sdo_ipc_gates_GateHWSem_Object__DESC__C)
                  0c03648c    00000020     omp_config_pe66.oe66 (.const:ti_sdo_ipc_gates_GateMPSupportNull_Object__DESC__C)
                  0c0364ac    00000020     omp_config_pe66.oe66 (.const:ti_sdo_ipc_gates_GatePeterson_Object__DESC__C)
                  0c0364cc    00000020     omp_config_pe66.oe66 (.const:ti_sdo_ipc_heaps_HeapMemMP_Object__DESC__C)
                  0c0364ec    00000020     omp_config_pe66.oe66 (.const:ti_sdo_ipc_notifyDrivers_NotifyDriverShm_Object__DESC__C)
                  0c03650c    00000020     omp_config_pe66.oe66 (.const:ti_sdo_ipc_nsremote_NameServerRemoteNotify_Object__DESC__C)
                  0c03652c    00000020     omp_config_pe66.oe66 (.const:ti_sdo_ipc_nsremote_NameServerRemoteNotify_Object__PARAMS__C)
                  0c03654c    00000020     omp_config_pe66.oe66 (.const:ti_sdo_ipc_transports_TransportShm_Object__DESC__C)
                  0c03656c    00000020     omp_config_pe66.oe66 (.const:ti_sdo_utils_List_Object__DESC__C)
                  0c03658c    00000020     omp_config_pe66.oe66 (.const:ti_sysbios_family_c64p_Hwi_Object__DESC__C)
                  0c0365ac    00000020     omp_config_pe66.oe66 (.const:ti_sysbios_gates_GateAll_Object__DESC__C)
                  0c0365cc    00000020     omp_config_pe66.oe66 (.const:ti_sysbios_gates_GateHwi_Object__DESC__C)
                  0c0365ec    00000020     omp_config_pe66.oe66 (.const:ti_sysbios_gates_GateMutexPri_Object__DESC__C)
                  0c03660c    00000020     omp_config_pe66.oe66 (.const:ti_sysbios_gates_GateMutex_Object__DESC__C)
                  0c03662c    00000020     omp_config_pe66.oe66 (.const:ti_sysbios_gates_GateSwi_Object__DESC__C)
                  0c03664c    00000020     omp_config_pe66.oe66 (.const:ti_sysbios_heaps_HeapMem_Object__DESC__C)
                  0c03666c    00000020     omp_config_pe66.oe66 (.const:ti_sysbios_knl_Clock_Object__DESC__C)
                  0c03668c    00000020     omp_config_pe66.oe66 (.const:ti_sysbios_knl_Queue_Object__DESC__C)
                  0c0366ac    00000020     omp_config_pe66.oe66 (.const:ti_sysbios_knl_Semaphore_Object__DESC__C)
                  0c0366cc    00000020     omp_config_pe66.oe66 (.const:ti_sysbios_knl_Swi_Object__DESC__C)
                  0c0366ec    00000020     omp_config_pe66.oe66 (.const:ti_sysbios_knl_Task_Object__DESC__C)
                  0c03670c    00000020     omp_config_pe66.oe66 (.const:ti_sysbios_xdcruntime_GateThreadSupport_Object__DESC__C)
                  0c03672c    00000020     omp_config_pe66.oe66 (.const:xdc_runtime_GateNull_Object__DESC__C)
                  0c03674c    00000020     omp_config_pe66.oe66 (.const:xdc_runtime_knl_GateThread_Object__DESC__C)
                  0c03676c    00000018     omp_config_pe66.oe66 (.const:ti_sdo_ipc_Notify_Object__PARAMS__C)
                  0c036784    00000018     omp_config_pe66.oe66 (.const:ti_sdo_utils_List_Object__PARAMS__C)
                  0c03679c    00000018     omp_config_pe66.oe66 (.const:ti_sysbios_gates_GateAll_Object__PARAMS__C)
                  0c0367b4    00000018     omp_config_pe66.oe66 (.const:ti_sysbios_gates_GateHwi_Object__PARAMS__C)
                  0c0367cc    00000018     omp_config_pe66.oe66 (.const:ti_sysbios_gates_GateMutexPri_Object__PARAMS__C)
                  0c0367e4    00000018     omp_config_pe66.oe66 (.const:ti_sysbios_gates_GateMutex_Object__PARAMS__C)
                  0c0367fc    00000018     omp_config_pe66.oe66 (.const:ti_sysbios_gates_GateSwi_Object__PARAMS__C)
                  0c036814    00000018     omp_config_pe66.oe66 (.const:ti_sysbios_knl_Queue_Object__PARAMS__C)
                  0c03682c    00000018     omp_config_pe66.oe66 (.const:ti_sysbios_xdcruntime_GateThreadSupport_Object__PARAMS__C)
                  0c036844    00000018     omp_config_pe66.oe66 (.const:xdc_runtime_GateNull_Object__PARAMS__C)
                  0c03685c    00000018     omp_config_pe66.oe66 (.const:xdc_runtime_knl_GateThread_Object__PARAMS__C)
                  0c036874    0000000c     omp_config_pe66.oe66 (.const:ti_sysbios_family_c66_Cache_initSize__C)
                  0c036880    00000011     ti.targets.rts6000.ae66 : System.oe66 (.const:digtohex)
                  0c036891    00000003     --HOLE-- [fill = 0]
                  0c036894    00000004     omp_config_pe66.oe66 (.const:ti_omp_utils_OpenMP_mpaxRaddr__C)
                  0c036898    00000010     omp_config_pe66.oe66 (.const:ti_sdo_ipc_family_c647x_MultiProcSetup_procMap__A)
                  0c0368a8    00000010     omp_config_pe66.oe66 (.const:ti_sysbios_family_c64p_EventCombiner_EVTMASK__C)
                  0c0368b8    0000000c     omp_config_pe66.oe66 (.const:xdc_runtime_Startup_firstFxns__A)
                  0c0368c4    0000000b     ti.omp.ae66 : error.oe66 (.const:.string)
                  0c0368cf    0000000a     dwt.obj (.const:.string)
                  0c0368d9    00000003     --HOLE-- [fill = 0]
                  0c0368dc    00000008     ti.targets.rts6000.ae66 : System.oe66 (.const:.string)
                  0c0368e4    00000004     omp_config_pe66.oe66 (.const:ti_omp_utils_OpenMP_noncachedMsmcAlias__C)
                  0c0368e8    00000008     omp_config_pe66.oe66 (.const:ti_sysbios_knl_Idle_coreList__A)
                  0c0368f0    00000008     omp_config_pe66.oe66 (.const:ti_sysbios_knl_Idle_coreList__C)
                  0c0368f8    00000008     omp_config_pe66.oe66 (.const:ti_sysbios_knl_Idle_funcList__A)
                  0c036900    00000008     omp_config_pe66.oe66 (.const:ti_sysbios_knl_Idle_funcList__C)
                  0c036908    00000008     omp_config_pe66.oe66 (.const:ti_sysbios_knl_Task_hooks__C)
                  0c036910    00000008     omp_config_pe66.oe66 (.const:xdc_runtime_Startup_firstFxns__C)
                  0c036918    00000008     omp_config_pe66.oe66 (.const:xdc_runtime_Startup_lastFxns__A)
                  0c036920    00000008     omp_config_pe66.oe66 (.const:xdc_runtime_Startup_lastFxns__C)
                  0c036928    00000004     omp_config_pe66.oe66 (.const:ti_omp_utils_OpenMP_ompHwSemMem__C)
                  0c03692c    00000004     omp_config_pe66.oe66 (.const:ti_omp_utils_OpenMP_ompHwSemMutex__C)
                  0c036930    00000004     omp_config_pe66.oe66 (.const:ti_omp_utils_OpenMP_ompHwSem__C)
                  0c036934    00000004     omp_config_pe66.oe66 (.const:ti_omp_utils_OpenMP_qmssDestQueueNum__C)
                  0c036938    00000004     omp_config_pe66.oe66 (.const:ti_omp_utils_OpenMP_qmssHwSem__C)
                  0c03693c    00000004     omp_config_pe66.oe66 (.const:ti_omp_utils_OpenMP_qmssMemRegion__C)
                  0c036940    00000004     omp_config_pe66.oe66 (.const:ti_omp_utils_OpenMP_qmssStartIndex__C)
                  0c036944    00000004     omp_config_pe66.oe66 (.const:ti_omp_utils_OpenMP_stackRegionId__C)
                  0c036948    00000004     omp_config_pe66.oe66 (.const:ti_omp_utils_OpenMP_stackSize__C)
                  0c03694c    00000004     omp_config_pe66.oe66 (.const:ti_omp_utils_OpenMP_threadPriority__C)
                  0c036950    00000004     omp_config_pe66.oe66 (.const:ti_omp_utils_ThreadLocal_A_invalidContext__C)
                  0c036954    00000004     omp_config_pe66.oe66 (.const:ti_omp_utils_ThreadLocal_A_invalidKey__C)
                  0c036958    00000004     omp_config_pe66.oe66 (.const:ti_omp_utils_ThreadLocal_Module__diagsEnabled__C)
                  0c03695c    00000004     omp_config_pe66.oe66 (.const:ti_omp_utils_ThreadLocal_Module__diagsIncluded__C)
                  0c036960    00000004     omp_config_pe66.oe66 (.const:ti_omp_utils_ThreadLocal_Module__diagsMask__C)
                  0c036964    00000004     omp_config_pe66.oe66 (.const:ti_sdo_ipc_GateMP_A_invalidClose__C)
                  0c036968    00000004     omp_config_pe66.oe66 (.const:ti_sdo_ipc_GateMP_A_invalidDelete__C)
                  0c03696c    00000004     omp_config_pe66.oe66 (.const:ti_sdo_ipc_GateMP_E_gateUnavailable__C)
                  0c036970    00000004     omp_config_pe66.oe66 (.const:ti_sdo_ipc_GateMP_E_localGate__C)
                  0c036974    00000004     omp_config_pe66.oe66 (.const:ti_sdo_ipc_GateMP_LM_create__C)
                  0c036978    00000004     omp_config_pe66.oe66 (.const:ti_sdo_ipc_GateMP_LM_delete__C)
                  0c03697c    00000004     omp_config_pe66.oe66 (.const:ti_sdo_ipc_GateMP_LM_enter__C)
                  0c036980    00000004     omp_config_pe66.oe66 (.const:ti_sdo_ipc_GateMP_LM_leave__C)
                  0c036984    00000004     omp_config_pe66.oe66 (.const:ti_sdo_ipc_GateMP_LM_open__C)
                  0c036988    00000004     omp_config_pe66.oe66 (.const:ti_sdo_ipc_GateMP_Module__diagsEnabled__C)
                  0c03698c    00000004     omp_config_pe66.oe66 (.const:ti_sdo_ipc_GateMP_Module__diagsIncluded__C)
                  0c036990    00000004     omp_config_pe66.oe66 (.const:ti_sdo_ipc_GateMP_Module__diagsMask__C)
                  0c036994    00000004     omp_config_pe66.oe66 (.const:ti_sdo_ipc_GateMP_Module__loggerFxn2__C)
                  0c036998    00000004     omp_config_pe66.oe66 (.const:ti_sdo_ipc_GateMP_Module__loggerFxn4__C)
                  0c03699c    00000004     omp_config_pe66.oe66 (.const:ti_sdo_ipc_GateMP_Module__loggerObj__C)
                  0c0369a0    00000004     omp_config_pe66.oe66 (.const:ti_sdo_ipc_Ipc_A_addrNotCacheAligned__C)
                  0c0369a4    00000004     omp_config_pe66.oe66 (.const:ti_sdo_ipc_Ipc_A_addrNotInSharedRegion__C)
                  0c0369a8    00000004     omp_config_pe66.oe66 (.const:ti_sdo_ipc_Ipc_A_internal__C)
                  0c0369ac    00000004     omp_config_pe66.oe66 (.const:ti_sdo_ipc_Ipc_A_invArgument__C)
                  0c0369b0    00000004     omp_config_pe66.oe66 (.const:ti_sdo_ipc_Ipc_A_invParam__C)
                  0c0369b4    00000004     omp_config_pe66.oe66 (.const:ti_sdo_ipc_Ipc_A_nullArgument__C)
                  0c0369b8    00000004     omp_config_pe66.oe66 (.const:ti_sdo_ipc_Ipc_A_nullPointer__C)
                  0c0369bc    00000004     omp_config_pe66.oe66 (.const:ti_sdo_ipc_Ipc_E_internal__C)
                  0c0369c0    00000004     omp_config_pe66.oe66 (.const:ti_sdo_ipc_Ipc_E_nameFailed__C)
                  0c0369c4    00000004     omp_config_pe66.oe66 (.const:ti_sdo_ipc_Ipc_E_versionMismatch__C)
                  0c0369c8    00000004     omp_config_pe66.oe66 (.const:ti_sdo_ipc_Ipc_Module__diagsEnabled__C)
                  0c0369cc    00000004     omp_config_pe66.oe66 (.const:ti_sdo_ipc_Ipc_Module__diagsIncluded__C)
                  0c0369d0    00000004     omp_config_pe66.oe66 (.const:ti_sdo_ipc_Ipc_Module__diagsMask__C)
                  0c0369d4    00000004     omp_config_pe66.oe66 (.const:ti_sdo_ipc_Ipc_numUserFxns__C)
                  0c0369d8    00000004     omp_config_pe66.oe66 (.const:ti_sdo_ipc_Ipc_procSync__C)
                  0c0369dc    00000004     omp_config_pe66.oe66 (.const:ti_sdo_ipc_Ipc_userFxns__C)
                  0c0369e0    00000004     omp_config_pe66.oe66 (.const:ti_sdo_ipc_ListMP_Module__diagsEnabled__C)
                  0c0369e4    00000004     omp_config_pe66.oe66 (.const:ti_sdo_ipc_ListMP_Module__diagsIncluded__C)
                  0c0369e8    00000004     omp_config_pe66.oe66 (.const:ti_sdo_ipc_ListMP_Module__diagsMask__C)
                  0c0369ec    00000004     omp_config_pe66.oe66 (.const:ti_sdo_ipc_MessageQ_A_invalidMsg__C)
                  0c0369f0    00000004     omp_config_pe66.oe66 (.const:ti_sdo_ipc_MessageQ_A_invalidObj__C)
                  0c0369f4    00000004     omp_config_pe66.oe66 (.const:ti_sdo_ipc_MessageQ_A_invalidQueueId__C)
                  0c0369f8    00000004     omp_config_pe66.oe66 (.const:ti_sdo_ipc_MessageQ_A_procIdInvalid__C)
                  0c0369fc    00000004     omp_config_pe66.oe66 (.const:ti_sdo_ipc_MessageQ_A_unregisteredTransport__C)
                  0c036a00    00000004     omp_config_pe66.oe66 (.const:ti_sdo_ipc_MessageQ_Instance_State_highList__O)
                  0c036a04    00000004     omp_config_pe66.oe66 (.const:ti_sdo_ipc_MessageQ_Instance_State_normalList__O)
                  0c036a08    00000004     omp_config_pe66.oe66 (.const:ti_sdo_ipc_MessageQ_LM_putLocal__C)
                  0c036a0c    00000004     omp_config_pe66.oe66 (.const:ti_sdo_ipc_MessageQ_Module__diagsEnabled__C)
                  0c036a10    00000004     omp_config_pe66.oe66 (.const:ti_sdo_ipc_MessageQ_Module__diagsIncluded__C)
                  0c036a14    00000004     omp_config_pe66.oe66 (.const:ti_sdo_ipc_MessageQ_Module__diagsMask__C)
                  0c036a18    00000004     omp_config_pe66.oe66 (.const:ti_sdo_ipc_MessageQ_Module__loggerFxn4__C)
                  0c036a1c    00000004     omp_config_pe66.oe66 (.const:ti_sdo_ipc_MessageQ_Module__loggerObj__C)
                  0c036a20    00000004     omp_config_pe66.oe66 (.const:ti_sdo_ipc_MessageQ_Object__count__C)
                  0c036a24    00000004     omp_config_pe66.oe66 (.const:ti_sdo_ipc_Notify_A_alreadyRegistered__C)
                  0c036a28    00000004     omp_config_pe66.oe66 (.const:ti_sdo_ipc_Notify_A_internal__C)
                  0c036a2c    00000004     omp_config_pe66.oe66 (.const:ti_sdo_ipc_Notify_A_invArgument__C)
                  0c036a30    00000004     omp_config_pe66.oe66 (.const:ti_sdo_ipc_Notify_A_notRegistered__C)
                  0c036a34    00000004     omp_config_pe66.oe66 (.const:ti_sdo_ipc_Notify_A_reservedEvent__C)
                  0c036a38    00000004     omp_config_pe66.oe66 (.const:ti_sdo_ipc_Notify_Module__diagsEnabled__C)
                  0c036a3c    00000004     omp_config_pe66.oe66 (.const:ti_sdo_ipc_Notify_Module__diagsIncluded__C)
                  0c036a40    00000004     omp_config_pe66.oe66 (.const:ti_sdo_ipc_Notify_Module__diagsMask__C)
                  0c036a44    00000004     omp_config_pe66.oe66 (.const:ti_sdo_ipc_Notify_Module__gateObj__C)
                  0c036a48    00000004     omp_config_pe66.oe66 (.const:ti_sdo_ipc_Notify_Object__heap__C)
                  0c036a4c    00000004     omp_config_pe66.oe66 (.const:ti_sdo_ipc_Notify_numEvents__C)
                  0c036a50    00000004     omp_config_pe66.oe66 (.const:ti_sdo_ipc_Notify_sendEventPollCount__C)
                  0c036a54    00000004     omp_config_pe66.oe66 (.const:ti_sdo_ipc_SharedRegion_A_addrOutOfRange__C)
                  0c036a58    00000004     omp_config_pe66.oe66 (.const:ti_sdo_ipc_SharedRegion_A_idTooLarge__C)
                  0c036a5c    00000004     omp_config_pe66.oe66 (.const:ti_sdo_ipc_SharedRegion_A_noHeap__C)
                  0c036a60    00000004     omp_config_pe66.oe66 (.const:ti_sdo_ipc_SharedRegion_A_region0Invalid__C)
                  0c036a64    00000004     omp_config_pe66.oe66 (.const:ti_sdo_ipc_SharedRegion_A_regionInvalid__C)
                  0c036a68    00000004     omp_config_pe66.oe66 (.const:ti_sdo_ipc_SharedRegion_A_reserveTooMuch__C)
                  0c036a6c    00000004     omp_config_pe66.oe66 (.const:ti_sdo_ipc_SharedRegion_INVALIDSRPTR__C)
                  0c036a70    00000004     omp_config_pe66.oe66 (.const:ti_sdo_ipc_SharedRegion_Module__diagsEnabled__C)
                  0c036a74    00000004     omp_config_pe66.oe66 (.const:ti_sdo_ipc_SharedRegion_Module__diagsIncluded__C)
                  0c036a78    00000004     omp_config_pe66.oe66 (.const:ti_sdo_ipc_SharedRegion_Module__diagsMask__C)
                  0c036a7c    00000004     omp_config_pe66.oe66 (.const:ti_sdo_ipc_SharedRegion_numOffsetBits__C)
                  0c036a80    00000004     omp_config_pe66.oe66 (.const:ti_sdo_ipc_SharedRegion_offsetMask__C)
                  0c036a84    00000004     omp_config_pe66.oe66 (.const:ti_sdo_ipc_family_c647x_Interrupt_INTERDSPINT__C)
                  0c036a88    00000004     omp_config_pe66.oe66 (.const:ti_sdo_ipc_family_c647x_Interrupt_IPCAR0__C)
                  0c036a8c    00000004     omp_config_pe66.oe66 (.const:ti_sdo_ipc_family_c647x_Interrupt_IPCGR0__C)
                  0c036a90    00000004     omp_config_pe66.oe66 (.const:ti_sdo_ipc_family_c647x_Interrupt_KICK0__C)
                  0c036a94    00000004     omp_config_pe66.oe66 (.const:ti_sdo_ipc_family_c647x_Interrupt_KICK1__C)
                  0c036a98    00000004     omp_config_pe66.oe66 (.const:ti_sdo_ipc_family_c647x_MultiProcSetup_procMap__C)
                  0c036a9c    00000004     omp_config_pe66.oe66 (.const:ti_sdo_ipc_family_c647x_NotifySetup_dspIntVectId__C)
                  0c036aa0    00000004     omp_config_pe66.oe66 (.const:ti_sdo_ipc_gates_GateHWSem_A_invSemNum__C)
                  0c036aa4    00000004     omp_config_pe66.oe66 (.const:ti_sdo_ipc_gates_GateHWSem_Module__diagsEnabled__C)
                  0c036aa8    00000004     omp_config_pe66.oe66 (.const:ti_sdo_ipc_gates_GateHWSem_Module__diagsIncluded__C)
                  0c036aac    00000004     omp_config_pe66.oe66 (.const:ti_sdo_ipc_gates_GateHWSem_Module__diagsMask__C)
                  0c036ab0    00000004     omp_config_pe66.oe66 (.const:ti_sdo_ipc_gates_GateHWSem_baseAddr__C)
                  0c036ab4    00000004     omp_config_pe66.oe66 (.const:ti_sdo_ipc_gates_GateHWSem_numSems__C)
                  0c036ab8    00000004     omp_config_pe66.oe66 (.const:ti_sdo_ipc_gates_GateHWSem_reservedMaskArr__A)
                  0c036abc    00000004     omp_config_pe66.oe66 (.const:ti_sdo_ipc_gates_GateHWSem_reservedMaskArr__C)
                  0c036ac0    00000004     omp_config_pe66.oe66 (.const:ti_sdo_ipc_gates_GateMPSupportNull_A_invalidAction__C)
                  0c036ac4    00000004     omp_config_pe66.oe66 (.const:ti_sdo_ipc_gates_GateMPSupportNull_Module__diagsEnabled__C)
                  0c036ac8    00000004     omp_config_pe66.oe66 (.const:ti_sdo_ipc_gates_GateMPSupportNull_Module__diagsIncluded__C)
                  0c036acc    00000004     omp_config_pe66.oe66 (.const:ti_sdo_ipc_gates_GateMPSupportNull_Module__diagsMask__C)
                  0c036ad0    00000004     omp_config_pe66.oe66 (.const:ti_sdo_ipc_gates_GateMPSupportNull_action__C)
                  0c036ad4    00000004     omp_config_pe66.oe66 (.const:ti_sdo_ipc_gates_GatePeterson_E_gateRemotelyOpened__C)
                  0c036ad8    00000004     omp_config_pe66.oe66 (.const:ti_sdo_ipc_gates_GatePeterson_Module__diagsEnabled__C)
                  0c036adc    00000004     omp_config_pe66.oe66 (.const:ti_sdo_ipc_gates_GatePeterson_Module__diagsIncluded__C)
                  0c036ae0    00000004     omp_config_pe66.oe66 (.const:ti_sdo_ipc_gates_GatePeterson_Module__diagsMask__C)
                  0c036ae4    00000004     omp_config_pe66.oe66 (.const:ti_sdo_ipc_gates_GatePeterson_numInstances__C)
                  0c036ae8    00000004     omp_config_pe66.oe66 (.const:ti_sdo_ipc_heaps_HeapMemMP_A_align__C)
                  0c036aec    00000004     omp_config_pe66.oe66 (.const:ti_sdo_ipc_heaps_HeapMemMP_A_heapSize__C)
                  0c036af0    00000004     omp_config_pe66.oe66 (.const:ti_sdo_ipc_heaps_HeapMemMP_A_invalidFree__C)
                  0c036af4    00000004     omp_config_pe66.oe66 (.const:ti_sdo_ipc_heaps_HeapMemMP_A_zeroBlock__C)
                  0c036af8    00000004     omp_config_pe66.oe66 (.const:ti_sdo_ipc_heaps_HeapMemMP_E_memory__C)
                  0c036afc    00000004     omp_config_pe66.oe66 (.const:ti_sdo_ipc_heaps_HeapMemMP_Module__diagsEnabled__C)
                  0c036b00    00000004     omp_config_pe66.oe66 (.const:ti_sdo_ipc_heaps_HeapMemMP_Module__diagsIncluded__C)
                  0c036b04    00000004     omp_config_pe66.oe66 (.const:ti_sdo_ipc_heaps_HeapMemMP_Module__diagsMask__C)
                  0c036b08    00000004     omp_config_pe66.oe66 (.const:ti_sdo_ipc_interfaces_IGateMPSupport_Interface__BASE__C)
                  0c036b0c    00000004     omp_config_pe66.oe66 (.const:ti_sdo_ipc_interfaces_IMessageQTransport_Interface__BASE__C)
                  0c036b10    00000004     omp_config_pe66.oe66 (.const:ti_sdo_ipc_interfaces_INotifyDriver_Interface__BASE__C)
                  0c036b14    00000004     omp_config_pe66.oe66 (.const:ti_sdo_ipc_notifyDrivers_NotifyDriverShm_Module__diagsEnabled__C)
                  0c036b18    00000004     omp_config_pe66.oe66 (.const:ti_sdo_ipc_notifyDrivers_NotifyDriverShm_Module__diagsIncluded__C)
                  0c036b1c    00000004     omp_config_pe66.oe66 (.const:ti_sdo_ipc_notifyDrivers_NotifyDriverShm_Module__diagsMask__C)
                  0c036b20    00000004     omp_config_pe66.oe66 (.const:ti_sdo_ipc_notifyDrivers_NotifyDriverShm_Object__heap__C)
                  0c036b24    00000004     omp_config_pe66.oe66 (.const:ti_sdo_ipc_nsremote_NameServerRemoteNotify_A_invalidValueLen__C)
                  0c036b28    00000004     omp_config_pe66.oe66 (.const:ti_sdo_ipc_nsremote_NameServerRemoteNotify_Instance_State_semMultiBlock__O)
                  0c036b2c    00000004     omp_config_pe66.oe66 (.const:ti_sdo_ipc_nsremote_NameServerRemoteNotify_Instance_State_semRemoteWait__O)
                  0c036b30    00000004     omp_config_pe66.oe66 (.const:ti_sdo_ipc_nsremote_NameServerRemoteNotify_Instance_State_swiObj__O)
                  0c036b34    00000004     omp_config_pe66.oe66 (.const:ti_sdo_ipc_nsremote_NameServerRemoteNotify_Module__diagsEnabled__C)
                  0c036b38    00000004     omp_config_pe66.oe66 (.const:ti_sdo_ipc_nsremote_NameServerRemoteNotify_Module__diagsIncluded__C)
                  0c036b3c    00000004     omp_config_pe66.oe66 (.const:ti_sdo_ipc_nsremote_NameServerRemoteNotify_Module__diagsMask__C)
                  0c036b40    00000004     omp_config_pe66.oe66 (.const:ti_sdo_ipc_nsremote_NameServerRemoteNotify_notifyEventId__C)
                  0c036b44    00000004     omp_config_pe66.oe66 (.const:ti_sdo_ipc_nsremote_NameServerRemoteNotify_timeout__C)
                  0c036b48    00000004     omp_config_pe66.oe66 (.const:ti_sdo_ipc_transports_TransportShmSetup_priority__C)
                  0c036b4c    00000004     omp_config_pe66.oe66 (.const:ti_sdo_ipc_transports_TransportShm_Instance_State_swiObj__O)
                  0c036b50    00000004     omp_config_pe66.oe66 (.const:ti_sdo_ipc_transports_TransportShm_Module__diagsEnabled__C)
                  0c036b54    00000004     omp_config_pe66.oe66 (.const:ti_sdo_ipc_transports_TransportShm_Module__diagsIncluded__C)
                  0c036b58    00000004     omp_config_pe66.oe66 (.const:ti_sdo_ipc_transports_TransportShm_Module__diagsMask__C)
                  0c036b5c    00000004     omp_config_pe66.oe66 (.const:ti_sdo_utils_INameServerRemote_Interface__BASE__C)
                  0c036b60    00000004     omp_config_pe66.oe66 (.const:ti_sdo_utils_MultiProc_A_invalidMultiProcId__C)
                  0c036b64    00000004     omp_config_pe66.oe66 (.const:ti_sdo_utils_MultiProc_Module__diagsEnabled__C)
                  0c036b68    00000004     omp_config_pe66.oe66 (.const:ti_sdo_utils_MultiProc_Module__diagsIncluded__C)
                  0c036b6c    00000004     omp_config_pe66.oe66 (.const:ti_sdo_utils_MultiProc_Module__diagsMask__C)
                  0c036b70    00000004     omp_config_pe66.oe66 (.const:ti_sdo_utils_NameServer_A_invArgument__C)
                  0c036b74    00000004     omp_config_pe66.oe66 (.const:ti_sdo_utils_NameServer_A_invalidLen__C)
                  0c036b78    00000004     omp_config_pe66.oe66 (.const:ti_sdo_utils_NameServer_E_entryExists__C)
                  0c036b7c    00000004     omp_config_pe66.oe66 (.const:ti_sdo_utils_NameServer_E_maxReached__C)
                  0c036b80    00000004     omp_config_pe66.oe66 (.const:ti_sdo_utils_NameServer_Instance_State_freeList__O)
                  0c036b84    00000004     omp_config_pe66.oe66 (.const:ti_sdo_utils_NameServer_Instance_State_nameList__O)
                  0c036b88    00000004     omp_config_pe66.oe66 (.const:ti_sdo_utils_NameServer_Module__diagsEnabled__C)
                  0c036b8c    00000004     omp_config_pe66.oe66 (.const:ti_sdo_utils_NameServer_Module__diagsIncluded__C)
                  0c036b90    00000004     omp_config_pe66.oe66 (.const:ti_sdo_utils_NameServer_Module__diagsMask__C)
                  0c036b94    00000004     omp_config_pe66.oe66 (.const:ti_sdo_utils_NameServer_Object__count__C)
                  0c036b98    00000004     omp_config_pe66.oe66 (.const:ti_sysbios_BIOS_Module__diagsEnabled__C)
                  0c036b9c    00000004     omp_config_pe66.oe66 (.const:ti_sysbios_BIOS_Module__diagsIncluded__C)
                  0c036ba0    00000004     omp_config_pe66.oe66 (.const:ti_sysbios_BIOS_Module__diagsMask__C)
                  0c036ba4    00000004     omp_config_pe66.oe66 (.const:ti_sysbios_BIOS_installedErrorHook__C)
                  0c036ba8    00000004     omp_config_pe66.oe66 (.const:ti_sysbios_family_c62_TaskSupport_stackAlignment__C)
                  0c036bac    00000004     omp_config_pe66.oe66 (.const:ti_sysbios_family_c64p_EventCombiner_E_unpluggedEvent__C)
                  0c036bb0    00000004     omp_config_pe66.oe66 (.const:ti_sysbios_family_c64p_Exception_E_exceptionMin__C)
                  0c036bb4    00000004     omp_config_pe66.oe66 (.const:ti_sysbios_family_c64p_Exception_exceptionHook__C)
                  0c036bb8    00000004     omp_config_pe66.oe66 (.const:ti_sysbios_family_c64p_Exception_externalHook__C)
                  0c036bbc    00000004     omp_config_pe66.oe66 (.const:ti_sysbios_family_c64p_Exception_internalHook__C)
                  0c036bc0    00000004     omp_config_pe66.oe66 (.const:ti_sysbios_family_c64p_Exception_nmiHook__C)
                  0c036bc4    00000004     omp_config_pe66.oe66 (.const:ti_sysbios_family_c64p_Hwi_E_alreadyDefined__C)
                  0c036bc8    00000004     omp_config_pe66.oe66 (.const:ti_sysbios_family_c64p_Hwi_E_handleNotFound__C)
                  0c036bcc    00000004     omp_config_pe66.oe66 (.const:ti_sysbios_family_c64p_Hwi_LD_end__C)
                  0c036bd0    00000004     omp_config_pe66.oe66 (.const:ti_sysbios_family_c64p_Hwi_LM_begin__C)
                  0c036bd4    00000004     omp_config_pe66.oe66 (.const:ti_sysbios_family_c64p_Hwi_Module__diagsEnabled__C)
                  0c036bd8    00000004     omp_config_pe66.oe66 (.const:ti_sysbios_family_c64p_Hwi_Module__diagsIncluded__C)
                  0c036bdc    00000004     omp_config_pe66.oe66 (.const:ti_sysbios_family_c64p_Hwi_Module__diagsMask__C)
                  0c036be0    00000004     omp_config_pe66.oe66 (.const:ti_sysbios_family_c64p_Hwi_Module__loggerFxn1__C)
                  0c036be4    00000004     omp_config_pe66.oe66 (.const:ti_sysbios_family_c64p_Hwi_Module__loggerFxn8__C)
                  0c036be8    00000004     omp_config_pe66.oe66 (.const:ti_sysbios_family_c64p_Hwi_Module__loggerObj__C)
                  0c036bec    00000004     omp_config_pe66.oe66 (.const:ti_sysbios_family_c66_Cache_atomicBlockSize__C)
                  0c036bf0    00000004     omp_config_pe66.oe66 (.const:ti_sysbios_family_c66_tci66xx_CpIntc_E_unpluggedSysInt__C)
                  0c036bf4    00000004     omp_config_pe66.oe66 (.const:ti_sysbios_family_c66_tci66xx_CpIntc_numStatusRegs__C)
                  0c036bf8    00000004     omp_config_pe66.oe66 (.const:ti_sysbios_family_c66_tci66xx_CpIntc_numSysInts__C)
                  0c036bfc    00000004     omp_config_pe66.oe66 (.const:ti_sysbios_family_c66_tci66xx_CpIntc_sysIntToHostInt__C)
                  0c036c00    00000004     omp_config_pe66.oe66 (.const:ti_sysbios_gates_GateMutexPri_A_badContext__C)
                  0c036c04    00000004     omp_config_pe66.oe66 (.const:ti_sysbios_gates_GateMutexPri_Instance_State_pendQ__O)
                  0c036c08    00000004     omp_config_pe66.oe66 (.const:ti_sysbios_gates_GateMutexPri_Module__diagsEnabled__C)
                  0c036c0c    00000004     omp_config_pe66.oe66 (.const:ti_sysbios_gates_GateMutexPri_Module__diagsIncluded__C)
                  0c036c10    00000004     omp_config_pe66.oe66 (.const:ti_sysbios_gates_GateMutexPri_Module__diagsMask__C)
                  0c036c14    00000004     omp_config_pe66.oe66 (.const:ti_sysbios_gates_GateMutex_A_badContext__C)
                  0c036c18    00000004     omp_config_pe66.oe66 (.const:ti_sysbios_gates_GateMutex_Instance_State_sem__O)
                  0c036c1c    00000004     omp_config_pe66.oe66 (.const:ti_sysbios_gates_GateMutex_Module__diagsEnabled__C)
                  0c036c20    00000004     omp_config_pe66.oe66 (.const:ti_sysbios_gates_GateMutex_Module__diagsIncluded__C)
                  0c036c24    00000004     omp_config_pe66.oe66 (.const:ti_sysbios_gates_GateMutex_Module__diagsMask__C)
                  0c036c28    00000004     omp_config_pe66.oe66 (.const:ti_sysbios_gates_GateSwi_A_badContext__C)
                  0c036c2c    00000004     omp_config_pe66.oe66 (.const:ti_sysbios_gates_GateSwi_Module__diagsEnabled__C)
                  0c036c30    00000004     omp_config_pe66.oe66 (.const:ti_sysbios_gates_GateSwi_Module__diagsIncluded__C)
                  0c036c34    00000004     omp_config_pe66.oe66 (.const:ti_sysbios_gates_GateSwi_Module__diagsMask__C)
                  0c036c38    00000004     omp_config_pe66.oe66 (.const:ti_sysbios_hal_Hwi_E_stackOverflow__C)
                  0c036c3c    00000004     omp_config_pe66.oe66 (.const:ti_sysbios_heaps_HeapBuf_Instance_State_freeList__O)
                  0c036c40    00000004     omp_config_pe66.oe66 (.const:ti_sysbios_heaps_HeapBuf_Object__count__C)
                  0c036c44    00000004     omp_config_pe66.oe66 (.const:ti_sysbios_heaps_HeapBuf_numConstructedHeaps__C)
                  0c036c48    00000004     omp_config_pe66.oe66 (.const:ti_sysbios_heaps_HeapMem_A_align__C)
                  0c036c4c    00000004     omp_config_pe66.oe66 (.const:ti_sysbios_heaps_HeapMem_A_heapSize__C)
                  0c036c50    00000004     omp_config_pe66.oe66 (.const:ti_sysbios_heaps_HeapMem_A_invalidFree__C)
                  0c036c54    00000004     omp_config_pe66.oe66 (.const:ti_sysbios_heaps_HeapMem_A_zeroBlock__C)
                  0c036c58    00000004     omp_config_pe66.oe66 (.const:ti_sysbios_heaps_HeapMem_E_memory__C)
                  0c036c5c    00000004     omp_config_pe66.oe66 (.const:ti_sysbios_heaps_HeapMem_Module__diagsEnabled__C)
                  0c036c60    00000004     omp_config_pe66.oe66 (.const:ti_sysbios_heaps_HeapMem_Module__diagsIncluded__C)
                  0c036c64    00000004     omp_config_pe66.oe66 (.const:ti_sysbios_heaps_HeapMem_Module__diagsMask__C)
                  0c036c68    00000004     omp_config_pe66.oe66 (.const:ti_sysbios_heaps_HeapMem_Module__gateObj__C)
                  0c036c6c    00000004     omp_config_pe66.oe66 (.const:ti_sysbios_heaps_HeapMem_Object__count__C)
                  0c036c70    00000004     omp_config_pe66.oe66 (.const:ti_sysbios_heaps_HeapMem_reqAlign__C)
                  0c036c74    00000004     omp_config_pe66.oe66 (.const:ti_sysbios_knl_Clock_A_badThreadType__C)
                  0c036c78    00000004     omp_config_pe66.oe66 (.const:ti_sysbios_knl_Clock_LM_begin__C)
                  0c036c7c    00000004     omp_config_pe66.oe66 (.const:ti_sysbios_knl_Clock_LM_tick__C)
                  0c036c80    00000004     omp_config_pe66.oe66 (.const:ti_sysbios_knl_Clock_LW_delayed__C)
                  0c036c84    00000004     omp_config_pe66.oe66 (.const:ti_sysbios_knl_Clock_Module_State_clockQ__O)
                  0c036c88    00000004     omp_config_pe66.oe66 (.const:ti_sysbios_knl_Clock_Module__diagsEnabled__C)
                  0c036c8c    00000004     omp_config_pe66.oe66 (.const:ti_sysbios_knl_Clock_Module__diagsIncluded__C)
                  0c036c90    00000004     omp_config_pe66.oe66 (.const:ti_sysbios_knl_Clock_Module__diagsMask__C)
                  0c036c94    00000004     omp_config_pe66.oe66 (.const:ti_sysbios_knl_Clock_Module__loggerFxn1__C)
                  0c036c98    00000004     omp_config_pe66.oe66 (.const:ti_sysbios_knl_Clock_Module__loggerFxn2__C)
                  0c036c9c    00000004     omp_config_pe66.oe66 (.const:ti_sysbios_knl_Clock_Module__loggerObj__C)
                  0c036ca0    00000004     omp_config_pe66.oe66 (.const:ti_sysbios_knl_Clock_tickMode__C)
                  0c036ca4    00000004     omp_config_pe66.oe66 (.const:ti_sysbios_knl_Clock_tickSource__C)
                  0c036ca8    00000004     omp_config_pe66.oe66 (.const:ti_sysbios_knl_Semaphore_A_badContext__C)
                  0c036cac    00000004     omp_config_pe66.oe66 (.const:ti_sysbios_knl_Semaphore_A_noEvents__C)
                  0c036cb0    00000004     omp_config_pe66.oe66 (.const:ti_sysbios_knl_Semaphore_A_overflow__C)
                  0c036cb4    00000004     omp_config_pe66.oe66 (.const:ti_sysbios_knl_Semaphore_Instance_State_pendQ__O)
                  0c036cb8    00000004     omp_config_pe66.oe66 (.const:ti_sysbios_knl_Semaphore_LM_pend__C)
                  0c036cbc    00000004     omp_config_pe66.oe66 (.const:ti_sysbios_knl_Semaphore_LM_post__C)
                  0c036cc0    00000004     omp_config_pe66.oe66 (.const:ti_sysbios_knl_Semaphore_Module__diagsEnabled__C)
                  0c036cc4    00000004     omp_config_pe66.oe66 (.const:ti_sysbios_knl_Semaphore_Module__diagsIncluded__C)
                  0c036cc8    00000004     omp_config_pe66.oe66 (.const:ti_sysbios_knl_Semaphore_Module__diagsMask__C)
                  0c036ccc    00000004     omp_config_pe66.oe66 (.const:ti_sysbios_knl_Semaphore_Module__loggerFxn2__C)
                  0c036cd0    00000004     omp_config_pe66.oe66 (.const:ti_sysbios_knl_Semaphore_Module__loggerFxn4__C)
                  0c036cd4    00000004     omp_config_pe66.oe66 (.const:ti_sysbios_knl_Semaphore_Module__loggerObj__C)
                  0c036cd8    00000004     omp_config_pe66.oe66 (.const:ti_sysbios_knl_Swi_A_badPriority__C)
                  0c036cdc    00000004     omp_config_pe66.oe66 (.const:ti_sysbios_knl_Swi_LD_end__C)
                  0c036ce0    00000004     omp_config_pe66.oe66 (.const:ti_sysbios_knl_Swi_LM_begin__C)
                  0c036ce4    00000004     omp_config_pe66.oe66 (.const:ti_sysbios_knl_Swi_LM_post__C)
                  0c036ce8    00000004     omp_config_pe66.oe66 (.const:ti_sysbios_knl_Swi_Module__diagsEnabled__C)
                  0c036cec    00000004     omp_config_pe66.oe66 (.const:ti_sysbios_knl_Swi_Module__diagsIncluded__C)
                  0c036cf0    00000004     omp_config_pe66.oe66 (.const:ti_sysbios_knl_Swi_Module__diagsMask__C)
                  0c036cf4    00000004     omp_config_pe66.oe66 (.const:ti_sysbios_knl_Swi_Module__loggerFxn1__C)
                  0c036cf8    00000004     omp_config_pe66.oe66 (.const:ti_sysbios_knl_Swi_Module__loggerFxn4__C)
                  0c036cfc    00000004     omp_config_pe66.oe66 (.const:ti_sysbios_knl_Swi_Module__loggerObj__C)
                  0c036d00    00000004     omp_config_pe66.oe66 (.const:ti_sysbios_knl_Swi_Object__count__C)
                  0c036d04    00000004     omp_config_pe66.oe66 (.const:ti_sysbios_knl_Task_A_badPriority__C)
                  0c036d08    00000004     omp_config_pe66.oe66 (.const:ti_sysbios_knl_Task_A_badTaskState__C)
                  0c036d0c    00000004     omp_config_pe66.oe66 (.const:ti_sysbios_knl_Task_A_badThreadType__C)
                  0c036d10    00000004     omp_config_pe66.oe66 (.const:ti_sysbios_knl_Task_A_noPendElem__C)
                  0c036d14    00000004     omp_config_pe66.oe66 (.const:ti_sysbios_knl_Task_E_deleteNotAllowed__C)
                  0c036d18    00000004     omp_config_pe66.oe66 (.const:ti_sysbios_knl_Task_LD_block__C)
                  0c036d1c    00000004     omp_config_pe66.oe66 (.const:ti_sysbios_knl_Task_LD_exit__C)
                  0c036d20    00000004     omp_config_pe66.oe66 (.const:ti_sysbios_knl_Task_LD_ready__C)
                  0c036d24    00000004     omp_config_pe66.oe66 (.const:ti_sysbios_knl_Task_LM_setPri__C)
                  0c036d28    00000004     omp_config_pe66.oe66 (.const:ti_sysbios_knl_Task_LM_switch__C)
                  0c036d2c    00000004     omp_config_pe66.oe66 (.const:ti_sysbios_knl_Task_LM_yield__C)
                  0c036d30    00000004     omp_config_pe66.oe66 (.const:ti_sysbios_knl_Task_Module_State_inactiveQ__O)
                  0c036d34    00000004     omp_config_pe66.oe66 (.const:ti_sysbios_knl_Task_Module_State_terminatedQ__O)
                  0c036d38    00000004     omp_config_pe66.oe66 (.const:ti_sysbios_knl_Task_Module__diagsEnabled__C)
                  0c036d3c    00000004     omp_config_pe66.oe66 (.const:ti_sysbios_knl_Task_Module__diagsIncluded__C)
                  0c036d40    00000004     omp_config_pe66.oe66 (.const:ti_sysbios_knl_Task_Module__diagsMask__C)
                  0c036d44    00000004     omp_config_pe66.oe66 (.const:ti_sysbios_knl_Task_Module__loggerFxn2__C)
                  0c036d48    00000004     omp_config_pe66.oe66 (.const:ti_sysbios_knl_Task_Module__loggerFxn4__C)
                  0c036d4c    00000004     omp_config_pe66.oe66 (.const:ti_sysbios_knl_Task_Module__loggerObj__C)
                  0c036d50    00000004     omp_config_pe66.oe66 (.const:ti_sysbios_knl_Task_Object__count__C)
                  0c036d54    00000004     omp_config_pe66.oe66 (.const:ti_sysbios_knl_Task_Object__heap__C)
                  0c036d58    00000004     omp_config_pe66.oe66 (.const:ti_sysbios_knl_Task_allBlockedFunc__C)
                  0c036d5c    00000004     omp_config_pe66.oe66 (.const:ti_sysbios_knl_Task_defaultStackHeap__C)
                  0c036d60    00000004     omp_config_pe66.oe66 (.const:ti_sysbios_knl_Task_defaultStackSize__C)
                  0c036d64    00000004     omp_config_pe66.oe66 (.const:ti_sysbios_knl_Task_numConstructedTasks__C)
                  0c036d68    00000004     omp_config_pe66.oe66 (.const:ti_sysbios_knl_Task_numPriorities__C)
                  0c036d6c    00000004     omp_config_pe66.oe66 (.const:ti_sysbios_timers_timer64_Timer_A_notAvailable__C)
                  0c036d70    00000004     omp_config_pe66.oe66 (.const:ti_sysbios_timers_timer64_Timer_E_cannotSupport__C)
                  0c036d74    00000004     omp_config_pe66.oe66 (.const:ti_sysbios_timers_timer64_Timer_Module__diagsEnabled__C)
                  0c036d78    00000004     omp_config_pe66.oe66 (.const:ti_sysbios_timers_timer64_Timer_Module__diagsIncluded__C)
                  0c036d7c    00000004     omp_config_pe66.oe66 (.const:ti_sysbios_timers_timer64_Timer_Module__diagsMask__C)
                  0c036d80    00000004     omp_config_pe66.oe66 (.const:ti_sysbios_timers_timer64_Timer_anyMask__C)
                  0c036d84    00000004     omp_config_pe66.oe66 (.const:ti_sysbios_timers_timer64_Timer_freqDivisor__C)
                  0c036d88    00000004     omp_config_pe66.oe66 (.const:ti_sysbios_timers_timer64_Timer_numLocalTimers__C)
                  0c036d8c    00000004     omp_config_pe66.oe66 (.const:ti_sysbios_timers_timer64_Timer_numTimerDevices__C)
                  0c036d90    00000004     omp_config_pe66.oe66 (.const:ti_sysbios_xdcruntime_GateThreadSupport_Instance_State_gate__O)
                  0c036d94    00000004     omp_config_pe66.oe66 (.const:xdc_runtime_Assert_E_assertFailed__C)
                  0c036d98    00000004     omp_config_pe66.oe66 (.const:xdc_runtime_Core_A_initializedParams__C)
                  0c036d9c    00000004     omp_config_pe66.oe66 (.const:xdc_runtime_Core_Module__diagsEnabled__C)
                  0c036da0    00000004     omp_config_pe66.oe66 (.const:xdc_runtime_Core_Module__diagsIncluded__C)
                  0c036da4    00000004     omp_config_pe66.oe66 (.const:xdc_runtime_Core_Module__diagsMask__C)
                  0c036da8    00000004     omp_config_pe66.oe66 (.const:xdc_runtime_Error_E_generic__C)
                  0c036dac    00000004     omp_config_pe66.oe66 (.const:xdc_runtime_Error_E_memory__C)
                  0c036db0    00000004     omp_config_pe66.oe66 (.const:xdc_runtime_Error_Module__diagsEnabled__C)
                  0c036db4    00000004     omp_config_pe66.oe66 (.const:xdc_runtime_Error_Module__diagsIncluded__C)
                  0c036db8    00000004     omp_config_pe66.oe66 (.const:xdc_runtime_Error_Module__diagsMask__C)
                  0c036dbc    00000004     omp_config_pe66.oe66 (.const:xdc_runtime_Error_Module__loggerFxn8__C)
                  0c036dc0    00000004     omp_config_pe66.oe66 (.const:xdc_runtime_Error_Module__loggerObj__C)
                  0c036dc4    00000004     omp_config_pe66.oe66 (.const:xdc_runtime_Error_policy__C)
                  0c036dc8    00000004     omp_config_pe66.oe66 (.const:xdc_runtime_Error_raiseHook__C)
                  0c036dcc    00000004     omp_config_pe66.oe66 (.const:xdc_runtime_IGateProvider_Interface__BASE__C)
                  0c036dd0    00000004     omp_config_pe66.oe66 (.const:xdc_runtime_IHeap_Interface__BASE__C)
                  0c036dd4    00000004     omp_config_pe66.oe66 (.const:xdc_runtime_IModule_Interface__BASE__C)
                  0c036dd8    00000004     omp_config_pe66.oe66 (.const:xdc_runtime_Log_L_error__C)
                  0c036ddc    00000004     omp_config_pe66.oe66 (.const:xdc_runtime_Memory_defaultHeapInstance__C)
                  0c036de0    00000004     omp_config_pe66.oe66 (.const:xdc_runtime_Startup_execImpl__C)
                  0c036de4    00000004     omp_config_pe66.oe66 (.const:xdc_runtime_Startup_maxPasses__C)
                  0c036de8    00000004     omp_config_pe66.oe66 (.const:xdc_runtime_Startup_sfxnRts__C)
                  0c036dec    00000004     omp_config_pe66.oe66 (.const:xdc_runtime_Startup_sfxnTab__C)
                  0c036df0    00000004     omp_config_pe66.oe66 (.const:xdc_runtime_SysMin_bufSize__C)
                  0c036df4    00000004     omp_config_pe66.oe66 (.const:xdc_runtime_SysMin_outputFunc__C)
                  0c036df8    00000004     omp_config_pe66.oe66 (.const:xdc_runtime_System_Module__gateObj__C)
                  0c036dfc    00000004     omp_config_pe66.oe66 (.const:xdc_runtime_System_extendFxn__C)
                  0c036e00    00000004     omp_config_pe66.oe66 (.const:xdc_runtime_System_maxAtexitHandlers__C)
                  0c036e04    00000004     omp_config_pe66.oe66 (.const:xdc_runtime_Text_charTab__C)
                  0c036e08    00000004     omp_config_pe66.oe66 (.const:xdc_runtime_Text_nameEmpty__C)
                  0c036e0c    00000004     omp_config_pe66.oe66 (.const:xdc_runtime_Text_nameStatic__C)
                  0c036e10    00000004     omp_config_pe66.oe66 (.const:xdc_runtime_Text_nameUnknown__C)
                  0c036e14    00000004     omp_config_pe66.oe66 (.const:xdc_runtime_Text_nodeTab__C)
                  0c036e18    00000004     omp_config_pe66.oe66 (.const:xdc_runtime_Text_visitRopeFxn__C)
                  0c036e1c    00000002     omp_config_pe66.oe66 (.const:ti_omp_utils_OpenMP_enableMemoryConsistency__C)
                  0c036e1e    00000002     --HOLE-- [fill = 0]
                  0c036e20    00000002     omp_config_pe66.oe66 (.const:ti_omp_utils_OpenMP_qmssInit__C)
                  0c036e22    00000002     --HOLE-- [fill = 0]
                  0c036e24    00000002     omp_config_pe66.oe66 (.const:ti_omp_utils_ThreadLocal_Module__id__C)
                  0c036e26    00000002     --HOLE-- [fill = 0]
                  0c036e28    00000002     omp_config_pe66.oe66 (.const:ti_sdo_ipc_GateMP_Module__id__C)
                  0c036e2a    00000002     --HOLE-- [fill = 0]
                  0c036e2c    00000002     omp_config_pe66.oe66 (.const:ti_sdo_ipc_GateMP_Module__loggerDefined__C)
                  0c036e2e    00000002     --HOLE-- [fill = 0]
                  0c036e30    00000002     omp_config_pe66.oe66 (.const:ti_sdo_ipc_Ipc_Module__id__C)
                  0c036e32    00000002     --HOLE-- [fill = 0]
                  0c036e34    00000002     omp_config_pe66.oe66 (.const:ti_sdo_ipc_Ipc_generateSlaveDataForHost__C)
                  0c036e36    00000002     --HOLE-- [fill = 0]
                  0c036e38    00000002     omp_config_pe66.oe66 (.const:ti_sdo_ipc_ListMP_Module__id__C)
                  0c036e3a    00000002     --HOLE-- [fill = 0]
                  0c036e3c    00000002     omp_config_pe66.oe66 (.const:ti_sdo_ipc_MessageQ_Module__id__C)
                  0c036e3e    00000002     --HOLE-- [fill = 0]
                  0c036e40    00000002     omp_config_pe66.oe66 (.const:ti_sdo_ipc_MessageQ_Module__loggerDefined__C)
                  0c036e42    00000002     --HOLE-- [fill = 0]
                  0c036e44    00000002     omp_config_pe66.oe66 (.const:ti_sdo_ipc_Notify_Module__id__C)
                  0c036e46    00000002     --HOLE-- [fill = 0]
                  0c036e48    00000002     omp_config_pe66.oe66 (.const:ti_sdo_ipc_Notify_numLines__C)
                  0c036e4a    00000002     --HOLE-- [fill = 0]
                  0c036e4c    00000002     omp_config_pe66.oe66 (.const:ti_sdo_ipc_Notify_reservedEvents__C)
                  0c036e4e    00000002     --HOLE-- [fill = 0]
                  0c036e50    00000002     omp_config_pe66.oe66 (.const:ti_sdo_ipc_SharedRegion_Module__id__C)
                  0c036e52    00000002     --HOLE-- [fill = 0]
                  0c036e54    00000002     omp_config_pe66.oe66 (.const:ti_sdo_ipc_SharedRegion_numEntries__C)
                  0c036e56    00000002     --HOLE-- [fill = 0]
                  0c036e58    00000002     omp_config_pe66.oe66 (.const:ti_sdo_ipc_SharedRegion_translate__C)
                  0c036e5a    00000002     --HOLE-- [fill = 0]
                  0c036e5c    00000002     omp_config_pe66.oe66 (.const:ti_sdo_ipc_family_c647x_Interrupt_enableKick__C)
                  0c036e5e    00000002     --HOLE-- [fill = 0]
                  0c036e60    00000002     omp_config_pe66.oe66 (.const:ti_sdo_ipc_gates_GateHWSem_Module__id__C)
                  0c036e62    00000002     --HOLE-- [fill = 0]
                  0c036e64    00000002     omp_config_pe66.oe66 (.const:ti_sdo_ipc_gates_GateMPSupportNull_Module__id__C)
                  0c036e66    00000002     --HOLE-- [fill = 0]
                  0c036e68    00000002     omp_config_pe66.oe66 (.const:ti_sdo_ipc_gates_GatePeterson_Module__id__C)
                  0c036e6a    00000002     --HOLE-- [fill = 0]
                  0c036e6c    00000002     omp_config_pe66.oe66 (.const:ti_sdo_ipc_heaps_HeapMemMP_Module__id__C)
                  0c036e6e    00000002     --HOLE-- [fill = 0]
                  0c036e70    00000002     omp_config_pe66.oe66 (.const:ti_sdo_ipc_notifyDrivers_NotifyDriverShm_Module__id__C)
                  0c036e72    00000002     --HOLE-- [fill = 0]
                  0c036e74    00000002     omp_config_pe66.oe66 (.const:ti_sdo_ipc_nsremote_NameServerRemoteNotify_Module__id__C)
                  0c036e76    00000002     --HOLE-- [fill = 0]
                  0c036e78    00000002     omp_config_pe66.oe66 (.const:ti_sdo_ipc_transports_TransportShm_Module__id__C)
                  0c036e7a    00000002     --HOLE-- [fill = 0]
                  0c036e7c    00000002     omp_config_pe66.oe66 (.const:ti_sdo_ipc_transports_TransportShm_notifyEventId__C)
                  0c036e7e    00000002     --HOLE-- [fill = 0]
                  0c036e80    00000002     omp_config_pe66.oe66 (.const:ti_sdo_utils_MultiProc_Module__id__C)
                  0c036e82    00000002     --HOLE-- [fill = 0]
                  0c036e84    00000002     omp_config_pe66.oe66 (.const:ti_sdo_utils_MultiProc_numProcessors__C)
                  0c036e86    00000002     --HOLE-- [fill = 0]
                  0c036e88    00000002     omp_config_pe66.oe66 (.const:ti_sdo_utils_MultiProc_numProcsInCluster__C)
                  0c036e8a    00000002     --HOLE-- [fill = 0]
                  0c036e8c    00000002     omp_config_pe66.oe66 (.const:ti_sdo_utils_NameServer_Module__id__C)
                  0c036e8e    00000002     --HOLE-- [fill = 0]
                  0c036e90    00000002     omp_config_pe66.oe66 (.const:ti_sysbios_BIOS_Module__id__C)
                  0c036e92    00000002     --HOLE-- [fill = 0]
                  0c036e94    00000002     omp_config_pe66.oe66 (.const:ti_sysbios_family_c64p_EventCombiner_Module__id__C)
                  0c036e96    00000002     --HOLE-- [fill = 0]
                  0c036e98    00000002     omp_config_pe66.oe66 (.const:ti_sysbios_family_c64p_Exception_Module__id__C)
                  0c036e9a    00000002     --HOLE-- [fill = 0]
                  0c036e9c    00000002     omp_config_pe66.oe66 (.const:ti_sysbios_family_c64p_Hwi_Module__id__C)
                  0c036e9e    00000002     --HOLE-- [fill = 0]
                  0c036ea0    00000002     omp_config_pe66.oe66 (.const:ti_sysbios_family_c64p_Hwi_Module__loggerDefined__C)
                  0c036ea2    00000002     --HOLE-- [fill = 0]
                  0c036ea4    00000002     omp_config_pe66.oe66 (.const:ti_sysbios_family_c66_tci66xx_CpIntc_Module__id__C)
                  0c036ea6    00000002     --HOLE-- [fill = 0]
                  0c036ea8    00000002     omp_config_pe66.oe66 (.const:ti_sysbios_gates_GateMutexPri_Module__id__C)
                  0c036eaa    00000002     --HOLE-- [fill = 0]
                  0c036eac    00000002     omp_config_pe66.oe66 (.const:ti_sysbios_gates_GateMutex_Module__id__C)
                  0c036eae    00000002     --HOLE-- [fill = 0]
                  0c036eb0    00000002     omp_config_pe66.oe66 (.const:ti_sysbios_gates_GateSwi_Module__id__C)
                  0c036eb2    00000002     --HOLE-- [fill = 0]
                  0c036eb4    00000002     omp_config_pe66.oe66 (.const:ti_sysbios_hal_Hwi_Module__id__C)
                  0c036eb6    00000002     --HOLE-- [fill = 0]
                  0c036eb8    00000002     omp_config_pe66.oe66 (.const:ti_sysbios_heaps_HeapMem_Module__id__C)
                  0c036eba    00000002     --HOLE-- [fill = 0]
                  0c036ebc    00000002     omp_config_pe66.oe66 (.const:ti_sysbios_knl_Clock_Module__id__C)
                  0c036ebe    00000002     --HOLE-- [fill = 0]
                  0c036ec0    00000002     omp_config_pe66.oe66 (.const:ti_sysbios_knl_Clock_Module__loggerDefined__C)
                  0c036ec2    00000002     --HOLE-- [fill = 0]
                  0c036ec4    00000002     omp_config_pe66.oe66 (.const:ti_sysbios_knl_Semaphore_Module__id__C)
                  0c036ec6    00000002     --HOLE-- [fill = 0]
                  0c036ec8    00000002     omp_config_pe66.oe66 (.const:ti_sysbios_knl_Semaphore_Module__loggerDefined__C)
                  0c036eca    00000002     --HOLE-- [fill = 0]
                  0c036ecc    00000002     omp_config_pe66.oe66 (.const:ti_sysbios_knl_Swi_Module__id__C)
                  0c036ece    00000002     --HOLE-- [fill = 0]
                  0c036ed0    00000002     omp_config_pe66.oe66 (.const:ti_sysbios_knl_Swi_Module__loggerDefined__C)
                  0c036ed2    00000002     --HOLE-- [fill = 0]
                  0c036ed4    00000002     omp_config_pe66.oe66 (.const:ti_sysbios_knl_Task_Module__id__C)
                  0c036ed6    00000002     --HOLE-- [fill = 0]
                  0c036ed8    00000002     omp_config_pe66.oe66 (.const:ti_sysbios_knl_Task_Module__loggerDefined__C)
                  0c036eda    00000002     --HOLE-- [fill = 0]
                  0c036edc    00000002     omp_config_pe66.oe66 (.const:ti_sysbios_knl_Task_deleteTerminatedTasks__C)
                  0c036ede    00000002     --HOLE-- [fill = 0]
                  0c036ee0    00000002     omp_config_pe66.oe66 (.const:ti_sysbios_knl_Task_initStackFlag__C)
                  0c036ee2    00000002     --HOLE-- [fill = 0]
                  0c036ee4    00000002     omp_config_pe66.oe66 (.const:ti_sysbios_timers_timer64_Timer_Module__id__C)
                  0c036ee6    00000002     --HOLE-- [fill = 0]
                  0c036ee8    00000002     omp_config_pe66.oe66 (.const:ti_sysbios_timers_timer64_Timer_startupNeeded__C)
                  0c036eea    00000002     --HOLE-- [fill = 0]
                  0c036eec    00000002     omp_config_pe66.oe66 (.const:xdc_runtime_Core_Module__id__C)
                  0c036eee    00000002     --HOLE-- [fill = 0]
                  0c036ef0    00000002     omp_config_pe66.oe66 (.const:xdc_runtime_Error_Module__loggerDefined__C)
                  0c036ef2    00000002     --HOLE-- [fill = 0]
                  0c036ef4    00000002     omp_config_pe66.oe66 (.const:xdc_runtime_Error_maxDepth__C)
                  0c036ef6    00000002     --HOLE-- [fill = 0]
                  0c036ef8    00000002     omp_config_pe66.oe66 (.const:xdc_runtime_Memory_Module__id__C)
                  0c036efa    00000002     --HOLE-- [fill = 0]
                  0c036efc    00000002     omp_config_pe66.oe66 (.const:xdc_runtime_SysMin_flushAtExit__C)
                  0c036efe    00000002     --HOLE-- [fill = 0]
                  0c036f00    00000002     omp_config_pe66.oe66 (.const:xdc_runtime_Text_charCnt__C)
                  0c036f02    00000002     --HOLE-- [fill = 0]
                  0c036f04    00000002     omp_config_pe66.oe66 (.const:xdc_runtime_Text_isLoaded__C)
                  0c036f06    00000002     --HOLE-- [fill = 0]
                  0c036f08    00000002     omp_config_pe66.oe66 (.const:xdc_runtime_Text_registryModsLastId__C)
                  0c036f0a    00000002     --HOLE-- [fill = 0]
                  0c036f0c    00000002     omp_config_pe66.oe66 (.const:xdc_runtime_Text_unnamedModsLastId__C)

.tdata     0    0c036f10    00000008     
                  0c036f10    00000004     rts6600_elf_mt.lib : errno.obj (.tdata)
                  0c036f14    00000004                        : rand.obj (.tdata)

.tbss      0    0c036f18    000000c8     UNINITIALIZED
                  0c036f18    000000c8     rts6600_elf_mt.lib : getenv.obj (.tbss)

.switch.1 
*          0    0c036fe0    00000010     
                  0c036fe0    00000010     ipc.ae66 : Ipc.obj (.switch:ti_sdo_ipc_GateMP_Instance_finalize__F)

.vecs      0    0c037000    00000200     
                  0c037000    00000200     omp_config_pe66.oe66 (.vecs)

.neardata 
*          0    0c037200    00000011     RUN ADDR = 80080000
                  0c037200    00000010     ti.omp.navigatorOsal.C6678.ae66 : Navigatorosal.oe66 (.neardata)
                  0c037210    00000001     ti.drv.qmss.ae66 : qmss_drv.oe66 (.neardata)

.fardata   0    0c037218    0000019c     RUN ADDR = 80080018
                  0c037218    00000120     ti.omp.navigator.C6678.ae66 : qmss_device.oe66 (.fardata:omp_qmssGblCfgParams)
                  0c037338    00000078                                 : cppi_device.oe66 (.fardata:omp_cppiGblCfgParams)
                  0c0373b0    00000004     ti.drv.cppi.ae66 : cppi_drv.oe66 (.fardata)

.switch.2 
*          0    0c0373b4    00000030     
                  0c0373b4    00000030     ti.omp.ae66 : env.oe66 (.switch:parse_stacksize)

.binit     0    0c0373e4    0000001c     
                  0c0373e4    0000001c     (.binit)

.text:_c_int00 
*          0    0c037400    000000a0     
                  0c037400    000000a0     boot.ae66 : boot.oe66 (.text:_c_int00)

.switch.3 
*          0    0c0374a0    00000070     
                  0c0374a0    00000070     ti.csl.ae66 : csl_chip.oe66 (.switch:CSL_chipReadReg)

.cinit     0    0c037510    00001288     
                  0c037510    000011c2     (.cinit..localfar.load) [load image, compression = rle]
                  0c0386d2    00000002     --HOLE-- [fill = 0]
                  0c0386d4    00000026     (.cinit.gomp_data.2.load) [load image, compression = rle]
                  0c0386fa    00000002     --HOLE-- [fill = 0]
                  0c0386fc    0000000d     (.cinit..qmss.1.load) [load image, compression = rle]
                  0c038709    00000003     --HOLE-- [fill = 0]
                  0c03870c    0000000c     (__TI_handler_table)
                  0c038718    0000000b     (.cinit..qmss.2.load) [load image, compression = rle]
                  0c038723    00000001     --HOLE-- [fill = 0]
                  0c038724    00000009     (.cinit.gomp_data.1.load) [load image, compression = rle]
                  0c03872d    00000003     --HOLE-- [fill = 0]
                  0c038730    00000008     (.cinit..bss.load) [load image, compression = zero_init]
                  0c038738    00000008     (.cinit..cppi.load) [load image, compression = zero_init]
                  0c038740    00000008     (.cinit..far.load) [load image, compression = zero_init]
                  0c038748    00000008     (.cinit..tls_tp.load) [load image, compression = zero_init]
                  0c038750    00000048     (__TI_cinit_table)

.TI.tls_init 
*          0    0c038798    00000028     
                  0c038798    0000000d     (.TI.tls_init..tdata.load) [load image, compression = rle]
                  0c0387a5    00000003     --HOLE-- [fill = 0]
                  0c0387a8    00000008     (.TI.tls_init..tbss.load) [load image, compression = zero_init]
                  0c0387b0    00000010     (.ovly:__TI_tls_init_table)

ti.sdo.ipc.SharedRegion_1 
*          0    80000000    00080000     NOLOAD SECTION
                  80000000    00080000     --HOLE--

.far       0    800801b4    00000120     UNINITIALIZED
                  800801b4    00000120     ti.drv.qmss.ae66 : qmss_drv.oe66 (.far)

.bss       0    800802d4    00000004     UNINITIALIZED
                  800802d4    00000004     omp_config_pe66.oe66 (.bss)

.neardata 
*          0    800802d8    00000000     UNINITIALIZED

.rodata    0    800802d8    00000000     UNINITIALIZED

ti.sdo.ipc.SharedRegion_2 
*          0    90000000    01000000     NOLOAD SECTION
                  90000000    01000000     --HOLE--

ti.sdo.ipc.SharedRegion_0 
*          0    a0300000    00025000     NOLOAD SECTION
                  a0300000    00025000     --HOLE--

.qmss.1    0    a0325000    000120ac     
                  a0325000    000120a8     ti.omp.navigator.C6678.ae66 : Navigator.oe66 (.qmss:uninit) [fill = 0]
                  a03370a8    00000004                                 : Navigator.oe66 (.qmss:init)

gomp_data.1 
*          0    a03370b0    00000050     
                  a03370b0    00000050     ti.omp.ae66 : team.oe66 (gomp_data) [fill = 0]

.qmss.2    0    a0337100    00002400     
                  a0337100    00002400     ti.drv.qmss.ae66 : qmss_drv.oe66 (.qmss) [fill = 0]

gomp_data.2 
*          0    a0339500    00000272     
                  a0339500    000001d0     ti.omp.utils.ae66 : OpenMP.oe66 (gomp_data) [fill = 0]
                  a03396d0    00000040                       : ThreadLocal.oe66 (gomp_data:uninit) [fill = 0]
                  a0339710    00000028     ti.omp.ae66 : env.oe66 (gomp_data:uninit) [fill = 0]
                  a0339738    00000020                 : env.oe66 (gomp_data:init)
                  a0339758    00000018                 : critical.oe66 (gomp_data) [fill = 0]
                  a0339770    00000002     ti.omp.utils.ae66 : ThreadLocal.oe66 (gomp_data:init)

.cppi      0    a0339780    00000200     UNINITIALIZED
                  a0339780    00000200     ti.drv.cppi.ae66 : cppi_drv.oe66 (.cppi)


LINKER GENERATED COPY TABLES

binit @ 0c0373e4 records: 2, size/record: 12, table size: 28
	.neardata: load addr=0c037200, load size=00000011, run addr=80080000, run size=00000011, compression=none
	.fardata: load addr=0c037218, load size=0000019c, run addr=80080018, run size=0000019c, compression=none
__TI_cinit_table @ 0c038750 records: 9, size/record: 8, table size: 72
	.localfar: load addr=0c037510, load size=000011c2 bytes, run addr=00800000, run size=0002b4f4 bytes, compression=rle
	gomp_data.2: load addr=0c0386d4, load size=00000026 bytes, run addr=a0339500, run size=00000272 bytes, compression=rle
	.qmss.1: load addr=0c0386fc, load size=0000000d bytes, run addr=a0325000, run size=000120ac bytes, compression=rle
	.qmss.2: load addr=0c038718, load size=0000000b bytes, run addr=a0337100, run size=00002400 bytes, compression=rle
	gomp_data.1: load addr=0c038724, load size=00000009 bytes, run addr=a03370b0, run size=00000050 bytes, compression=rle
	.bss: load addr=0c038730, load size=00000008 bytes, run addr=800802d4, run size=00000004 bytes, compression=zero_init
	.cppi: load addr=0c038738, load size=00000008 bytes, run addr=a0339780, run size=00000200 bytes, compression=zero_init
	.far: load addr=0c038740, load size=00000008 bytes, run addr=800801b4, run size=00000120 bytes, compression=zero_init
	.tls_tp: load addr=0c038748, load size=00000008 bytes, run addr=0082b4f4, run size=00000004 bytes, compression=zero_init
__TI_tls_init_table @ 0c0387b0 records: 2, size/record: 8, table size: 16
	.tdata: load addr=0c038798, load size=0000000d bytes, run addr=0c036f10, run size=00000008 bytes, compression=rle
	.tbss: load addr=0c0387a8, load size=00000008 bytes, run addr=0c036f18, run size=000000c8 bytes, compression=zero_init


LINKER GENERATED HANDLER TABLE

__TI_handler_table @ 0c03870c records: 3, size/record: 4, table size: 12
	index: 0, handler: __TI_decompress_rle24
	index: 1, handler: __TI_decompress_none
	index: 2, handler: __TI_zero_init


GLOBAL SYMBOLS: SORTED ALPHABETICALLY BY Name 

address    name
--------   ----
a03370f0   BufferMgmt
0c030b40   C$$EXIT
0c02d378   C$$IO$$
0c023400   CSL_chipReadReg
0c028f20   Cppi_close
0c028fe0   Cppi_exit
0c030800   Cppi_init
0c01efa0   Cppi_initCfg
0c012580   Cppi_initDescriptor
0c01ad80   Cppi_open
0c02a420   Create_Queue
a0337098   EventFreeDescHnd
0c02eec0   GOMP_barrier
0c01f160   GOMP_parallel_end
0c02ef00   GOMP_parallel_start
0c02d720   GateMP_Params_init
0c023540   GateMP_close
0c01d060   GateMP_enter
0c030820   GateMP_getDefaultRemote
0c01d260   GateMP_leave
0c0156c0   GateMP_openByAddr
0c0146e0   GateMP_sharedMemReq
0c02b820   HOSTclose
0c0275c0   HOSTgetenv
0c0276a0   HOSTlseek
0c027780   HOSTopen
0c0290a0   HOSTread
0c021120   HOSTrename
0c02a4c0   HOSTunlink
0c029160   HOSTwrite
0c02d780   HeapMemMP_Params_init
0c029220   HeapMemMP_create
0c01f320   HeapMemMP_openByAddr
0c014360   HeapMemMP_sharedMemReq
0c002fe0   Ipc_attach
800802d4   Ipc_sr0MemorySetup
0c018660   Ipc_start
0c0292e0   ListMP_create
0c00a6c0   ListMP_getHead
0c01d460   ListMP_openByAddr
0c010c60   ListMP_putTail
0c019ce0   ListMP_sharedMemReq
0c0053c0   MessageQ_put
0c030840   MultiProc_getBaseIdOfCluster
0c030860   MultiProc_getNumProcsInCluster
0c030880   MultiProc_self
0c0212a0   MultiProc_setLocalId
0c0081a0   NameServer_add
0c017940   NameServer_getLocal
0c023680   Notify_attach
0c021420   Notify_intLineRegistered
0c02d840   Notify_numIntLines
0c00a0e0   Notify_registerEventSingle
0c008ec0   Notify_sendEvent
0c00ac80   Notify_unregisterEventSingle
0c0308a0   Osal_cppiBeginMemAccess
0c02d8a0   Osal_cppiCsEnter
0c0308c0   Osal_cppiCsExit
0c0308e0   Osal_cppiEndMemAccess
0c02ef40   Osal_cppiFree
0c02ef80   Osal_cppiMalloc
0c02efc0   Osal_qmssBeginMemAccess
0c02d900   Osal_qmssCsEnter
0c030900   Osal_qmssCsExit
0c02f000   Osal_qmssEndMemAccess
0c02f040   Qmss_getMemRegDescSize
0c02b8a0   Qmss_getMemRegQueueHandle
0c030920   Qmss_getQueueNumber
0c014a20   Qmss_init
0c006400   Qmss_insertMemoryRegion
0c02a560   Qmss_queueClose
0c02b920   Qmss_queueOpen
0c030940   Qmss_start
0c02a600   Qmss_startCfg
0c02f080   Queue_empty
0c01fda0   SharedRegion_getCacheLineSize
0c015fc0   SharedRegion_getEntry
0c01ff40   SharedRegion_getHeap
0c0293a0   SharedRegion_getId
0c0162a0   SharedRegion_getPtr
0c0188e0   SharedRegion_getSRPtr
0c0200e0   SharedRegion_isCacheEnabled
0082aa40   TSK_idle
a03396d0   ThreadLocal_destructors
a0339770   ThreadLocal_usedKeys
0c000000   __ASM__
0082c4f8   __CIOBUF_
0c000078   __ISA__
0c000090   __PLAT__
0c0000b0   __TARG__
0c038750   __TI_CINIT_Base
0c038798   __TI_CINIT_Limit
0c03870c   __TI_Handler_Table_Base
0c038718   __TI_Handler_Table_Limit
UNDEFED    __TI_INITARRAY_Base
UNDEFED    __TI_INITARRAY_Limit
0082c4f8   __TI_STACK_END
00001000   __TI_STACK_SIZE
80080000   __TI_STATIC_BASE
000000d0   __TI_TLS_BLOCK_SIZE
0c0387b0   __TI_TLS_INIT_Base
0c0387c0   __TI_TLS_INIT_Limit
0c036f10   __TI_TLS_MAIN_THREAD_Base
00000001   __TI_args_main
0c030960   __TI_data_synch_INV
0c02f0c0   __TI_data_synch_WB
0c02f100   __TI_data_synch_WBINV
0c030ba0   __TI_decompress_none
0c030bc0   __TI_decompress_rle24
0082b4cc   __TI_enable_exit_profile_output
ffffffff   __TI_pprof_out_hndl
ffffffff   __TI_prof_data_size
ffffffff   __TI_prof_data_start
0c02b9a0   __TI_resource_lock
0c02f140   __TI_resource_unlock
0c0373e4   __TI_table_binit
0c031c40   __TI_tls_block_size
0082b4f4   __TI_tls_currentTP
0c02a1e0   __TI_tls_init
0c027be0   __TI_zero_init
0c0000d8   __TRDR__
0c0373e4   __binit__
0c00b240   __c6xabi_divd
0c027860   __c6xabi_divi
0c029520   __c6xabi_divu
0c020280   __c6xabi_divul
0c01afc0   __c6xabi_divull
0c030980   __c6xabi_errno_addr
0c02d960   __c6xabi_frcmpyd_div
0c031c60   __c6xabi_get_tp
0c02f180   __c6xabi_isinf
0c02ba20   __c6xabi_llshl
0c02d9c0   __c6xabi_llshru
0c0309a0   __c6xabi_negll
0c02a740   __c6xabi_remu
ffffffff   __c_args__
0c0309c0   __cxa_atexit
0c029460   __cxa_finalize
0c0309e0   __cxa_ia64_exit
0c027860   __divi
0c029520   __divu
00000000   __errno
0c02a740   __remu
0c030a00   __xdc__init
0082a23c   __xdc__init__addr
0c02f200   _args_main
00000000   _argsize
0c0237c0   _auto_init_elf
0c037400   _c_int00
0c02a7e0   _cleanup
0082b4c4   _cleanup_ptr
0c024a80   _closefile
0c035948   _ctypes_
0082b4c0   _delete_mutexes_ptr
0c0295e0   _doflush
0082b4c8   _dtors_ptr
0082b4ec   _ft_end
0082b1b0   _ftable
0082b4dc   _lock
0c030a20   _nop
0c00fae0   _printfi
0c030ac0   _register_lock
0c030ae0   _register_unlock
0082b4f8   _stack
0c02da20   _subcull
0c02f240   _system_pre_init
00829180   _tmpnams
0082b4e0   _unlock
0c0255c0   _wrt_ok
0c030b40   abort
0c030b60   atexit
0c027a20   atoi
0c0373e4   binit
0c027b00   close
a0337090   completionQueHnd
0c0256c0   copy_in
a0337000   cpdmaCfg
8008000c   cppiFreeCounter
a033708c   cppiHnd
800801b0   cppiLObj
80080008   cppiMallocCounter
a0339780   cppiObject
0c01de60   cppi_internal_heap_add
0c02ab00   cppi_internal_heap_malloc
0c0296a0   cppi_internal_heap_release
0c02da80   cppi_list_add
0c030b80   cppi_list_get_head
0c02bb20   cppi_list_remove
a033705c   descCfg
0c00f3e0   dwt
0c036f10   errno
a0335000   eventDesc
a0337094   eventQueHnd
0c027cc0   exit
0c02dba0   exit_Navigator
0c01b680   fputc
0c012940   fputs
0c02f300   free
0c023a40   fseek
0c030c00   getenv
00000008   getenv_out
a0339750   gomp_available_cpus
0c02f380   gomp_barrier_destroy
0c00d440   gomp_barrier_handle_tasks
0c02bba0   gomp_barrier_init
0c02f3c0   gomp_barrier_reinit
0c02dc00   gomp_barrier_wait
0c023cc0   gomp_barrier_wait_end
a0339710   gomp_cpu_affinity
a0339714   gomp_cpu_affinity_len
0c030c40   gomp_dynamic_max_threads
0c02f400   gomp_end_task
0c02f440   gomp_error
0c02f480   gomp_fatal
0c02f4c0   gomp_fini_work_share
0c02dc60   gomp_free
a0339738   gomp_global_icv
0c030c60   gomp_init_affinity
0c030c80   gomp_init_num_threads
0c02dcc0   gomp_init_task
0c030ca0   gomp_init_thread_affinity
0c0257c0   gomp_init_work_share
a03370ec   gomp_main_exit
0c02dd20   gomp_malloc
a0339754   gomp_managed_threads
a0339748   gomp_max_active_levels_var
0c02bc20   gomp_new_icv
0c020420   gomp_new_team
0c029760   gomp_realloc
a0339718   gomp_remaining_threads_count
a033971c   gomp_remaining_threads_lock
0c01a1a0   gomp_resolve_num_threads
a0339728   gomp_spin_count_var
0c02dd80   gomp_team_barrier_wait
0c012d00   gomp_team_barrier_wait_end
0c02ac40   gomp_team_barrier_wake
0c019060   gomp_team_end
0c005c00   gomp_team_start
a03370b0   gomp_thread_attr
0c02f540   gomp_thread_create
a03370e8   gomp_thread_destructor
0c01c3a0   gomp_thread_getspecific
0c025ec0   gomp_thread_key_create
0c022900   gomp_thread_key_delete
a033974c   gomp_thread_limit_var
0c0153a0   gomp_thread_setspecific
a0339730   gomp_throttled_spin_count_var
a03370fc   gomp_tls_key
0c024de0   init_Navigator
0c02be20   initialize_critical
0c017e80   initialize_env
0c023e00   initialize_team
a03370a8   isQMSSInitialized
a0325000   linkingRAM0
0c02ace0   lseek
0c027da0   ltoa
0c00f5e4   main
0c02bea0   malloc
a0337044   memInfo
0c02de40   memccpy
0c02ad80   memcpy
0c027e80   memset
00000004   next
0c02bfa0   ompBufferAlloc
0c025bc0   ompBufferFree
0c02dea0   ompBufferMgmtInit
80080138   omp_cppiGblCfgParams
0c02f600   omp_get_num_threads
0c030d20   omp_get_thread_num
80080018   omp_qmssGblCfgParams
0c02df00   omp_set_num_threads
0c027f60   printf
0c030d40   pthread_equal
0c02df60   pthread_mutex_destroy
0c02c020   pthread_mutex_init
0c0298e0   pthread_mutex_lock
0c0299a0   pthread_mutex_unlock
0c029a60   pthread_once
0c02f640   pthread_self
80080004   qmssFreeCounter
a0339100   qmssGObj
a0337018   qmssInitConfig
800801b4   qmssLObj
80080010   qmssLObjIsValid
80080000   qmssMallocCounter
a0337100   queueFree
0c028040   queue_pop_elem_wait
0c02aec0   queue_push_elem
0c02f680   rand
0c02c0a0   readmsg
0c028120   realloc
a03370a0   release
a033709c   releaseHnd
0c02eb00   remove
a03370a4   runCount
0c01c180   setvbuf
0c025dc0   siu_ibl_download_core
0c02af60   strerror
0c015080   strtoul
0c0205c0   sysExit
0c02dfc0   team_destructor
0c02f700   ti_omp_utils_HeapOMP_Handle__label__S
0c030d60   ti_omp_utils_HeapOMP_Instance_init__F
0c036024   ti_omp_utils_HeapOMP_Module__FXNS__C
00829ac8   ti_omp_utils_HeapOMP_Module__root__V
0c0363cc   ti_omp_utils_HeapOMP_Object__DESC__C
0c0363ec   ti_omp_utils_HeapOMP_Object__PARAMS__C
0c02c1a0   ti_omp_utils_HeapOMP_Object__create__S
0c02f740   ti_omp_utils_HeapOMP_Object__delete__S
0082b120   ti_omp_utils_HeapOMP_Object__table__V
0c02c220   ti_omp_utils_HeapOMP_alloc__E
0c02f780   ti_omp_utils_HeapOMP_free__E
0c030d80   ti_omp_utils_HeapOMP_getStats__E
0c030da0   ti_omp_utils_HeapOMP_isBlocking__E
0c030da0   ti_omp_utils_HeapOMP_isBlocking__F
00829ad0   ti_omp_utils_OpenMP_Module__state__V
0c035b2c   ti_omp_utils_OpenMP_baseIdOfCluster__C
0c035cf4   ti_omp_utils_OpenMP_cppiHwSem__C
0c021a20   ti_omp_utils_OpenMP_createThread__E
0c036e1c   ti_omp_utils_OpenMP_enableMemoryConsistency__C
0c02c2a0   ti_omp_utils_OpenMP_exitThread__E
0c02c2a0   ti_omp_utils_OpenMP_exitThread__F
0c028200   ti_omp_utils_OpenMP_mainTaskExit__E
0c028200   ti_omp_utils_OpenMP_mainTaskExit__F
0c02e020   ti_omp_utils_OpenMP_mainTask__I
0c035f14   ti_omp_utils_OpenMP_masterFxn__C
0c017100   ti_omp_utils_OpenMP_masterTask__I
0c03613c   ti_omp_utils_OpenMP_mpaxIndex__C
0c036894   ti_omp_utils_OpenMP_mpaxRaddr__C
0c0368e4   ti_omp_utils_OpenMP_noncachedMsmcAlias__C
0c036928   ti_omp_utils_OpenMP_ompHwSemMem__C
0c03692c   ti_omp_utils_OpenMP_ompHwSemMutex__C
0c036930   ti_omp_utils_OpenMP_ompHwSem__C
0c036934   ti_omp_utils_OpenMP_qmssDestQueueNum__C
0c036938   ti_omp_utils_OpenMP_qmssHwSem__C
0c036e20   ti_omp_utils_OpenMP_qmssInit__C
0c03693c   ti_omp_utils_OpenMP_qmssMemRegion__C
0c036940   ti_omp_utils_OpenMP_qmssStartIndex__C
0c02c320   ti_omp_utils_OpenMP_setProcId__I
0c036944   ti_omp_utils_OpenMP_stackRegionId__C
0c036948   ti_omp_utils_OpenMP_stackSize__C
0c03694c   ti_omp_utils_OpenMP_threadPriority__C
0c025020   ti_omp_utils_OpenMP_threadSpawnLoop__I
0c030dc0   ti_omp_utils_OpenMP_useSharedHeap__E
0c030dc0   ti_omp_utils_OpenMP_useSharedHeap__F
00829ae4   ti_omp_utils_ThreadLocalStorage_Module__state__V
0c02b000   ti_omp_utils_ThreadLocalStorage_createFxn__E
0c02b000   ti_omp_utils_ThreadLocalStorage_createFxn__F
0c02e080   ti_omp_utils_ThreadLocalStorage_deleteFxn__E
0c02e080   ti_omp_utils_ThreadLocalStorage_deleteFxn__F
0c030de0   ti_omp_utils_ThreadLocalStorage_registerFxn__E
0c030de0   ti_omp_utils_ThreadLocalStorage_registerFxn__F
0c02f7c0   ti_omp_utils_ThreadLocalStorage_switchFxn__E
0c02f7c0   ti_omp_utils_ThreadLocalStorage_switchFxn__F
0c036950   ti_omp_utils_ThreadLocal_A_invalidContext__C
0c036954   ti_omp_utils_ThreadLocal_A_invalidKey__C
0c036958   ti_omp_utils_ThreadLocal_Module__diagsEnabled__C
0c03695c   ti_omp_utils_ThreadLocal_Module__diagsIncluded__C
0c036960   ti_omp_utils_ThreadLocal_Module__diagsMask__C
0c036e24   ti_omp_utils_ThreadLocal_Module__id__C
00829ae0   ti_omp_utils_ThreadLocal_Module__state__V
0c02f800   ti_omp_utils_ThreadLocal_createFxn__E
0c02f800   ti_omp_utils_ThreadLocal_createFxn__F
0c029b20   ti_omp_utils_ThreadLocal_exitFxn__E
0c029b20   ti_omp_utils_ThreadLocal_exitFxn__F
0c01c3a0   ti_omp_utils_ThreadLocal_getspecific__E
0c025ec0   ti_omp_utils_ThreadLocal_key_create__E
0c022900   ti_omp_utils_ThreadLocal_key_delete__E
0c030e00   ti_omp_utils_ThreadLocal_registerFxn__E
0c030e00   ti_omp_utils_ThreadLocal_registerFxn__F
0c0153a0   ti_omp_utils_ThreadLocal_setspecific__E
0c036964   ti_sdo_ipc_GateMP_A_invalidClose__C
0c036968   ti_sdo_ipc_GateMP_A_invalidDelete__C
0c03696c   ti_sdo_ipc_GateMP_E_gateUnavailable__C
0c036970   ti_sdo_ipc_GateMP_E_localGate__C
0c004260   ti_sdo_ipc_GateMP_Instance_finalize__F
0c000000   ti_sdo_ipc_GateMP_Instance_init__F
0c036974   ti_sdo_ipc_GateMP_LM_create__C
0c036978   ti_sdo_ipc_GateMP_LM_delete__C
0c03697c   ti_sdo_ipc_GateMP_LM_enter__C
0c036980   ti_sdo_ipc_GateMP_LM_leave__C
0c036984   ti_sdo_ipc_GateMP_LM_open__C
008292c8   ti_sdo_ipc_GateMP_Module_State_0_remoteCustom1Gates__A
0082b150   ti_sdo_ipc_GateMP_Module_State_0_remoteCustom2Gates__A
0082ac00   ti_sdo_ipc_GateMP_Module_State_0_remoteSystemGates__A
0c036988   ti_sdo_ipc_GateMP_Module__diagsEnabled__C
0c03698c   ti_sdo_ipc_GateMP_Module__diagsIncluded__C
0c036990   ti_sdo_ipc_GateMP_Module__diagsMask__C
0c036e28   ti_sdo_ipc_GateMP_Module__id__C
0c036e2c   ti_sdo_ipc_GateMP_Module__loggerDefined__C
0c036994   ti_sdo_ipc_GateMP_Module__loggerFxn2__C
0c036998   ti_sdo_ipc_GateMP_Module__loggerFxn4__C
0c03699c   ti_sdo_ipc_GateMP_Module__loggerObj__C
00829aec   ti_sdo_ipc_GateMP_Module__root__V
00829af4   ti_sdo_ipc_GateMP_Module__state__V
0c03640c   ti_sdo_ipc_GateMP_Object__DESC__C
0c035e4c   ti_sdo_ipc_GateMP_Object__PARAMS__C
0c0282e0   ti_sdo_ipc_GateMP_Object__create__S
0c02e0e0   ti_sdo_ipc_GateMP_Object__delete__S
0c030e20   ti_sdo_ipc_GateMP_Params__init__S
0c030e40   ti_sdo_ipc_GateMP_RemoteCustom1Proxy_Object__create__S
0c030e60   ti_sdo_ipc_GateMP_RemoteCustom1Proxy_Object__delete__S
0c030e80   ti_sdo_ipc_GateMP_RemoteCustom1Proxy_Params__init__S
0c030ea0   ti_sdo_ipc_GateMP_RemoteCustom1Proxy_Proxy__abstract__S
0c030ec0   ti_sdo_ipc_GateMP_RemoteCustom1Proxy_Proxy__delegate__S
0c031260   ti_sdo_ipc_GateMP_RemoteCustom1Proxy_getReservedMask__E
0c031280   ti_sdo_ipc_GateMP_RemoteCustom1Proxy_query__E
0c02e320   ti_sdo_ipc_GateMP_RemoteCustom1Proxy_sharedMemReq__E
0c030ee0   ti_sdo_ipc_GateMP_RemoteCustom2Proxy_Object__create__S
0c030f00   ti_sdo_ipc_GateMP_RemoteCustom2Proxy_Object__delete__S
0c030f20   ti_sdo_ipc_GateMP_RemoteCustom2Proxy_Params__init__S
0c030f40   ti_sdo_ipc_GateMP_RemoteCustom2Proxy_Proxy__abstract__S
0c030f60   ti_sdo_ipc_GateMP_RemoteCustom2Proxy_Proxy__delegate__S
0c0311e0   ti_sdo_ipc_GateMP_RemoteCustom2Proxy_getReservedMask__E
0c031200   ti_sdo_ipc_GateMP_RemoteCustom2Proxy_query__E
0c031220   ti_sdo_ipc_GateMP_RemoteCustom2Proxy_sharedMemReq__E
0c030f80   ti_sdo_ipc_GateMP_RemoteSystemProxy_Object__create__S
0c030fa0   ti_sdo_ipc_GateMP_RemoteSystemProxy_Object__delete__S
0c030fc0   ti_sdo_ipc_GateMP_RemoteSystemProxy_Params__init__S
0c030fe0   ti_sdo_ipc_GateMP_RemoteSystemProxy_Proxy__abstract__S
0c031000   ti_sdo_ipc_GateMP_RemoteSystemProxy_Proxy__delegate__S
0c031140   ti_sdo_ipc_GateMP_RemoteSystemProxy_getReservedMask__E
0c031160   ti_sdo_ipc_GateMP_RemoteSystemProxy_query__E
0c031180   ti_sdo_ipc_GateMP_RemoteSystemProxy_sharedMemReq__E
0c01e820   ti_sdo_ipc_GateMP_attach__E
0c01e820   ti_sdo_ipc_GateMP_attach__F
0c022a60   ti_sdo_ipc_GateMP_createLocal__E
0c022a60   ti_sdo_ipc_GateMP_createLocal__F
0c01ea00   ti_sdo_ipc_GateMP_getFreeResource__I
0c029be0   ti_sdo_ipc_GateMP_getRegion0ReservedSize__E
0c029be0   ti_sdo_ipc_GateMP_getRegion0ReservedSize__F
0c031020   ti_sdo_ipc_GateMP_getSharedAddr__E
0c031020   ti_sdo_ipc_GateMP_getSharedAddr__F
0c020760   ti_sdo_ipc_GateMP_openRegion0Reserved__E
0c020760   ti_sdo_ipc_GateMP_openRegion0Reserved__F
0c0103a0   ti_sdo_ipc_GateMP_setRegion0Reserved__E
0c0103a0   ti_sdo_ipc_GateMP_setRegion0Reserved__F
0c01c5c0   ti_sdo_ipc_GateMP_start__E
0c01c5c0   ti_sdo_ipc_GateMP_start__F
0c0369a0   ti_sdo_ipc_Ipc_A_addrNotCacheAligned__C
0c0369a4   ti_sdo_ipc_Ipc_A_addrNotInSharedRegion__C
0c0369a8   ti_sdo_ipc_Ipc_A_internal__C
0c0369ac   ti_sdo_ipc_Ipc_A_invArgument__C
0c0369b0   ti_sdo_ipc_Ipc_A_invParam__C
0c0369b4   ti_sdo_ipc_Ipc_A_nullArgument__C
0c0369b8   ti_sdo_ipc_Ipc_A_nullPointer__C
0c0369bc   ti_sdo_ipc_Ipc_E_internal__C
0c0369c0   ti_sdo_ipc_Ipc_E_nameFailed__C
0c0369c4   ti_sdo_ipc_Ipc_E_versionMismatch__C
0082a9a0   ti_sdo_ipc_Ipc_Module_State_0_procEntry__A
0c0369c8   ti_sdo_ipc_Ipc_Module__diagsEnabled__C
0c0369cc   ti_sdo_ipc_Ipc_Module__diagsIncluded__C
0c0369d0   ti_sdo_ipc_Ipc_Module__diagsMask__C
0c036e30   ti_sdo_ipc_Ipc_Module__id__C
00829b3c   ti_sdo_ipc_Ipc_Module__state__V
0c036e34   ti_sdo_ipc_Ipc_generateSlaveDataForHost__C
0c0369d4   ti_sdo_ipc_Ipc_numUserFxns__C
0c010800   ti_sdo_ipc_Ipc_procSyncFinish__I
0c00d9a0   ti_sdo_ipc_Ipc_procSyncStart__I
0c0369d8   ti_sdo_ipc_Ipc_procSync__C
0c0369dc   ti_sdo_ipc_Ipc_userFxns__C
0c01a400   ti_sdo_ipc_ListMP_Instance_finalize__F
0c004b20   ti_sdo_ipc_ListMP_Instance_init__F
0c0369e0   ti_sdo_ipc_ListMP_Module__diagsEnabled__C
0c0369e4   ti_sdo_ipc_ListMP_Module__diagsIncluded__C
0c0369e8   ti_sdo_ipc_ListMP_Module__diagsMask__C
0c036e38   ti_sdo_ipc_ListMP_Module__id__C
00829b48   ti_sdo_ipc_ListMP_Module__root__V
00829b50   ti_sdo_ipc_ListMP_Module__state__V
0c03642c   ti_sdo_ipc_ListMP_Object__DESC__C
0c035f74   ti_sdo_ipc_ListMP_Object__PARAMS__C
0c0283c0   ti_sdo_ipc_ListMP_Object__create__S
0c02e140   ti_sdo_ipc_ListMP_Object__delete__S
0c031040   ti_sdo_ipc_ListMP_Params__init__S
0c0369ec   ti_sdo_ipc_MessageQ_A_invalidMsg__C
0c0369f0   ti_sdo_ipc_MessageQ_A_invalidObj__C
0c0369f4   ti_sdo_ipc_MessageQ_A_invalidQueueId__C
0c0369f8   ti_sdo_ipc_MessageQ_A_procIdInvalid__C
0c0369fc   ti_sdo_ipc_MessageQ_A_unregisteredTransport__C
0c036a00   ti_sdo_ipc_MessageQ_Instance_State_highList__O
0c036a04   ti_sdo_ipc_MessageQ_Instance_State_normalList__O
0c036a08   ti_sdo_ipc_MessageQ_LM_putLocal__C
0082b000   ti_sdo_ipc_MessageQ_Module_State_0_heaps__A
0082af50   ti_sdo_ipc_MessageQ_Module_State_0_transports__A
0c036a0c   ti_sdo_ipc_MessageQ_Module__diagsEnabled__C
0c036a10   ti_sdo_ipc_MessageQ_Module__diagsIncluded__C
0c036a14   ti_sdo_ipc_MessageQ_Module__diagsMask__C
0c036e3c   ti_sdo_ipc_MessageQ_Module__id__C
0c036e40   ti_sdo_ipc_MessageQ_Module__loggerDefined__C
0c036a18   ti_sdo_ipc_MessageQ_Module__loggerFxn4__C
0c036a1c   ti_sdo_ipc_MessageQ_Module__loggerObj__C
00829b54   ti_sdo_ipc_MessageQ_Module__root__V
00829b5c   ti_sdo_ipc_MessageQ_Module__state__V
0c025140   ti_sdo_ipc_MessageQ_Module_startup__E
0c025140   ti_sdo_ipc_MessageQ_Module_startup__F
0c036a20   ti_sdo_ipc_MessageQ_Object__count__C
0c031060   ti_sdo_ipc_MessageQ_Object__get__S
0c0269c0   ti_sdo_ipc_MessageQ_SetupTransportProxy_attach__E
0c031380   ti_sdo_ipc_MessageQ_SetupTransportProxy_isRegistered__E
0c02e500   ti_sdo_ipc_MessageQ_SetupTransportProxy_sharedMemReq__E
0c021ba0   ti_sdo_ipc_MessageQ_registerTransport__E
0c021ba0   ti_sdo_ipc_MessageQ_registerTransport__F
0c022bc0   ti_sdo_ipc_MessageQ_unregisterTransport__E
0c022bc0   ti_sdo_ipc_MessageQ_unregisterTransport__F
0c036a24   ti_sdo_ipc_Notify_A_alreadyRegistered__C
0c036a28   ti_sdo_ipc_Notify_A_internal__C
0c036a2c   ti_sdo_ipc_Notify_A_invArgument__C
0c036a30   ti_sdo_ipc_Notify_A_notRegistered__C
0c036a34   ti_sdo_ipc_Notify_A_reservedEvent__C
0c025fc0   ti_sdo_ipc_Notify_Instance_finalize__F
0c012180   ti_sdo_ipc_Notify_Instance_init__F
0c031080   ti_sdo_ipc_Notify_Module_GateProxy_enter__E
0c0310a0   ti_sdo_ipc_Notify_Module_GateProxy_leave__E
0c031840   ti_sdo_ipc_Notify_Module_GateProxy_query__E
0082b158   ti_sdo_ipc_Notify_Module_State_0_notifyHandles_0__A
0082b160   ti_sdo_ipc_Notify_Module_State_0_notifyHandles_1__A
0082b168   ti_sdo_ipc_Notify_Module_State_0_notifyHandles_2__A
0082b170   ti_sdo_ipc_Notify_Module_State_0_notifyHandles_3__A
0082b178   ti_sdo_ipc_Notify_Module_State_0_notifyHandles_4__A
0082b180   ti_sdo_ipc_Notify_Module_State_0_notifyHandles_5__A
0082b188   ti_sdo_ipc_Notify_Module_State_0_notifyHandles_6__A
0082b190   ti_sdo_ipc_Notify_Module_State_0_notifyHandles_7__A
0082b020   ti_sdo_ipc_Notify_Module_State_0_notifyHandles__A
0c036a38   ti_sdo_ipc_Notify_Module__diagsEnabled__C
0c036a3c   ti_sdo_ipc_Notify_Module__diagsIncluded__C
0c036a40   ti_sdo_ipc_Notify_Module__diagsMask__C
0c036a44   ti_sdo_ipc_Notify_Module__gateObj__C
0c036e44   ti_sdo_ipc_Notify_Module__id__C
00829b78   ti_sdo_ipc_Notify_Module__root__V
00829b80   ti_sdo_ipc_Notify_Module__state__V
0c021d20   ti_sdo_ipc_Notify_Module_startup__E
0c021d20   ti_sdo_ipc_Notify_Module_startup__F
0c03644c   ti_sdo_ipc_Notify_Object__DESC__C
0c03676c   ti_sdo_ipc_Notify_Object__PARAMS__C
0c0260c0   ti_sdo_ipc_Notify_Object__create__S
0c036a48   ti_sdo_ipc_Notify_Object__heap__C
0c028580   ti_sdo_ipc_Notify_SetupProxy_attach__E
0c031100   ti_sdo_ipc_Notify_SetupProxy_numIntLines__E
0c02e1a0   ti_sdo_ipc_Notify_SetupProxy_sharedMemReq__E
0c023f40   ti_sdo_ipc_Notify_exec__E
0c023f40   ti_sdo_ipc_Notify_exec__F
0c036a4c   ti_sdo_ipc_Notify_numEvents__C
0c036e48   ti_sdo_ipc_Notify_numLines__C
0c036e4c   ti_sdo_ipc_Notify_reservedEvents__C
0c036a50   ti_sdo_ipc_Notify_sendEventPollCount__C
0c036a54   ti_sdo_ipc_SharedRegion_A_addrOutOfRange__C
0c036a58   ti_sdo_ipc_SharedRegion_A_idTooLarge__C
0c036a5c   ti_sdo_ipc_SharedRegion_A_noHeap__C
0c036a60   ti_sdo_ipc_SharedRegion_A_region0Invalid__C
0c036a64   ti_sdo_ipc_SharedRegion_A_regionInvalid__C
0c036a68   ti_sdo_ipc_SharedRegion_A_reserveTooMuch__C
0c036a6c   ti_sdo_ipc_SharedRegion_INVALIDSRPTR__C
0082ab70   ti_sdo_ipc_SharedRegion_Module_State_0_regions__A
0c036a70   ti_sdo_ipc_SharedRegion_Module__diagsEnabled__C
0c036a74   ti_sdo_ipc_SharedRegion_Module__diagsIncluded__C
0c036a78   ti_sdo_ipc_SharedRegion_Module__diagsMask__C
0c036e50   ti_sdo_ipc_SharedRegion_Module__id__C
00829b88   ti_sdo_ipc_SharedRegion_Module__state__V
0c0261c0   ti_sdo_ipc_SharedRegion_attach__E
0c0261c0   ti_sdo_ipc_SharedRegion_attach__F
0c0262c0   ti_sdo_ipc_SharedRegion_clearReservedMemory__E
0c0262c0   ti_sdo_ipc_SharedRegion_clearReservedMemory__F
0c036e54   ti_sdo_ipc_SharedRegion_numEntries__C
0c036a7c   ti_sdo_ipc_SharedRegion_numOffsetBits__C
0c036a80   ti_sdo_ipc_SharedRegion_offsetMask__C
0c013480   ti_sdo_ipc_SharedRegion_reserveMemory__E
0c013480   ti_sdo_ipc_SharedRegion_reserveMemory__F
0c00bdc0   ti_sdo_ipc_SharedRegion_start__E
0c00bdc0   ti_sdo_ipc_SharedRegion_start__F
0c036e58   ti_sdo_ipc_SharedRegion_translate__C
0c036a84   ti_sdo_ipc_family_c647x_Interrupt_INTERDSPINT__C
0c036a88   ti_sdo_ipc_family_c647x_Interrupt_IPCAR0__C
0c036a8c   ti_sdo_ipc_family_c647x_Interrupt_IPCGR0__C
0c036a90   ti_sdo_ipc_family_c647x_Interrupt_KICK0__C
0c036a94   ti_sdo_ipc_family_c647x_Interrupt_KICK1__C
0082b040   ti_sdo_ipc_family_c647x_Interrupt_Module_State_0_args__A
00829b8c   ti_sdo_ipc_family_c647x_Interrupt_Module__state__V
0c0263c0   ti_sdo_ipc_family_c647x_Interrupt_Module_startup__E
0c0263c0   ti_sdo_ipc_family_c647x_Interrupt_Module_startup__F
0c036e5c   ti_sdo_ipc_family_c647x_Interrupt_enableKick__C
0c02f840   ti_sdo_ipc_family_c647x_Interrupt_intClear__E
0c0310c0   ti_sdo_ipc_family_c647x_Interrupt_intDisable__E
0c0310e0   ti_sdo_ipc_family_c647x_Interrupt_intEnable__E
0c025260   ti_sdo_ipc_family_c647x_Interrupt_intRegister__E
0c02f880   ti_sdo_ipc_family_c647x_Interrupt_intSend__E
0c0284a0   ti_sdo_ipc_family_c647x_Interrupt_intShmStub__I
0c02b0a0   ti_sdo_ipc_family_c647x_Interrupt_intUnregister__E
0c036898   ti_sdo_ipc_family_c647x_MultiProcSetup_procMap__A
0c036a98   ti_sdo_ipc_family_c647x_MultiProcSetup_procMap__C
0c028580   ti_sdo_ipc_family_c647x_NotifySetup_attach__E
0c036a9c   ti_sdo_ipc_family_c647x_NotifySetup_dspIntVectId__C
0c031100   ti_sdo_ipc_family_c647x_NotifySetup_numIntLines__E
0c02e1a0   ti_sdo_ipc_family_c647x_NotifySetup_sharedMemReq__E
0c036aa0   ti_sdo_ipc_gates_GateHWSem_A_invSemNum__C
0c02f8c0   ti_sdo_ipc_gates_GateHWSem_Handle__label__S
0c022d20   ti_sdo_ipc_gates_GateHWSem_Instance_init__F
0c035fa0   ti_sdo_ipc_gates_GateHWSem_Module__FXNS__C
0c036aa4   ti_sdo_ipc_gates_GateHWSem_Module__diagsEnabled__C
0c036aa8   ti_sdo_ipc_gates_GateHWSem_Module__diagsIncluded__C
0c036aac   ti_sdo_ipc_gates_GateHWSem_Module__diagsMask__C
0c036e60   ti_sdo_ipc_gates_GateHWSem_Module__id__C
00829b98   ti_sdo_ipc_gates_GateHWSem_Module__root__V
0c0264c0   ti_sdo_ipc_gates_GateHWSem_Module_startup__E
0c0264c0   ti_sdo_ipc_gates_GateHWSem_Module_startup__F
0c03646c   ti_sdo_ipc_gates_GateHWSem_Object__DESC__C
0c036190   ti_sdo_ipc_gates_GateHWSem_Object__PARAMS__C
0c02c3a0   ti_sdo_ipc_gates_GateHWSem_Object__create__S
0c02f900   ti_sdo_ipc_gates_GateHWSem_Object__delete__S
0c031120   ti_sdo_ipc_gates_GateHWSem_Params__init__S
0c036ab0   ti_sdo_ipc_gates_GateHWSem_baseAddr__C
0c028660   ti_sdo_ipc_gates_GateHWSem_enter__E
0c031140   ti_sdo_ipc_gates_GateHWSem_getReservedMask__E
0c02e200   ti_sdo_ipc_gates_GateHWSem_leave__E
0c036ab4   ti_sdo_ipc_gates_GateHWSem_numSems__C
0c031160   ti_sdo_ipc_gates_GateHWSem_query__E
0c031160   ti_sdo_ipc_gates_GateHWSem_query__F
0c036ab8   ti_sdo_ipc_gates_GateHWSem_reservedMaskArr__A
0c036abc   ti_sdo_ipc_gates_GateHWSem_reservedMaskArr__C
0c031180   ti_sdo_ipc_gates_GateHWSem_sharedMemReq__E
0c036ac0   ti_sdo_ipc_gates_GateMPSupportNull_A_invalidAction__C
0c02f940   ti_sdo_ipc_gates_GateMPSupportNull_Handle__label__S
0c0311a0   ti_sdo_ipc_gates_GateMPSupportNull_Instance_init__F
0c035fcc   ti_sdo_ipc_gates_GateMPSupportNull_Module__FXNS__C
0c036ac4   ti_sdo_ipc_gates_GateMPSupportNull_Module__diagsEnabled__C
0c036ac8   ti_sdo_ipc_gates_GateMPSupportNull_Module__diagsIncluded__C
0c036acc   ti_sdo_ipc_gates_GateMPSupportNull_Module__diagsMask__C
0c036e64   ti_sdo_ipc_gates_GateMPSupportNull_Module__id__C
00829ba0   ti_sdo_ipc_gates_GateMPSupportNull_Module__root__V
0c03648c   ti_sdo_ipc_gates_GateMPSupportNull_Object__DESC__C
0c0361b4   ti_sdo_ipc_gates_GateMPSupportNull_Object__PARAMS__C
0c02c420   ti_sdo_ipc_gates_GateMPSupportNull_Object__create__S
0c02f980   ti_sdo_ipc_gates_GateMPSupportNull_Object__delete__S
0c0311c0   ti_sdo_ipc_gates_GateMPSupportNull_Params__init__S
0c036ad0   ti_sdo_ipc_gates_GateMPSupportNull_action__C
0c0265c0   ti_sdo_ipc_gates_GateMPSupportNull_enter__E
0c0311e0   ti_sdo_ipc_gates_GateMPSupportNull_getReservedMask__E
0c0266c0   ti_sdo_ipc_gates_GateMPSupportNull_leave__E
0c031200   ti_sdo_ipc_gates_GateMPSupportNull_query__E
0c031200   ti_sdo_ipc_gates_GateMPSupportNull_query__F
0c031220   ti_sdo_ipc_gates_GateMPSupportNull_sharedMemReq__E
0c036ad4   ti_sdo_ipc_gates_GatePeterson_E_gateRemotelyOpened__C
0c02f9c0   ti_sdo_ipc_gates_GatePeterson_Handle__label__S
0c02e260   ti_sdo_ipc_gates_GatePeterson_Instance_finalize__F
0c00e8a0   ti_sdo_ipc_gates_GatePeterson_Instance_init__F
0c035ff8   ti_sdo_ipc_gates_GatePeterson_Module__FXNS__C
0c036ad8   ti_sdo_ipc_gates_GatePeterson_Module__diagsEnabled__C
0c036adc   ti_sdo_ipc_gates_GatePeterson_Module__diagsIncluded__C
0c036ae0   ti_sdo_ipc_gates_GatePeterson_Module__diagsMask__C
0c036e68   ti_sdo_ipc_gates_GatePeterson_Module__id__C
00829ba8   ti_sdo_ipc_gates_GatePeterson_Module__root__V
0c0364ac   ti_sdo_ipc_gates_GatePeterson_Object__DESC__C
0c0361d8   ti_sdo_ipc_gates_GatePeterson_Object__PARAMS__C
0c0267c0   ti_sdo_ipc_gates_GatePeterson_Object__create__S
0c02e2c0   ti_sdo_ipc_gates_GatePeterson_Object__delete__S
0c031240   ti_sdo_ipc_gates_GatePeterson_Params__init__S
0c021ea0   ti_sdo_ipc_gates_GatePeterson_enter__E
0c031260   ti_sdo_ipc_gates_GatePeterson_getReservedMask__E
0c02b140   ti_sdo_ipc_gates_GatePeterson_leave__E
0c036ae4   ti_sdo_ipc_gates_GatePeterson_numInstances__C
0c031280   ti_sdo_ipc_gates_GatePeterson_query__E
0c031280   ti_sdo_ipc_gates_GatePeterson_query__F
0c02e320   ti_sdo_ipc_gates_GatePeterson_sharedMemReq__E
0c036ae8   ti_sdo_ipc_heaps_HeapMemMP_A_align__C
0c036aec   ti_sdo_ipc_heaps_HeapMemMP_A_heapSize__C
0c036af0   ti_sdo_ipc_heaps_HeapMemMP_A_invalidFree__C
0c036af4   ti_sdo_ipc_heaps_HeapMemMP_A_zeroBlock__C
0c036af8   ti_sdo_ipc_heaps_HeapMemMP_E_memory__C
0c02fa00   ti_sdo_ipc_heaps_HeapMemMP_Handle__label__S
0c01a660   ti_sdo_ipc_heaps_HeapMemMP_Instance_finalize__F
0c006be0   ti_sdo_ipc_heaps_HeapMemMP_Instance_init__F
0c03604c   ti_sdo_ipc_heaps_HeapMemMP_Module__FXNS__C
0c036afc   ti_sdo_ipc_heaps_HeapMemMP_Module__diagsEnabled__C
0c036b00   ti_sdo_ipc_heaps_HeapMemMP_Module__diagsIncluded__C
0c036b04   ti_sdo_ipc_heaps_HeapMemMP_Module__diagsMask__C
0c036e6c   ti_sdo_ipc_heaps_HeapMemMP_Module__id__C
00829bb0   ti_sdo_ipc_heaps_HeapMemMP_Module__root__V
00829bb8   ti_sdo_ipc_heaps_HeapMemMP_Module__state__V
0c0364cc   ti_sdo_ipc_heaps_HeapMemMP_Object__DESC__C
0c035eb4   ti_sdo_ipc_heaps_HeapMemMP_Object__PARAMS__C
0c028740   ti_sdo_ipc_heaps_HeapMemMP_Object__create__S
0c02e380   ti_sdo_ipc_heaps_HeapMemMP_Object__delete__S
0c0312a0   ti_sdo_ipc_heaps_HeapMemMP_Params__init__S
0c0011c0   ti_sdo_ipc_heaps_HeapMemMP_alloc__E
0c001c20   ti_sdo_ipc_heaps_HeapMemMP_free__E
0c0114e0   ti_sdo_ipc_heaps_HeapMemMP_getStats__E
0c0312c0   ti_sdo_ipc_heaps_HeapMemMP_isBlocking__E
0c0312c0   ti_sdo_ipc_heaps_HeapMemMP_isBlocking__F
0c011920   ti_sdo_ipc_heaps_HeapMemMP_postInit__I
0c036b08   ti_sdo_ipc_interfaces_IGateMPSupport_Interface__BASE__C
0c036b0c   ti_sdo_ipc_interfaces_IMessageQTransport_Interface__BASE__C
0c036b10   ti_sdo_ipc_interfaces_INotifyDriver_Interface__BASE__C
0c02fa40   ti_sdo_ipc_notifyDrivers_NotifyDriverShm_Handle__label__S
0c02b1e0   ti_sdo_ipc_notifyDrivers_NotifyDriverShm_Instance_finalize__F
0c00dee0   ti_sdo_ipc_notifyDrivers_NotifyDriverShm_Instance_init__F
0c02f840   ti_sdo_ipc_notifyDrivers_NotifyDriverShm_InterruptProxy_intClear__E
0c0310c0   ti_sdo_ipc_notifyDrivers_NotifyDriverShm_InterruptProxy_intDisable__E
0c0310e0   ti_sdo_ipc_notifyDrivers_NotifyDriverShm_InterruptProxy_intEnable__E
0c025260   ti_sdo_ipc_notifyDrivers_NotifyDriverShm_InterruptProxy_intRegister__E
0c02f880   ti_sdo_ipc_notifyDrivers_NotifyDriverShm_InterruptProxy_intSend__E
0c02b0a0   ti_sdo_ipc_notifyDrivers_NotifyDriverShm_InterruptProxy_intUnregister__E
0c035e14   ti_sdo_ipc_notifyDrivers_NotifyDriverShm_Module__FXNS__C
0c036b14   ti_sdo_ipc_notifyDrivers_NotifyDriverShm_Module__diagsEnabled__C
0c036b18   ti_sdo_ipc_notifyDrivers_NotifyDriverShm_Module__diagsIncluded__C
0c036b1c   ti_sdo_ipc_notifyDrivers_NotifyDriverShm_Module__diagsMask__C
0c036e70   ti_sdo_ipc_notifyDrivers_NotifyDriverShm_Module__id__C
00829bbc   ti_sdo_ipc_notifyDrivers_NotifyDriverShm_Module__root__V
0c0364ec   ti_sdo_ipc_notifyDrivers_NotifyDriverShm_Object__DESC__C
0c035e80   ti_sdo_ipc_notifyDrivers_NotifyDriverShm_Object__PARAMS__C
0c028820   ti_sdo_ipc_notifyDrivers_NotifyDriverShm_Object__create__S
0c02e3e0   ti_sdo_ipc_notifyDrivers_NotifyDriverShm_Object__delete__S
0c036b20   ti_sdo_ipc_notifyDrivers_NotifyDriverShm_Object__heap__C
0c0312e0   ti_sdo_ipc_notifyDrivers_NotifyDriverShm_Params__init__S
0c01a8c0   ti_sdo_ipc_notifyDrivers_NotifyDriverShm_disableEvent__E
0c02fa80   ti_sdo_ipc_notifyDrivers_NotifyDriverShm_disable__E
0c020900   ti_sdo_ipc_notifyDrivers_NotifyDriverShm_enableEvent__E
0c02fac0   ti_sdo_ipc_notifyDrivers_NotifyDriverShm_enable__E
0c0173c0   ti_sdo_ipc_notifyDrivers_NotifyDriverShm_isr__I
0c01f860   ti_sdo_ipc_notifyDrivers_NotifyDriverShm_registerEvent__E
0c01e060   ti_sdo_ipc_notifyDrivers_NotifyDriverShm_sendEvent__E
0c02e440   ti_sdo_ipc_notifyDrivers_NotifyDriverShm_setNotifyHandle__E
0c0192e0   ti_sdo_ipc_notifyDrivers_NotifyDriverShm_sharedMemReq__E
0c0192e0   ti_sdo_ipc_notifyDrivers_NotifyDriverShm_sharedMemReq__F
0c020aa0   ti_sdo_ipc_notifyDrivers_NotifyDriverShm_unregisterEvent__E
0c036b24   ti_sdo_ipc_nsremote_NameServerRemoteNotify_A_invalidValueLen__C
0c02fb00   ti_sdo_ipc_nsremote_NameServerRemoteNotify_Handle__label__S
0c036b28   ti_sdo_ipc_nsremote_NameServerRemoteNotify_Instance_State_semMultiBlock__O
0c036b2c   ti_sdo_ipc_nsremote_NameServerRemoteNotify_Instance_State_semRemoteWait__O
0c036b30   ti_sdo_ipc_nsremote_NameServerRemoteNotify_Instance_State_swiObj__O
0c025380   ti_sdo_ipc_nsremote_NameServerRemoteNotify_Instance_finalize__F
0c007ae0   ti_sdo_ipc_nsremote_NameServerRemoteNotify_Instance_init__F
0c036074   ti_sdo_ipc_nsremote_NameServerRemoteNotify_Module__FXNS__C
0c036b34   ti_sdo_ipc_nsremote_NameServerRemoteNotify_Module__diagsEnabled__C
0c036b38   ti_sdo_ipc_nsremote_NameServerRemoteNotify_Module__diagsIncluded__C
0c036b3c   ti_sdo_ipc_nsremote_NameServerRemoteNotify_Module__diagsMask__C
0c036e74   ti_sdo_ipc_nsremote_NameServerRemoteNotify_Module__id__C
00829bc4   ti_sdo_ipc_nsremote_NameServerRemoteNotify_Module__root__V
0c03650c   ti_sdo_ipc_nsremote_NameServerRemoteNotify_Object__DESC__C
0c03652c   ti_sdo_ipc_nsremote_NameServerRemoteNotify_Object__PARAMS__C
0c0268c0   ti_sdo_ipc_nsremote_NameServerRemoteNotify_Object__create__S
0c02e4a0   ti_sdo_ipc_nsremote_NameServerRemoteNotify_Object__delete__S
0c031300   ti_sdo_ipc_nsremote_NameServerRemoteNotify_Object__first__S
0c031320   ti_sdo_ipc_nsremote_NameServerRemoteNotify_Object__next__S
0c031340   ti_sdo_ipc_nsremote_NameServerRemoteNotify_Params__init__S
0c020c40   ti_sdo_ipc_nsremote_NameServerRemoteNotify_attach__E
0c031360   ti_sdo_ipc_nsremote_NameServerRemoteNotify_cbFxn__I
0c02c4a0   ti_sdo_ipc_nsremote_NameServerRemoteNotify_detach__E
0c00c940   ti_sdo_ipc_nsremote_NameServerRemoteNotify_get__E
0c00c940   ti_sdo_ipc_nsremote_NameServerRemoteNotify_get__F
0c036b40   ti_sdo_ipc_nsremote_NameServerRemoteNotify_notifyEventId__C
0c02fb40   ti_sdo_ipc_nsremote_NameServerRemoteNotify_sharedMemReq__E
0c00ed40   ti_sdo_ipc_nsremote_NameServerRemoteNotify_swiFxn__I
0c036b44   ti_sdo_ipc_nsremote_NameServerRemoteNotify_timeout__C
0082b060   ti_sdo_ipc_transports_TransportShmSetup_Module_State_0_handles__A
00829bd4   ti_sdo_ipc_transports_TransportShmSetup_Module__state__V
0c0269c0   ti_sdo_ipc_transports_TransportShmSetup_attach__E
0c031380   ti_sdo_ipc_transports_TransportShmSetup_isRegistered__E
0c036b48   ti_sdo_ipc_transports_TransportShmSetup_priority__C
0c02e500   ti_sdo_ipc_transports_TransportShmSetup_sharedMemReq__E
0c02fb80   ti_sdo_ipc_transports_TransportShm_Handle__label__S
0c036b4c   ti_sdo_ipc_transports_TransportShm_Instance_State_swiObj__O
0c01e260   ti_sdo_ipc_transports_TransportShm_Instance_finalize__F
0c003960   ti_sdo_ipc_transports_TransportShm_Instance_init__F
0c03609c   ti_sdo_ipc_transports_TransportShm_Module__FXNS__C
0c036b50   ti_sdo_ipc_transports_TransportShm_Module__diagsEnabled__C
0c036b54   ti_sdo_ipc_transports_TransportShm_Module__diagsIncluded__C
0c036b58   ti_sdo_ipc_transports_TransportShm_Module__diagsMask__C
0c036e78   ti_sdo_ipc_transports_TransportShm_Module__id__C
00829bcc   ti_sdo_ipc_transports_TransportShm_Module__root__V
0c03654c   ti_sdo_ipc_transports_TransportShm_Object__DESC__C
0c0360c4   ti_sdo_ipc_transports_TransportShm_Object__PARAMS__C
0c026ac0   ti_sdo_ipc_transports_TransportShm_Object__create__S
0c02e560   ti_sdo_ipc_transports_TransportShm_Object__delete__S
0c0313a0   ti_sdo_ipc_transports_TransportShm_Params__init__S
0c0313c0   ti_sdo_ipc_transports_TransportShm_control__E
0c0313e0   ti_sdo_ipc_transports_TransportShm_getStatus__E
0c036e7c   ti_sdo_ipc_transports_TransportShm_notifyEventId__C
0c031400   ti_sdo_ipc_transports_TransportShm_notifyFxn__I
0c0159c0   ti_sdo_ipc_transports_TransportShm_openByAddr__E
0c0159c0   ti_sdo_ipc_transports_TransportShm_openByAddr__F
0c00cec0   ti_sdo_ipc_transports_TransportShm_put__E
0c031420   ti_sdo_ipc_transports_TransportShm_setErrFxn__E
0c031420   ti_sdo_ipc_transports_TransportShm_setErrFxn__F
0c022e80   ti_sdo_ipc_transports_TransportShm_sharedMemReq__E
0c022e80   ti_sdo_ipc_transports_TransportShm_sharedMemReq__F
0c02c520   ti_sdo_ipc_transports_TransportShm_swiFxn__I
0c036b5c   ti_sdo_utils_INameServerRemote_Interface__BASE__C
0c031440   ti_sdo_utils_List_Instance_init__F
00829bd8   ti_sdo_utils_List_Module__root__V
0c03656c   ti_sdo_utils_List_Object__DESC__C
0c036784   ti_sdo_utils_List_Object__PARAMS__C
0c02c5a0   ti_sdo_utils_List_Object__create__S
0c031460   ti_sdo_utils_List_Object__destruct__S
0c031480   ti_sdo_utils_List_Object__get__S
0c036b60   ti_sdo_utils_MultiProc_A_invalidMultiProcId__C
0c036b64   ti_sdo_utils_MultiProc_Module__diagsEnabled__C
0c036b68   ti_sdo_utils_MultiProc_Module__diagsIncluded__C
0c036b6c   ti_sdo_utils_MultiProc_Module__diagsMask__C
0c036e80   ti_sdo_utils_MultiProc_Module__id__C
00829be0   ti_sdo_utils_MultiProc_Module__state__V
0c0314a0   ti_sdo_utils_MultiProc_getClusterId__E
0c0314a0   ti_sdo_utils_MultiProc_getClusterId__F
0c036e84   ti_sdo_utils_MultiProc_numProcessors__C
0c036e88   ti_sdo_utils_MultiProc_numProcsInCluster__C
00829bf4   ti_sdo_utils_NameServerRemoteNull_Module__root__V
0c036b70   ti_sdo_utils_NameServer_A_invArgument__C
0c036b74   ti_sdo_utils_NameServer_A_invalidLen__C
0c036b78   ti_sdo_utils_NameServer_E_entryExists__C
0c036b7c   ti_sdo_utils_NameServer_E_maxReached__C
0c036b80   ti_sdo_utils_NameServer_Instance_State_freeList__O
0c036b84   ti_sdo_utils_NameServer_Instance_State_nameList__O
00800000   ti_sdo_utils_NameServer_Module_State_0_nsRemoteHandle__A
0c036b88   ti_sdo_utils_NameServer_Module__diagsEnabled__C
0c036b8c   ti_sdo_utils_NameServer_Module__diagsIncluded__C
0c036b90   ti_sdo_utils_NameServer_Module__diagsMask__C
0c036e8c   ti_sdo_utils_NameServer_Module__id__C
00829be4   ti_sdo_utils_NameServer_Module__root__V
0c02fbc0   ti_sdo_utils_NameServer_Module__startupDone__F
0c02fbc0   ti_sdo_utils_NameServer_Module__startupDone__S
00829bec   ti_sdo_utils_NameServer_Module__state__V
0c022020   ti_sdo_utils_NameServer_Module_startup__E
0c022020   ti_sdo_utils_NameServer_Module_startup__F
0c036b94   ti_sdo_utils_NameServer_Object__count__C
0c0314c0   ti_sdo_utils_NameServer_Object__first__S
0c02fc00   ti_sdo_utils_NameServer_Object__get__S
0c0314e0   ti_sdo_utils_NameServer_Object__next__S
0082a8c0   ti_sdo_utils_NameServer_Object__table__V
0c020c40   ti_sdo_utils_NameServer_SetupProxy_attach__E
0c02c4a0   ti_sdo_utils_NameServer_SetupProxy_detach__E
0c02fb40   ti_sdo_utils_NameServer_SetupProxy_sharedMemReq__E
0c022fe0   ti_sdo_utils_NameServer_isRegistered__E
0c023140   ti_sdo_utils_NameServer_registerRemoteDriver__E
0c0232a0   ti_sdo_utils_NameServer_unregisterRemoteDriver__E
0c036b98   ti_sysbios_BIOS_Module__diagsEnabled__C
0c036b9c   ti_sysbios_BIOS_Module__diagsIncluded__C
0c036ba0   ti_sysbios_BIOS_Module__diagsMask__C
0c036e90   ti_sysbios_BIOS_Module__id__C
00829bfc   ti_sysbios_BIOS_Module__state__V
0c031500   ti_sysbios_BIOS_RtsGateProxy_enter__E
0c031520   ti_sysbios_BIOS_RtsGateProxy_leave__E
0c031800   ti_sysbios_BIOS_RtsGateProxy_query__E
0c029ca0   ti_sysbios_BIOS_errorRaiseHook__I
0c02c620   ti_sysbios_BIOS_exitFunc__I
0c02c6a0   ti_sysbios_BIOS_exit__E
0c031540   ti_sysbios_BIOS_getThreadType__E
0c036ba4   ti_sysbios_BIOS_installedErrorHook__C
0c02e5c0   ti_sysbios_BIOS_registerRTSLock__I
0c031560   ti_sysbios_BIOS_setThreadType__E
0c02fc40   ti_sysbios_BIOS_startFunc__I
0c02fc80   ti_sysbios_BIOS_start__E
0c031580   ti_sysbios_family_c62_TaskSupport_Module__startupDone__S
0c02f280   ti_sysbios_family_c62_TaskSupport_buildTaskStack
0c0315a0   ti_sysbios_family_c62_TaskSupport_getStackAlignment__E
0c030b00   ti_sysbios_family_c62_TaskSupport_glue
0c036ba8   ti_sysbios_family_c62_TaskSupport_stackAlignment__C
0c02c720   ti_sysbios_family_c62_TaskSupport_start__E
0c02baa0   ti_sysbios_family_c62_TaskSupport_swap__E
0c0368a8   ti_sysbios_family_c64p_EventCombiner_EVTMASK__C
0c036bac   ti_sysbios_family_c64p_EventCombiner_E_unpluggedEvent__C
0c036e94   ti_sysbios_family_c64p_EventCombiner_Module__id__C
00829c1c   ti_sysbios_family_c64p_EventCombiner_Module__state__V
0c02e620   ti_sysbios_family_c64p_EventCombiner_Module_startup__E
0c02e620   ti_sysbios_family_c64p_EventCombiner_Module_startup__F
0c02e680   ti_sysbios_family_c64p_EventCombiner_unused__E
0c02e680   ti_sysbios_family_c64p_EventCombiner_unused__F
0c036bb0   ti_sysbios_family_c64p_Exception_E_exceptionMin__C
0c036e98   ti_sysbios_family_c64p_Exception_Module__id__C
0082a01c   ti_sysbios_family_c64p_Exception_Module__state__V
0c02c7a0   ti_sysbios_family_c64p_Exception_Module_startup__E
0c02c7a0   ti_sysbios_family_c64p_Exception_Module_startup__F
0c0218a0   ti_sysbios_family_c64p_Exception_dispatch__E
0c036bb4   ti_sysbios_family_c64p_Exception_exceptionHook__C
0c036bb8   ti_sysbios_family_c64p_Exception_externalHook__C
0c007360   ti_sysbios_family_c64p_Exception_handler__I
0c01b8c0   ti_sysbios_family_c64p_Exception_internalHandler__I
0c036bbc   ti_sysbios_family_c64p_Exception_internalHook__C
0c036bc0   ti_sysbios_family_c64p_Exception_nmiHook__C
0c037000   ti_sysbios_family_c64p_Hwi0
0c036bc4   ti_sysbios_family_c64p_Hwi_E_alreadyDefined__C
0c036bc8   ti_sysbios_family_c64p_Hwi_E_handleNotFound__C
0c028900   ti_sysbios_family_c64p_Hwi_Instance_finalize__F
0c0289e0   ti_sysbios_family_c64p_Hwi_Instance_init__F
0c036bcc   ti_sysbios_family_c64p_Hwi_LD_end__C
0c036bd0   ti_sysbios_family_c64p_Hwi_LM_begin__C
0c036bd4   ti_sysbios_family_c64p_Hwi_Module__diagsEnabled__C
0c036bd8   ti_sysbios_family_c64p_Hwi_Module__diagsIncluded__C
0c036bdc   ti_sysbios_family_c64p_Hwi_Module__diagsMask__C
0c036e9c   ti_sysbios_family_c64p_Hwi_Module__id__C
0c036ea0   ti_sysbios_family_c64p_Hwi_Module__loggerDefined__C
0c036be0   ti_sysbios_family_c64p_Hwi_Module__loggerFxn1__C
0c036be4   ti_sysbios_family_c64p_Hwi_Module__loggerFxn8__C
0c036be8   ti_sysbios_family_c64p_Hwi_Module__loggerObj__C
0082a048   ti_sysbios_family_c64p_Hwi_Module__root__V
0c02fcc0   ti_sysbios_family_c64p_Hwi_Module__startupDone__F
0c02fcc0   ti_sysbios_family_c64p_Hwi_Module__startupDone__S
0082a050   ti_sysbios_family_c64p_Hwi_Module__state__V
0c024080   ti_sysbios_family_c64p_Hwi_Module_startup__E
0c024080   ti_sysbios_family_c64p_Hwi_Module_startup__F
0c03658c   ti_sysbios_family_c64p_Hwi_Object__DESC__C
0c035ee4   ti_sysbios_family_c64p_Hwi_Object__PARAMS__C
0c026bc0   ti_sysbios_family_c64p_Hwi_Object__create__S
0c02e6e0   ti_sysbios_family_c64p_Hwi_Object__delete__S
0082b0a0   ti_sysbios_family_c64p_Hwi_Object__table__V
0c0315c0   ti_sysbios_family_c64p_Hwi_Params__init__S
0c0315e0   ti_sysbios_family_c64p_Hwi_clearInterrupt__E
0c02fd00   ti_sysbios_family_c64p_Hwi_disableInterrupt__E
0c01da60   ti_sysbios_family_c64p_Hwi_dispatchAlways
0c015cc0   ti_sysbios_family_c64p_Hwi_dispatchC__I
0c02fd40   ti_sysbios_family_c64p_Hwi_enableInterrupt__E
0c02c820   ti_sysbios_family_c64p_Hwi_eventMap__E
0c031600   ti_sysbios_family_c64p_Hwi_getHandle__E
0c037000   ti_sysbios_family_c64p_Hwi_int0
0c037020   ti_sysbios_family_c64p_Hwi_int1
0c037140   ti_sysbios_family_c64p_Hwi_int10
0c037160   ti_sysbios_family_c64p_Hwi_int11
0c037180   ti_sysbios_family_c64p_Hwi_int12
0c0371a0   ti_sysbios_family_c64p_Hwi_int13
0c0371c0   ti_sysbios_family_c64p_Hwi_int14
0c0371e0   ti_sysbios_family_c64p_Hwi_int15
0c037040   ti_sysbios_family_c64p_Hwi_int2
0c037060   ti_sysbios_family_c64p_Hwi_int3
0c037080   ti_sysbios_family_c64p_Hwi_int4
0c0370a0   ti_sysbios_family_c64p_Hwi_int5
0c0370c0   ti_sysbios_family_c64p_Hwi_int6
0c0370e0   ti_sysbios_family_c64p_Hwi_int7
0c037100   ti_sysbios_family_c64p_Hwi_int8
0c037120   ti_sysbios_family_c64p_Hwi_int9
0c02aa60   ti_sysbios_family_c64p_Hwi_plug__E
0c01c7e0   ti_sysbios_family_c64p_Hwi_reconfig__E
0c031620   ti_sysbios_family_c64p_Hwi_startup__E
0c031640   ti_sysbios_family_c64p_Hwi_switchFromBootStack__E
0c031660   ti_sysbios_family_c64p_Hwi_unPluggedInterrupt__I
0c031680   ti_sysbios_family_c64p_TimestampProvider_Module_startup__E
0c031680   ti_sysbios_family_c64p_TimestampProvider_Module_startup__F
0c0316a0   ti_sysbios_family_c64p_TimestampProvider_get32__E
0c0316c0   ti_sysbios_family_c64p_tci6488_TimerSupport_enable__E
0c0241c0   ti_sysbios_family_c66_Cache_Module_startup__E
0c0241c0   ti_sysbios_family_c66_Cache_Module_startup__F
0c036bec   ti_sysbios_family_c66_Cache_atomicBlockSize__C
0c036874   ti_sysbios_family_c66_Cache_initSize__C
0c02c8a0   ti_sysbios_family_c66_Cache_invL1pAll__E
0c0316e0   ti_sysbios_family_c66_Cache_inv__E
0c034dd0   ti_sysbios_family_c66_Cache_marvalues__C
0c02c920   ti_sysbios_family_c66_Cache_wbInvAll__E
0c031700   ti_sysbios_family_c66_Cache_wbInv__E
0c036bf0   ti_sysbios_family_c66_tci66xx_CpIntc_E_unpluggedSysInt__C
0082b100   ti_sysbios_family_c66_tci66xx_CpIntc_Module_State_0_controller__A
0082a240   ti_sysbios_family_c66_tci66xx_CpIntc_Module_State_0_dispatchTab__A
0082af00   ti_sysbios_family_c66_tci66xx_CpIntc_Module_State_0_hostIntToSysInt__A
0082b0e8   ti_sysbios_family_c66_tci66xx_CpIntc_Module_State_0_initSIER__A
0c036ea4   ti_sysbios_family_c66_tci66xx_CpIntc_Module__id__C
0082a0b8   ti_sysbios_family_c66_tci66xx_CpIntc_Module__state__V
0c018120   ti_sysbios_family_c66_tci66xx_CpIntc_Module_startup__E
0c018120   ti_sysbios_family_c66_tci66xx_CpIntc_Module_startup__F
0c036bf4   ti_sysbios_family_c66_tci66xx_CpIntc_numStatusRegs__C
0c036bf8   ti_sysbios_family_c66_tci66xx_CpIntc_numSysInts__C
0c035b30   ti_sysbios_family_c66_tci66xx_CpIntc_sysIntToHostInt__A
0c036bfc   ti_sysbios_family_c66_tci66xx_CpIntc_sysIntToHostInt__C
0c02e740   ti_sysbios_family_c66_tci66xx_CpIntc_unused__E
0c02e740   ti_sysbios_family_c66_tci66xx_CpIntc_unused__F
0c02f2c0   ti_sysbios_family_xxx_Hwi_switchToIsrStack
0c030b20   ti_sysbios_family_xxx_Hwi_switchToTaskStack
0c02fd80   ti_sysbios_gates_GateAll_Handle__label__S
0c031720   ti_sysbios_gates_GateAll_Instance_init__F
0c0361fc   ti_sysbios_gates_GateAll_Module__FXNS__C
0082a0c8   ti_sysbios_gates_GateAll_Module__root__V
0c0365ac   ti_sysbios_gates_GateAll_Object__DESC__C
0c03679c   ti_sysbios_gates_GateAll_Object__PARAMS__C
0c02c9a0   ti_sysbios_gates_GateAll_Object__create__S
0c02fdc0   ti_sysbios_gates_GateAll_Object__delete__S
0082b110   ti_sysbios_gates_GateAll_Object__table__V
0c02e7a0   ti_sysbios_gates_GateAll_enter__E
0c029d60   ti_sysbios_gates_GateAll_leave__E
0c031740   ti_sysbios_gates_GateAll_query__E
0c031740   ti_sysbios_gates_GateAll_query__F
0c02fe00   ti_sysbios_gates_GateHwi_Handle__label__S
0c031760   ti_sysbios_gates_GateHwi_Instance_init__F
0c036220   ti_sysbios_gates_GateHwi_Module__FXNS__C
0082a0d0   ti_sysbios_gates_GateHwi_Module__root__V
0c0365cc   ti_sysbios_gates_GateHwi_Object__DESC__C
0c0367b4   ti_sysbios_gates_GateHwi_Object__PARAMS__C
0c02ca20   ti_sysbios_gates_GateHwi_Object__create__S
0c02fe40   ti_sysbios_gates_GateHwi_Object__delete__S
0082b198   ti_sysbios_gates_GateHwi_Object__table__V
0c031780   ti_sysbios_gates_GateHwi_enter__E
0c0317a0   ti_sysbios_gates_GateHwi_leave__E
0c0317c0   ti_sysbios_gates_GateHwi_query__E
0c0317c0   ti_sysbios_gates_GateHwi_query__F
0c036c00   ti_sysbios_gates_GateMutexPri_A_badContext__C
0c02fe80   ti_sysbios_gates_GateMutexPri_Handle__label__S
0c036c04   ti_sysbios_gates_GateMutexPri_Instance_State_pendQ__O
0c02fec0   ti_sysbios_gates_GateMutexPri_Instance_finalize__F
0c02ff00   ti_sysbios_gates_GateMutexPri_Instance_init__F
0c036244   ti_sysbios_gates_GateMutexPri_Module__FXNS__C
0c036c08   ti_sysbios_gates_GateMutexPri_Module__diagsEnabled__C
0c036c0c   ti_sysbios_gates_GateMutexPri_Module__diagsIncluded__C
0c036c10   ti_sysbios_gates_GateMutexPri_Module__diagsMask__C
0c036ea8   ti_sysbios_gates_GateMutexPri_Module__id__C
0082a0e0   ti_sysbios_gates_GateMutexPri_Module__root__V
0c0365ec   ti_sysbios_gates_GateMutexPri_Object__DESC__C
0c0367cc   ti_sysbios_gates_GateMutexPri_Object__PARAMS__C
0c02caa0   ti_sysbios_gates_GateMutexPri_Object__create__S
0c02e800   ti_sysbios_gates_GateMutexPri_Object__delete__S
0c02ff40   ti_sysbios_gates_GateMutexPri_Object__destruct__S
0082b0b8   ti_sysbios_gates_GateMutexPri_Object__table__V
0c016b40   ti_sysbios_gates_GateMutexPri_enter__E
0c026cc0   ti_sysbios_gates_GateMutexPri_leave__E
0c0317e0   ti_sysbios_gates_GateMutexPri_query__E
0c0317e0   ti_sysbios_gates_GateMutexPri_query__F
0c036c14   ti_sysbios_gates_GateMutex_A_badContext__C
0c02ff80   ti_sysbios_gates_GateMutex_Handle__label__S
0c036c18   ti_sysbios_gates_GateMutex_Instance_State_sem__O
0c02ffc0   ti_sysbios_gates_GateMutex_Instance_finalize__F
0c02e860   ti_sysbios_gates_GateMutex_Instance_init__F
0c036268   ti_sysbios_gates_GateMutex_Module__FXNS__C
0c036c1c   ti_sysbios_gates_GateMutex_Module__diagsEnabled__C
0c036c20   ti_sysbios_gates_GateMutex_Module__diagsIncluded__C
0c036c24   ti_sysbios_gates_GateMutex_Module__diagsMask__C
0c036eac   ti_sysbios_gates_GateMutex_Module__id__C
0082a0d8   ti_sysbios_gates_GateMutex_Module__root__V
0c03660c   ti_sysbios_gates_GateMutex_Object__DESC__C
0c0367e4   ti_sysbios_gates_GateMutex_Object__PARAMS__C
0c02cb20   ti_sysbios_gates_GateMutex_Object__create__S
0c02e8c0   ti_sysbios_gates_GateMutex_Object__delete__S
0082af90   ti_sysbios_gates_GateMutex_Object__table__V
0c020de0   ti_sysbios_gates_GateMutex_enter__E
0c030000   ti_sysbios_gates_GateMutex_leave__E
0c031800   ti_sysbios_gates_GateMutex_query__E
0c031800   ti_sysbios_gates_GateMutex_query__F
0c036c28   ti_sysbios_gates_GateSwi_A_badContext__C
0c030040   ti_sysbios_gates_GateSwi_Handle__label__S
0c031820   ti_sysbios_gates_GateSwi_Instance_init__F
0c03628c   ti_sysbios_gates_GateSwi_Module__FXNS__C
0c036c2c   ti_sysbios_gates_GateSwi_Module__diagsEnabled__C
0c036c30   ti_sysbios_gates_GateSwi_Module__diagsIncluded__C
0c036c34   ti_sysbios_gates_GateSwi_Module__diagsMask__C
0c036eb0   ti_sysbios_gates_GateSwi_Module__id__C
0082a0e8   ti_sysbios_gates_GateSwi_Module__root__V
0c03662c   ti_sysbios_gates_GateSwi_Object__DESC__C
0c0367fc   ti_sysbios_gates_GateSwi_Object__PARAMS__C
0c02cba0   ti_sysbios_gates_GateSwi_Object__create__S
0c030080   ti_sysbios_gates_GateSwi_Object__delete__S
0082b130   ti_sysbios_gates_GateSwi_Object__table__V
0c024300   ti_sysbios_gates_GateSwi_enter__E
0c02cc20   ti_sysbios_gates_GateSwi_leave__E
0c031840   ti_sysbios_gates_GateSwi_query__E
0c031840   ti_sysbios_gates_GateSwi_query__F
0c0316e0   ti_sysbios_hal_Cache_CacheProxy_inv__E
0c02c920   ti_sysbios_hal_Cache_CacheProxy_wbInvAll__E
0c031700   ti_sysbios_hal_Cache_CacheProxy_wbInv__E
0c0316e0   ti_sysbios_hal_Cache_inv__E
0c02c920   ti_sysbios_hal_Cache_wbInvAll__E
0c031700   ti_sysbios_hal_Cache_wbInv__E
0c036c38   ti_sysbios_hal_Hwi_E_stackOverflow__C
0c031860   ti_sysbios_hal_Hwi_HwiProxy_Module__startupDone__S
0c0315e0   ti_sysbios_hal_Hwi_HwiProxy_clearInterrupt__E
0c02fd00   ti_sysbios_hal_Hwi_HwiProxy_disableInterrupt__E
0c02fd40   ti_sysbios_hal_Hwi_HwiProxy_enableInterrupt__E
0c031620   ti_sysbios_hal_Hwi_HwiProxy_startup__E
0c031640   ti_sysbios_hal_Hwi_HwiProxy_switchFromBootStack__E
0c036eb4   ti_sysbios_hal_Hwi_Module__id__C
0082a0f0   ti_sysbios_hal_Hwi_Module__root__V
0c031880   ti_sysbios_hal_Hwi_Module_startup__E
0c031880   ti_sysbios_hal_Hwi_Module_startup__F
0082b140   ti_sysbios_hal_Hwi_Object__table__V
0c02cca0   ti_sysbios_hal_Hwi_checkStack
0c0315e0   ti_sysbios_hal_Hwi_clearInterrupt__E
0c02fd00   ti_sysbios_hal_Hwi_disableInterrupt__E
0c02fd40   ti_sysbios_hal_Hwi_enableInterrupt__E
0c02e920   ti_sysbios_hal_Hwi_initStack
0c031620   ti_sysbios_hal_Hwi_startup__E
0c031640   ti_sysbios_hal_Hwi_switchFromBootStack__E
0082a0f8   ti_sysbios_hal_Timer_Module__root__V
0c0300c0   ti_sysbios_hal_Timer_Module__startupDone__F
0c0300c0   ti_sysbios_hal_Timer_Module__startupDone__S
0c0318a0   ti_sysbios_hal_Timer_Module_startup__E
0c0318a0   ti_sysbios_hal_Timer_Module_startup__F
0082b148   ti_sysbios_hal_Timer_Object__table__V
0c0318c0   ti_sysbios_hal_Timer_TimerProxy_Module__startupDone__S
0c0318e0   ti_sysbios_hal_Timer_TimerProxy_getExpiredCounts__E
0c031900   ti_sysbios_hal_Timer_TimerProxy_getPeriod__E
0c031920   ti_sysbios_hal_Timer_TimerProxy_setNextTick__E
0c028ba0   ti_sysbios_hal_Timer_TimerProxy_startup__E
0c028ba0   ti_sysbios_hal_Timer_startup__E
0c036c3c   ti_sysbios_heaps_HeapBuf_Instance_State_freeList__O
0082a100   ti_sysbios_heaps_HeapBuf_Module__root__V
0082a108   ti_sysbios_heaps_HeapBuf_Module__state__V
0c0221a0   ti_sysbios_heaps_HeapBuf_Module_startup__E
0c0221a0   ti_sysbios_heaps_HeapBuf_Module_startup__F
0c036c40   ti_sysbios_heaps_HeapBuf_Object__count__C
0c031940   ti_sysbios_heaps_HeapBuf_Object__get__S
0c036c44   ti_sysbios_heaps_HeapBuf_numConstructedHeaps__C
0c036c48   ti_sysbios_heaps_HeapMem_A_align__C
0c036c4c   ti_sysbios_heaps_HeapMem_A_heapSize__C
0c036c50   ti_sysbios_heaps_HeapMem_A_invalidFree__C
0c036c54   ti_sysbios_heaps_HeapMem_A_zeroBlock__C
0c036c58   ti_sysbios_heaps_HeapMem_E_memory__C
0c030100   ti_sysbios_heaps_HeapMem_Handle__label__S
00800020   ti_sysbios_heaps_HeapMem_Instance_State_0_buf__A
0c016e20   ti_sysbios_heaps_HeapMem_Instance_init__F
0c031960   ti_sysbios_heaps_HeapMem_Module_GateProxy_enter__E
0c031980   ti_sysbios_heaps_HeapMem_Module_GateProxy_leave__E
0c031800   ti_sysbios_heaps_HeapMem_Module_GateProxy_query__E
0c0360ec   ti_sysbios_heaps_HeapMem_Module__FXNS__C
0c036c5c   ti_sysbios_heaps_HeapMem_Module__diagsEnabled__C
0c036c60   ti_sysbios_heaps_HeapMem_Module__diagsIncluded__C
0c036c64   ti_sysbios_heaps_HeapMem_Module__diagsMask__C
0c036c68   ti_sysbios_heaps_HeapMem_Module__gateObj__C
0c036eb8   ti_sysbios_heaps_HeapMem_Module__id__C
0082a10c   ti_sysbios_heaps_HeapMem_Module__root__V
0c03664c   ti_sysbios_heaps_HeapMem_Object__DESC__C
0c0362b0   ti_sysbios_heaps_HeapMem_Object__PARAMS__C
0c036c6c   ti_sysbios_heaps_HeapMem_Object__count__C
0c02cd20   ti_sysbios_heaps_HeapMem_Object__create__S
0c030140   ti_sysbios_heaps_HeapMem_Object__delete__S
0c030180   ti_sysbios_heaps_HeapMem_Object__get__S
0082b0d0   ti_sysbios_heaps_HeapMem_Object__table__V
0c0094e0   ti_sysbios_heaps_HeapMem_alloc__E
0c009ae0   ti_sysbios_heaps_HeapMem_free__E
0c029e20   ti_sysbios_heaps_HeapMem_getStats__E
0c02b280   ti_sysbios_heaps_HeapMem_init__I
0c0319a0   ti_sysbios_heaps_HeapMem_isBlocking__E
0c036c70   ti_sysbios_heaps_HeapMem_reqAlign__C
0c036c74   ti_sysbios_knl_Clock_A_badThreadType__C
0c024440   ti_sysbios_knl_Clock_Instance_finalize__F
0c019560   ti_sysbios_knl_Clock_Instance_init__F
0c036c78   ti_sysbios_knl_Clock_LM_begin__C
0c036c7c   ti_sysbios_knl_Clock_LM_tick__C
0c036c80   ti_sysbios_knl_Clock_LW_delayed__C
0c036c84   ti_sysbios_knl_Clock_Module_State_clockQ__O
0c036c88   ti_sysbios_knl_Clock_Module__diagsEnabled__C
0c036c8c   ti_sysbios_knl_Clock_Module__diagsIncluded__C
0c036c90   ti_sysbios_knl_Clock_Module__diagsMask__C
0c036ebc   ti_sysbios_knl_Clock_Module__id__C
0c036ec0   ti_sysbios_knl_Clock_Module__loggerDefined__C
0c036c94   ti_sysbios_knl_Clock_Module__loggerFxn1__C
0c036c98   ti_sysbios_knl_Clock_Module__loggerFxn2__C
0c036c9c   ti_sysbios_knl_Clock_Module__loggerObj__C
0082a114   ti_sysbios_knl_Clock_Module__root__V
0082a11c   ti_sysbios_knl_Clock_Module__state__V
0c02cda0   ti_sysbios_knl_Clock_Module_startup__E
0c02cda0   ti_sysbios_knl_Clock_Module_startup__F
0c03666c   ti_sysbios_knl_Clock_Object__DESC__C
0c0362d4   ti_sysbios_knl_Clock_Object__PARAMS__C
0c02b320   ti_sysbios_knl_Clock_Object__create__S
0c0301c0   ti_sysbios_knl_Clock_Object__destruct__S
0c0319c0   ti_sysbios_knl_Clock_Params__init__S
0c02ce20   ti_sysbios_knl_Clock_doTick__I
0c02cea0   ti_sysbios_knl_Clock_getTicks__E
0c029ee0   ti_sysbios_knl_Clock_logTick__E
0c026dc0   ti_sysbios_knl_Clock_startI__E
0c028ac0   ti_sysbios_knl_Clock_start__E
0c036ca0   ti_sysbios_knl_Clock_tickMode__C
0c036ca4   ti_sysbios_knl_Clock_tickSource__C
0c0183c0   ti_sysbios_knl_Clock_workFunc__E
0c0368e8   ti_sysbios_knl_Idle_coreList__A
0c0368f0   ti_sysbios_knl_Idle_coreList__C
0c0368f8   ti_sysbios_knl_Idle_funcList__A
0c036900   ti_sysbios_knl_Idle_funcList__C
0c0319e0   ti_sysbios_knl_Idle_loop__E
0c02b3c0   ti_sysbios_knl_Idle_run__E
0c031a00   ti_sysbios_knl_Queue_Instance_init__F
0082a144   ti_sysbios_knl_Queue_Module__root__V
0c03668c   ti_sysbios_knl_Queue_Object__DESC__C
0c036814   ti_sysbios_knl_Queue_Object__PARAMS__C
0c02cf20   ti_sysbios_knl_Queue_Object__create__S
0c031a20   ti_sysbios_knl_Queue_Object__destruct__S
0c031a40   ti_sysbios_knl_Queue_Object__get__S
0c031a60   ti_sysbios_knl_Queue_empty__E
0c036ca8   ti_sysbios_knl_Semaphore_A_badContext__C
0c036cac   ti_sysbios_knl_Semaphore_A_noEvents__C
0c036cb0   ti_sysbios_knl_Semaphore_A_overflow__C
0c036cb4   ti_sysbios_knl_Semaphore_Instance_State_pendQ__O
0c030200   ti_sysbios_knl_Semaphore_Instance_finalize__F
0c024580   ti_sysbios_knl_Semaphore_Instance_init__F
0c036cb8   ti_sysbios_knl_Semaphore_LM_pend__C
0c036cbc   ti_sysbios_knl_Semaphore_LM_post__C
0c036cc0   ti_sysbios_knl_Semaphore_Module__diagsEnabled__C
0c036cc4   ti_sysbios_knl_Semaphore_Module__diagsIncluded__C
0c036cc8   ti_sysbios_knl_Semaphore_Module__diagsMask__C
0c036ec4   ti_sysbios_knl_Semaphore_Module__id__C
0c036ec8   ti_sysbios_knl_Semaphore_Module__loggerDefined__C
0c036ccc   ti_sysbios_knl_Semaphore_Module__loggerFxn2__C
0c036cd0   ti_sysbios_knl_Semaphore_Module__loggerFxn4__C
0c036cd4   ti_sysbios_knl_Semaphore_Module__loggerObj__C
0082a14c   ti_sysbios_knl_Semaphore_Module__root__V
0c0366ac   ti_sysbios_knl_Semaphore_Object__DESC__C
0c0362f8   ti_sysbios_knl_Semaphore_Object__PARAMS__C
0c02cfa0   ti_sysbios_knl_Semaphore_Object__create__S
0c030240   ti_sysbios_knl_Semaphore_Object__destruct__S
0c031a80   ti_sysbios_knl_Semaphore_Params__init__S
0c02d020   ti_sysbios_knl_Semaphore_pendTimeout__I
0c00e3c0   ti_sysbios_knl_Semaphore_pend__E
0c01bb00   ti_sysbios_knl_Semaphore_post__E
0c036cd8   ti_sysbios_knl_Swi_A_badPriority__C
0c029fa0   ti_sysbios_knl_Swi_Instance_finalize__F
0c01fa20   ti_sysbios_knl_Swi_Instance_init__F
0c036cdc   ti_sysbios_knl_Swi_LD_end__C
0c036ce0   ti_sysbios_knl_Swi_LM_begin__C
0c036ce4   ti_sysbios_knl_Swi_LM_post__C
0082ac80   ti_sysbios_knl_Swi_Module_State_0_readyQ__A
0c036ce8   ti_sysbios_knl_Swi_Module__diagsEnabled__C
0c036cec   ti_sysbios_knl_Swi_Module__diagsIncluded__C
0c036cf0   ti_sysbios_knl_Swi_Module__diagsMask__C
0c036ecc   ti_sysbios_knl_Swi_Module__id__C
0c036ed0   ti_sysbios_knl_Swi_Module__loggerDefined__C
0c036cf4   ti_sysbios_knl_Swi_Module__loggerFxn1__C
0c036cf8   ti_sysbios_knl_Swi_Module__loggerFxn4__C
0c036cfc   ti_sysbios_knl_Swi_Module__loggerObj__C
0082a154   ti_sysbios_knl_Swi_Module__root__V
0082a15c   ti_sysbios_knl_Swi_Module__state__V
0c02e980   ti_sysbios_knl_Swi_Module_startup__E
0c02e980   ti_sysbios_knl_Swi_Module_startup__F
0c0366cc   ti_sysbios_knl_Swi_Object__DESC__C
0c036114   ti_sysbios_knl_Swi_Object__PARAMS__C
0c036d00   ti_sysbios_knl_Swi_Object__count__C
0c026ec0   ti_sysbios_knl_Swi_Object__create__S
0c030280   ti_sysbios_knl_Swi_Object__destruct__S
0c0302c0   ti_sysbios_knl_Swi_Object__get__S
0082afd0   ti_sysbios_knl_Swi_Object__table__V
0c031aa0   ti_sysbios_knl_Swi_Params__init__S
0c031ac0   ti_sysbios_knl_Swi_disable__E
0c0246c0   ti_sysbios_knl_Swi_post__E
0c026fc0   ti_sysbios_knl_Swi_restoreHwi__E
0c01ca00   ti_sysbios_knl_Swi_run__I
0c022320   ti_sysbios_knl_Swi_schedule__I
0c02d0a0   ti_sysbios_knl_Swi_startup__E
0c036d04   ti_sysbios_knl_Task_A_badPriority__C
0c036d08   ti_sysbios_knl_Task_A_badTaskState__C
0c036d0c   ti_sysbios_knl_Task_A_badThreadType__C
0c036d10   ti_sysbios_knl_Task_A_noPendElem__C
0c036d14   ti_sysbios_knl_Task_E_deleteNotAllowed__C
00820020   ti_sysbios_knl_Task_Instance_State_0_hookEnv__A
00828030   ti_sysbios_knl_Task_Instance_State_0_stack__A
00820028   ti_sysbios_knl_Task_Instance_State_1_hookEnv__A
00828830   ti_sysbios_knl_Task_Instance_State_1_stack__A
0c008840   ti_sysbios_knl_Task_Instance_finalize__F
0c013840   ti_sysbios_knl_Task_Instance_init__F
0c036d18   ti_sysbios_knl_Task_LD_block__C
0c036d1c   ti_sysbios_knl_Task_LD_exit__C
0c036d20   ti_sysbios_knl_Task_LD_ready__C
0c036d24   ti_sysbios_knl_Task_LM_setPri__C
0c036d28   ti_sysbios_knl_Task_LM_switch__C
0c036d2c   ti_sysbios_knl_Task_LM_yield__C
0082b1a0   ti_sysbios_knl_Task_Module_State_0_idleTask__A
0082ad00   ti_sysbios_knl_Task_Module_State_0_readyQ__A
0c036d30   ti_sysbios_knl_Task_Module_State_inactiveQ__O
0c036d34   ti_sysbios_knl_Task_Module_State_terminatedQ__O
0c036d38   ti_sysbios_knl_Task_Module__diagsEnabled__C
0c036d3c   ti_sysbios_knl_Task_Module__diagsIncluded__C
0c036d40   ti_sysbios_knl_Task_Module__diagsMask__C
0c036ed4   ti_sysbios_knl_Task_Module__id__C
0c036ed8   ti_sysbios_knl_Task_Module__loggerDefined__C
0c036d44   ti_sysbios_knl_Task_Module__loggerFxn2__C
0c036d48   ti_sysbios_knl_Task_Module__loggerFxn4__C
0c036d4c   ti_sysbios_knl_Task_Module__loggerObj__C
0082a178   ti_sysbios_knl_Task_Module__root__V
0082a180   ti_sysbios_knl_Task_Module__state__V
0c00f660   ti_sysbios_knl_Task_Module_startup__E
0c00f660   ti_sysbios_knl_Task_Module_startup__F
0c0366ec   ti_sysbios_knl_Task_Object__DESC__C
0c035dd8   ti_sysbios_knl_Task_Object__PARAMS__C
0c036d50   ti_sysbios_knl_Task_Object__count__C
0c0270c0   ti_sysbios_knl_Task_Object__create__S
0c02e9e0   ti_sysbios_knl_Task_Object__delete__S
0c031ae0   ti_sysbios_knl_Task_Object__first__S
0c030300   ti_sysbios_knl_Task_Object__get__S
0c036d54   ti_sysbios_knl_Task_Object__heap__C
0c031b00   ti_sysbios_knl_Task_Object__next__S
0082aa40   ti_sysbios_knl_Task_Object__table__V
0c031b20   ti_sysbios_knl_Task_Params__init__S
0c031b40   ti_sysbios_knl_Task_SupportProxy_Module__startupDone__S
0c0315a0   ti_sysbios_knl_Task_SupportProxy_getStackAlignment__E
0c02c720   ti_sysbios_knl_Task_SupportProxy_start__E
0c02baa0   ti_sysbios_knl_Task_SupportProxy_swap__E
0c036d58   ti_sysbios_knl_Task_allBlockedFunc__C
0c02a060   ti_sysbios_knl_Task_allBlockedFunction__I
0c024800   ti_sysbios_knl_Task_blockI__E
0c036d5c   ti_sysbios_knl_Task_defaultStackHeap__C
0c036d60   ti_sysbios_knl_Task_defaultStackSize__C
0c02b460   ti_sysbios_knl_Task_deleteTerminatedTasksFunc__I
0c036edc   ti_sysbios_knl_Task_deleteTerminatedTasks__C
0c031b60   ti_sysbios_knl_Task_disable__E
0c02ea40   ti_sysbios_knl_Task_enter__I
0c017680   ti_sysbios_knl_Task_exit__E
0c031b80   ti_sysbios_knl_Task_getHookContext__E
0c031ba0   ti_sysbios_knl_Task_getPri__E
0c035f18   ti_sysbios_knl_Task_hooks__A
0c036908   ti_sysbios_knl_Task_hooks__C
0c036ee0   ti_sysbios_knl_Task_initStackFlag__C
0c036d64   ti_sysbios_knl_Task_numConstructedTasks__C
0c036d68   ti_sysbios_knl_Task_numPriorities__C
0c01ebe0   ti_sysbios_knl_Task_postInit__I
0c02d120   ti_sysbios_knl_Task_restore__E
0c01cc20   ti_sysbios_knl_Task_schedule__I
0c031bc0   ti_sysbios_knl_Task_self__E
0c031be0   ti_sysbios_knl_Task_setHookContext__E
0c013c00   ti_sysbios_knl_Task_setPri__E
0c01ce40   ti_sysbios_knl_Task_startCore__E
0c031c00   ti_sysbios_knl_Task_startup__E
0c0224a0   ti_sysbios_knl_Task_unblockI__E
0c024940   ti_sysbios_knl_Task_yield__E
0082a1c8   ti_sysbios_syncs_SyncSem_Module__root__V
0c036d6c   ti_sysbios_timers_timer64_Timer_A_notAvailable__C
0c036d70   ti_sysbios_timers_timer64_Timer_E_cannotSupport__C
0082a740   ti_sysbios_timers_timer64_Timer_Module_State_0_device__A
0082ad80   ti_sysbios_timers_timer64_Timer_Module_State_0_gctrl__A
0082ae00   ti_sysbios_timers_timer64_Timer_Module_State_0_handles__A
0082ae80   ti_sysbios_timers_timer64_Timer_Module_State_0_intFreqs__A
0c036d74   ti_sysbios_timers_timer64_Timer_Module__diagsEnabled__C
0c036d78   ti_sysbios_timers_timer64_Timer_Module__diagsIncluded__C
0c036d7c   ti_sysbios_timers_timer64_Timer_Module__diagsMask__C
0c036ee4   ti_sysbios_timers_timer64_Timer_Module__id__C
0082a1d0   ti_sysbios_timers_timer64_Timer_Module__root__V
0c030340   ti_sysbios_timers_timer64_Timer_Module__startupDone__F
0c030340   ti_sysbios_timers_timer64_Timer_Module__startupDone__S
0082a1d8   ti_sysbios_timers_timer64_Timer_Module__state__V
0c00c380   ti_sysbios_timers_timer64_Timer_Module_startup__E
0c00c380   ti_sysbios_timers_timer64_Timer_Module_startup__F
0082aad8   ti_sysbios_timers_timer64_Timer_Object__table__V
0c0316c0   ti_sysbios_timers_timer64_Timer_TimerSupportProxy_enable__E
0c036d80   ti_sysbios_timers_timer64_Timer_anyMask__C
0c036d84   ti_sysbios_timers_timer64_Timer_freqDivisor__C
0c02d1a0   ti_sysbios_timers_timer64_Timer_getCount__E
0c02d1a0   ti_sysbios_timers_timer64_Timer_getExpiredCounts__E
0c01edc0   ti_sysbios_timers_timer64_Timer_getFreq__E
0c02d220   ti_sysbios_timers_timer64_Timer_getPeriod__E
0c036d88   ti_sysbios_timers_timer64_Timer_numLocalTimers__C
0c036d8c   ti_sysbios_timers_timer64_Timer_numTimerDevices__C
0c031c20   ti_sysbios_timers_timer64_Timer_setNextTick__E
0c01fbe0   ti_sysbios_timers_timer64_Timer_setPeriodMicroSecs__E
0c020f80   ti_sysbios_timers_timer64_Timer_start__E
0c036ee8   ti_sysbios_timers_timer64_Timer_startupNeeded__C
0c028ba0   ti_sysbios_timers_timer64_Timer_startup__E
0c02a120   ti_sysbios_timers_timer64_Timer_stop__E
0c0317e0   ti_sysbios_xdcruntime_GateProcessSupport_query__F
0c036d90   ti_sysbios_xdcruntime_GateThreadSupport_Instance_State_gate__O
0c030380   ti_sysbios_xdcruntime_GateThreadSupport_Instance_finalize__F
0c0303c0   ti_sysbios_xdcruntime_GateThreadSupport_Instance_init__F
0082a1ec   ti_sysbios_xdcruntime_GateThreadSupport_Module__root__V
0c03670c   ti_sysbios_xdcruntime_GateThreadSupport_Object__DESC__C
0c03682c   ti_sysbios_xdcruntime_GateThreadSupport_Object__PARAMS__C
0c02d2a0   ti_sysbios_xdcruntime_GateThreadSupport_Object__create__S
0c02eaa0   ti_sysbios_xdcruntime_GateThreadSupport_Object__delete__S
0c030400   ti_sysbios_xdcruntime_GateThreadSupport_enter__E
0c030400   ti_sysbios_xdcruntime_GateThreadSupport_enter__F
0c030440   ti_sysbios_xdcruntime_GateThreadSupport_leave__E
0c030440   ti_sysbios_xdcruntime_GateThreadSupport_leave__F
0c0317e0   ti_sysbios_xdcruntime_GateThreadSupport_query__E
0c0317e0   ti_sysbios_xdcruntime_GateThreadSupport_query__F
0c02eb00   unlink
0c02a2a0   vfprintf
0c02b500   write
0c02d320   writemsg
0c036d94   xdc_runtime_Assert_E_assertFailed__C
0c02b5a0   xdc_runtime_Assert_raise__I
0c036d98   xdc_runtime_Core_A_initializedParams__C
0c036d9c   xdc_runtime_Core_Module__diagsEnabled__C
0c036da0   xdc_runtime_Core_Module__diagsIncluded__C
0c036da4   xdc_runtime_Core_Module__diagsMask__C
0c036eec   xdc_runtime_Core_Module__id__C
0c02d3a0   xdc_runtime_Core_assignLabel__I
0c02d420   xdc_runtime_Core_assignParams__I
0c0197e0   xdc_runtime_Core_createObject__I
0c0271c0   xdc_runtime_Core_deleteObject__I
0c036da8   xdc_runtime_Error_E_generic__C
0c036dac   xdc_runtime_Error_E_memory__C
0c036db0   xdc_runtime_Error_Module__diagsEnabled__C
0c036db4   xdc_runtime_Error_Module__diagsIncluded__C
0c036db8   xdc_runtime_Error_Module__diagsMask__C
0c036ef0   xdc_runtime_Error_Module__loggerDefined__C
0c036dbc   xdc_runtime_Error_Module__loggerFxn8__C
0c036dc0   xdc_runtime_Error_Module__loggerObj__C
0082a1f4   xdc_runtime_Error_Module__state__V
0c030480   xdc_runtime_Error_check__E
0c030480   xdc_runtime_Error_check__F
0c0304c0   xdc_runtime_Error_init__E
0c0304c0   xdc_runtime_Error_init__F
0c036ef4   xdc_runtime_Error_maxDepth__C
0c036dc4   xdc_runtime_Error_policy__C
0c028c80   xdc_runtime_Error_print__E
0c028c80   xdc_runtime_Error_print__F
0c036dc8   xdc_runtime_Error_raiseHook__C
0c019a60   xdc_runtime_Error_raiseX__E
0c019a60   xdc_runtime_Error_raiseX__F
0c030500   xdc_runtime_GateNull_Handle__label__S
0c03631c   xdc_runtime_GateNull_Module__FXNS__C
0082a1f8   xdc_runtime_GateNull_Module__root__V
0c03672c   xdc_runtime_GateNull_Object__DESC__C
0c036844   xdc_runtime_GateNull_Object__PARAMS__C
0c02eb60   xdc_runtime_GateNull_Object__create__S
0c030540   xdc_runtime_GateNull_Object__delete__S
0082b1a8   xdc_runtime_GateNull_Object__table__V
0c031c80   xdc_runtime_GateNull_enter__E
0c031c80   xdc_runtime_GateNull_enter__F
0c031ca0   xdc_runtime_GateNull_leave__E
0c031ca0   xdc_runtime_GateNull_leave__F
0c031cc0   xdc_runtime_GateNull_query__E
0c031cc0   xdc_runtime_GateNull_query__F
0c031ce0   xdc_runtime_Gate_enterSystem__E
0c031ce0   xdc_runtime_Gate_enterSystem__F
0c030580   xdc_runtime_Gate_leaveSystem__E
0c030580   xdc_runtime_Gate_leaveSystem__F
0c036dcc   xdc_runtime_IGateProvider_Interface__BASE__C
0c036dd0   xdc_runtime_IHeap_Interface__BASE__C
0c036dd4   xdc_runtime_IModule_Interface__BASE__C
0c036dd8   xdc_runtime_Log_L_error__C
0c0317c0   xdc_runtime_Main_Module_GateProxy_query__E
0c031d40   xdc_runtime_Memory_HeapProxy_alloc__E
0c031d60   xdc_runtime_Memory_HeapProxy_free__E
0c036ef8   xdc_runtime_Memory_Module__id__C
0082a200   xdc_runtime_Memory_Module__state__V
0c028d60   xdc_runtime_Memory_alloc__E
0c028d60   xdc_runtime_Memory_alloc__F
0c02ebc0   xdc_runtime_Memory_calloc__E
0c02ebc0   xdc_runtime_Memory_calloc__F
0c036ddc   xdc_runtime_Memory_defaultHeapInstance__C
0c0305c0   xdc_runtime_Memory_free__E
0c0305c0   xdc_runtime_Memory_free__F
0c031d80   xdc_runtime_Memory_getMaxDefaultTypeAlign__E
0c031d80   xdc_runtime_Memory_getMaxDefaultTypeAlign__F
0c02ec20   xdc_runtime_Memory_valloc__E
0c02ec20   xdc_runtime_Memory_valloc__F
0082a204   xdc_runtime_Registry_Module__state__V
0c030600   xdc_runtime_Registry_findById__E
0c030600   xdc_runtime_Registry_findById__F
0c031da0   xdc_runtime_Startup_Module__startupDone__S
0082a20c   xdc_runtime_Startup_Module__state__V
00000001   xdc_runtime_Startup__EXECFXN__C
00000001   xdc_runtime_Startup__RESETFXN__C
0c036de0   xdc_runtime_Startup_execImpl__C
0c0272c0   xdc_runtime_Startup_exec__E
0c0272c0   xdc_runtime_Startup_exec__F
0c031dc0   xdc_runtime_Startup_exec__I
0c0368b8   xdc_runtime_Startup_firstFxns__A
0c036910   xdc_runtime_Startup_firstFxns__C
0c036918   xdc_runtime_Startup_lastFxns__A
0c036920   xdc_runtime_Startup_lastFxns__C
0c036de4   xdc_runtime_Startup_maxPasses__C
0c031de0   xdc_runtime_Startup_reset__I
0c031e00   xdc_runtime_Startup_rtsDone__E
0c031e00   xdc_runtime_Startup_rtsDone__F
0c036140   xdc_runtime_Startup_sfxnRts__A
0c036de8   xdc_runtime_Startup_sfxnRts__C
0c035cf8   xdc_runtime_Startup_sfxnTab__A
0c036dec   xdc_runtime_Startup_sfxnTab__C
0c01ab20   xdc_runtime_Startup_startMods__I
00820030   xdc_runtime_SysMin_Module_State_0_outbuf__A
0082a214   xdc_runtime_SysMin_Module__state__V
0c02ec80   xdc_runtime_SysMin_Module_startup__E
0c02ec80   xdc_runtime_SysMin_Module_startup__F
0c02b640   xdc_runtime_SysMin_abort__E
0c02b640   xdc_runtime_SysMin_abort__F
0c036df0   xdc_runtime_SysMin_bufSize__C
0c02ece0   xdc_runtime_SysMin_exit__E
0c02ece0   xdc_runtime_SysMin_exit__F
0c036efc   xdc_runtime_SysMin_flushAtExit__C
0c02b6e0   xdc_runtime_SysMin_flush__E
0c02b6e0   xdc_runtime_SysMin_flush__F
0c036df4   xdc_runtime_SysMin_outputFunc__C
0c02d4a0   xdc_runtime_SysMin_output__I
0c02b780   xdc_runtime_SysMin_putch__E
0c02b780   xdc_runtime_SysMin_putch__F
0c031e20   xdc_runtime_SysMin_ready__E
0c031e20   xdc_runtime_SysMin_ready__F
0c031e40   xdc_runtime_System_Module_GateProxy_enter__E
0c031e60   xdc_runtime_System_Module_GateProxy_leave__E
0c0317c0   xdc_runtime_System_Module_GateProxy_query__E
0082b080   xdc_runtime_System_Module_State_0_atexitHandlers__A
0c036df8   xdc_runtime_System_Module__gateObj__C
0082a220   xdc_runtime_System_Module__state__V
0c031e80   xdc_runtime_System_Module_startup__E
0c031e80   xdc_runtime_System_Module_startup__F
0c02b640   xdc_runtime_System_SupportProxy_abort__E
0c02ece0   xdc_runtime_System_SupportProxy_exit__E
0c02b6e0   xdc_runtime_System_SupportProxy_flush__E
0c02b780   xdc_runtime_System_SupportProxy_putch__E
0c031e20   xdc_runtime_System_SupportProxy_ready__E
0c030640   xdc_runtime_System_abort__E
0c030640   xdc_runtime_System_abort__F
0c030680   xdc_runtime_System_aprintf__E
0c02ed40   xdc_runtime_System_aprintf_va__E
0c02ed40   xdc_runtime_System_aprintf_va__F
0c02d520   xdc_runtime_System_atexit__E
0c02d520   xdc_runtime_System_atexit__F
0c02ed40   xdc_runtime_System_avprintf__E
0c02ed40   xdc_runtime_System_avprintf__F
0c002640   xdc_runtime_System_doPrint__I
0c031ea0   xdc_runtime_System_exit__E
0c031ea0   xdc_runtime_System_exit__F
0c036dfc   xdc_runtime_System_extendFxn__C
0c02b6e0   xdc_runtime_System_flush__E
0c02b6e0   xdc_runtime_System_flush__F
0c02a360   xdc_runtime_System_formatNum__I
0c031ec0   xdc_runtime_System_lastFxn__I
0c036e00   xdc_runtime_System_maxAtexitHandlers__C
0c0254a0   xdc_runtime_System_printfExtend__I
0c0306c0   xdc_runtime_System_printf__E
0c02eda0   xdc_runtime_System_printf_va__E
0c02eda0   xdc_runtime_System_printf_va__F
0c02d5a0   xdc_runtime_System_rtsExit__I
0c031ee0   xdc_runtime_System_sprintf_va__E
0c031ee0   xdc_runtime_System_sprintf_va__F
0c02eda0   xdc_runtime_System_vprintf__E
0c02eda0   xdc_runtime_System_vprintf__F
0c031ee0   xdc_runtime_System_vsprintf__E
0c031ee0   xdc_runtime_System_vsprintf__F
0082a22c   xdc_runtime_Text_Module__state__V
0c036f00   xdc_runtime_Text_charCnt__C
0c032000   xdc_runtime_Text_charTab__A
0c036e04   xdc_runtime_Text_charTab__C
0c02ee00   xdc_runtime_Text_cordText__E
0c02ee00   xdc_runtime_Text_cordText__F
0c036f04   xdc_runtime_Text_isLoaded__C
0c036e08   xdc_runtime_Text_nameEmpty__C
0c036e0c   xdc_runtime_Text_nameStatic__C
0c036e10   xdc_runtime_Text_nameUnknown__C
0c0357a0   xdc_runtime_Text_nodeTab__A
0c036e14   xdc_runtime_Text_nodeTab__C
0c02d620   xdc_runtime_Text_printVisFxn__I
0c0273c0   xdc_runtime_Text_putMod__E
0c0273c0   xdc_runtime_Text_putMod__F
0c022620   xdc_runtime_Text_putSite__E
0c022620   xdc_runtime_Text_putSite__F
0c036f08   xdc_runtime_Text_registryModsLastId__C
0c030700   xdc_runtime_Text_ropeText__E
0c030700   xdc_runtime_Text_ropeText__F
0c036f0c   xdc_runtime_Text_unnamedModsLastId__C
0c0274c0   xdc_runtime_Text_visitRope2__I
0c036e18   xdc_runtime_Text_visitRopeFxn__C
0c031f00   xdc_runtime_Text_visitRope__I
0c02d6a0   xdc_runtime_Text_xprintf__I
0c0316a0   xdc_runtime_Timestamp_SupportProxy_get32__E
0c0316a0   xdc_runtime_Timestamp_get32__E
0c0316a0   xdc_runtime_Timestamp_get32__F
0c030740   xdc_runtime_knl_GateThread_Handle__label__S
0c030780   xdc_runtime_knl_GateThread_Instance_finalize__F
0c0307c0   xdc_runtime_knl_GateThread_Instance_init__F
0c036340   xdc_runtime_knl_GateThread_Module__FXNS__C
0082a234   xdc_runtime_knl_GateThread_Module__root__V
0c031f20   xdc_runtime_knl_GateThread_Module__startupDone__S
0c03674c   xdc_runtime_knl_GateThread_Object__DESC__C
0c03685c   xdc_runtime_knl_GateThread_Object__PARAMS__C
0c028e40   xdc_runtime_knl_GateThread_Object__create__S
0c02ee60   xdc_runtime_knl_GateThread_Object__delete__S
0c031f40   xdc_runtime_knl_GateThread_Proxy_Object__create__S
0c031f60   xdc_runtime_knl_GateThread_Proxy_Object__delete__S
0c031f80   xdc_runtime_knl_GateThread_Proxy_enter__E
0c031fa0   xdc_runtime_knl_GateThread_Proxy_leave__E
0c0317e0   xdc_runtime_knl_GateThread_Proxy_query__E
0c031fc0   xdc_runtime_knl_GateThread_enter__E
0c031fc0   xdc_runtime_knl_GateThread_enter__F
0c031fe0   xdc_runtime_knl_GateThread_leave__E
0c031fe0   xdc_runtime_knl_GateThread_leave__F
0c0317e0   xdc_runtime_knl_GateThread_query__E
0c0317e0   xdc_runtime_knl_GateThread_query__F


GLOBAL SYMBOLS: SORTED BY Symbol Address 

address    name
--------   ----
00000000   __errno
00000000   _argsize
00000001   __TI_args_main
00000001   xdc_runtime_Startup__EXECFXN__C
00000001   xdc_runtime_Startup__RESETFXN__C
00000004   next
00000008   getenv_out
000000d0   __TI_TLS_BLOCK_SIZE
00001000   __TI_STACK_SIZE
00800000   ti_sdo_utils_NameServer_Module_State_0_nsRemoteHandle__A
00800020   ti_sysbios_heaps_HeapMem_Instance_State_0_buf__A
00820020   ti_sysbios_knl_Task_Instance_State_0_hookEnv__A
00820028   ti_sysbios_knl_Task_Instance_State_1_hookEnv__A
00820030   xdc_runtime_SysMin_Module_State_0_outbuf__A
00828030   ti_sysbios_knl_Task_Instance_State_0_stack__A
00828830   ti_sysbios_knl_Task_Instance_State_1_stack__A
00829180   _tmpnams
008292c8   ti_sdo_ipc_GateMP_Module_State_0_remoteCustom1Gates__A
00829ac8   ti_omp_utils_HeapOMP_Module__root__V
00829ad0   ti_omp_utils_OpenMP_Module__state__V
00829ae0   ti_omp_utils_ThreadLocal_Module__state__V
00829ae4   ti_omp_utils_ThreadLocalStorage_Module__state__V
00829aec   ti_sdo_ipc_GateMP_Module__root__V
00829af4   ti_sdo_ipc_GateMP_Module__state__V
00829b3c   ti_sdo_ipc_Ipc_Module__state__V
00829b48   ti_sdo_ipc_ListMP_Module__root__V
00829b50   ti_sdo_ipc_ListMP_Module__state__V
00829b54   ti_sdo_ipc_MessageQ_Module__root__V
00829b5c   ti_sdo_ipc_MessageQ_Module__state__V
00829b78   ti_sdo_ipc_Notify_Module__root__V
00829b80   ti_sdo_ipc_Notify_Module__state__V
00829b88   ti_sdo_ipc_SharedRegion_Module__state__V
00829b8c   ti_sdo_ipc_family_c647x_Interrupt_Module__state__V
00829b98   ti_sdo_ipc_gates_GateHWSem_Module__root__V
00829ba0   ti_sdo_ipc_gates_GateMPSupportNull_Module__root__V
00829ba8   ti_sdo_ipc_gates_GatePeterson_Module__root__V
00829bb0   ti_sdo_ipc_heaps_HeapMemMP_Module__root__V
00829bb8   ti_sdo_ipc_heaps_HeapMemMP_Module__state__V
00829bbc   ti_sdo_ipc_notifyDrivers_NotifyDriverShm_Module__root__V
00829bc4   ti_sdo_ipc_nsremote_NameServerRemoteNotify_Module__root__V
00829bcc   ti_sdo_ipc_transports_TransportShm_Module__root__V
00829bd4   ti_sdo_ipc_transports_TransportShmSetup_Module__state__V
00829bd8   ti_sdo_utils_List_Module__root__V
00829be0   ti_sdo_utils_MultiProc_Module__state__V
00829be4   ti_sdo_utils_NameServer_Module__root__V
00829bec   ti_sdo_utils_NameServer_Module__state__V
00829bf4   ti_sdo_utils_NameServerRemoteNull_Module__root__V
00829bfc   ti_sysbios_BIOS_Module__state__V
00829c1c   ti_sysbios_family_c64p_EventCombiner_Module__state__V
0082a01c   ti_sysbios_family_c64p_Exception_Module__state__V
0082a048   ti_sysbios_family_c64p_Hwi_Module__root__V
0082a050   ti_sysbios_family_c64p_Hwi_Module__state__V
0082a0b8   ti_sysbios_family_c66_tci66xx_CpIntc_Module__state__V
0082a0c8   ti_sysbios_gates_GateAll_Module__root__V
0082a0d0   ti_sysbios_gates_GateHwi_Module__root__V
0082a0d8   ti_sysbios_gates_GateMutex_Module__root__V
0082a0e0   ti_sysbios_gates_GateMutexPri_Module__root__V
0082a0e8   ti_sysbios_gates_GateSwi_Module__root__V
0082a0f0   ti_sysbios_hal_Hwi_Module__root__V
0082a0f8   ti_sysbios_hal_Timer_Module__root__V
0082a100   ti_sysbios_heaps_HeapBuf_Module__root__V
0082a108   ti_sysbios_heaps_HeapBuf_Module__state__V
0082a10c   ti_sysbios_heaps_HeapMem_Module__root__V
0082a114   ti_sysbios_knl_Clock_Module__root__V
0082a11c   ti_sysbios_knl_Clock_Module__state__V
0082a144   ti_sysbios_knl_Queue_Module__root__V
0082a14c   ti_sysbios_knl_Semaphore_Module__root__V
0082a154   ti_sysbios_knl_Swi_Module__root__V
0082a15c   ti_sysbios_knl_Swi_Module__state__V
0082a178   ti_sysbios_knl_Task_Module__root__V
0082a180   ti_sysbios_knl_Task_Module__state__V
0082a1c8   ti_sysbios_syncs_SyncSem_Module__root__V
0082a1d0   ti_sysbios_timers_timer64_Timer_Module__root__V
0082a1d8   ti_sysbios_timers_timer64_Timer_Module__state__V
0082a1ec   ti_sysbios_xdcruntime_GateThreadSupport_Module__root__V
0082a1f4   xdc_runtime_Error_Module__state__V
0082a1f8   xdc_runtime_GateNull_Module__root__V
0082a200   xdc_runtime_Memory_Module__state__V
0082a204   xdc_runtime_Registry_Module__state__V
0082a20c   xdc_runtime_Startup_Module__state__V
0082a214   xdc_runtime_SysMin_Module__state__V
0082a220   xdc_runtime_System_Module__state__V
0082a22c   xdc_runtime_Text_Module__state__V
0082a234   xdc_runtime_knl_GateThread_Module__root__V
0082a23c   __xdc__init__addr
0082a240   ti_sysbios_family_c66_tci66xx_CpIntc_Module_State_0_dispatchTab__A
0082a740   ti_sysbios_timers_timer64_Timer_Module_State_0_device__A
0082a8c0   ti_sdo_utils_NameServer_Object__table__V
0082a9a0   ti_sdo_ipc_Ipc_Module_State_0_procEntry__A
0082aa40   TSK_idle
0082aa40   ti_sysbios_knl_Task_Object__table__V
0082aad8   ti_sysbios_timers_timer64_Timer_Object__table__V
0082ab70   ti_sdo_ipc_SharedRegion_Module_State_0_regions__A
0082ac00   ti_sdo_ipc_GateMP_Module_State_0_remoteSystemGates__A
0082ac80   ti_sysbios_knl_Swi_Module_State_0_readyQ__A
0082ad00   ti_sysbios_knl_Task_Module_State_0_readyQ__A
0082ad80   ti_sysbios_timers_timer64_Timer_Module_State_0_gctrl__A
0082ae00   ti_sysbios_timers_timer64_Timer_Module_State_0_handles__A
0082ae80   ti_sysbios_timers_timer64_Timer_Module_State_0_intFreqs__A
0082af00   ti_sysbios_family_c66_tci66xx_CpIntc_Module_State_0_hostIntToSysInt__A
0082af50   ti_sdo_ipc_MessageQ_Module_State_0_transports__A
0082af90   ti_sysbios_gates_GateMutex_Object__table__V
0082afd0   ti_sysbios_knl_Swi_Object__table__V
0082b000   ti_sdo_ipc_MessageQ_Module_State_0_heaps__A
0082b020   ti_sdo_ipc_Notify_Module_State_0_notifyHandles__A
0082b040   ti_sdo_ipc_family_c647x_Interrupt_Module_State_0_args__A
0082b060   ti_sdo_ipc_transports_TransportShmSetup_Module_State_0_handles__A
0082b080   xdc_runtime_System_Module_State_0_atexitHandlers__A
0082b0a0   ti_sysbios_family_c64p_Hwi_Object__table__V
0082b0b8   ti_sysbios_gates_GateMutexPri_Object__table__V
0082b0d0   ti_sysbios_heaps_HeapMem_Object__table__V
0082b0e8   ti_sysbios_family_c66_tci66xx_CpIntc_Module_State_0_initSIER__A
0082b100   ti_sysbios_family_c66_tci66xx_CpIntc_Module_State_0_controller__A
0082b110   ti_sysbios_gates_GateAll_Object__table__V
0082b120   ti_omp_utils_HeapOMP_Object__table__V
0082b130   ti_sysbios_gates_GateSwi_Object__table__V
0082b140   ti_sysbios_hal_Hwi_Object__table__V
0082b148   ti_sysbios_hal_Timer_Object__table__V
0082b150   ti_sdo_ipc_GateMP_Module_State_0_remoteCustom2Gates__A
0082b158   ti_sdo_ipc_Notify_Module_State_0_notifyHandles_0__A
0082b160   ti_sdo_ipc_Notify_Module_State_0_notifyHandles_1__A
0082b168   ti_sdo_ipc_Notify_Module_State_0_notifyHandles_2__A
0082b170   ti_sdo_ipc_Notify_Module_State_0_notifyHandles_3__A
0082b178   ti_sdo_ipc_Notify_Module_State_0_notifyHandles_4__A
0082b180   ti_sdo_ipc_Notify_Module_State_0_notifyHandles_5__A
0082b188   ti_sdo_ipc_Notify_Module_State_0_notifyHandles_6__A
0082b190   ti_sdo_ipc_Notify_Module_State_0_notifyHandles_7__A
0082b198   ti_sysbios_gates_GateHwi_Object__table__V
0082b1a0   ti_sysbios_knl_Task_Module_State_0_idleTask__A
0082b1a8   xdc_runtime_GateNull_Object__table__V
0082b1b0   _ftable
0082b4c0   _delete_mutexes_ptr
0082b4c4   _cleanup_ptr
0082b4c8   _dtors_ptr
0082b4cc   __TI_enable_exit_profile_output
0082b4dc   _lock
0082b4e0   _unlock
0082b4ec   _ft_end
0082b4f4   __TI_tls_currentTP
0082b4f8   _stack
0082c4f8   __CIOBUF_
0082c4f8   __TI_STACK_END
0c000000   __ASM__
0c000000   ti_sdo_ipc_GateMP_Instance_init__F
0c000078   __ISA__
0c000090   __PLAT__
0c0000b0   __TARG__
0c0000d8   __TRDR__
0c0011c0   ti_sdo_ipc_heaps_HeapMemMP_alloc__E
0c001c20   ti_sdo_ipc_heaps_HeapMemMP_free__E
0c002640   xdc_runtime_System_doPrint__I
0c002fe0   Ipc_attach
0c003960   ti_sdo_ipc_transports_TransportShm_Instance_init__F
0c004260   ti_sdo_ipc_GateMP_Instance_finalize__F
0c004b20   ti_sdo_ipc_ListMP_Instance_init__F
0c0053c0   MessageQ_put
0c005c00   gomp_team_start
0c006400   Qmss_insertMemoryRegion
0c006be0   ti_sdo_ipc_heaps_HeapMemMP_Instance_init__F
0c007360   ti_sysbios_family_c64p_Exception_handler__I
0c007ae0   ti_sdo_ipc_nsremote_NameServerRemoteNotify_Instance_init__F
0c0081a0   NameServer_add
0c008840   ti_sysbios_knl_Task_Instance_finalize__F
0c008ec0   Notify_sendEvent
0c0094e0   ti_sysbios_heaps_HeapMem_alloc__E
0c009ae0   ti_sysbios_heaps_HeapMem_free__E
0c00a0e0   Notify_registerEventSingle
0c00a6c0   ListMP_getHead
0c00ac80   Notify_unregisterEventSingle
0c00b240   __c6xabi_divd
0c00bdc0   ti_sdo_ipc_SharedRegion_start__E
0c00bdc0   ti_sdo_ipc_SharedRegion_start__F
0c00c380   ti_sysbios_timers_timer64_Timer_Module_startup__E
0c00c380   ti_sysbios_timers_timer64_Timer_Module_startup__F
0c00c940   ti_sdo_ipc_nsremote_NameServerRemoteNotify_get__E
0c00c940   ti_sdo_ipc_nsremote_NameServerRemoteNotify_get__F
0c00cec0   ti_sdo_ipc_transports_TransportShm_put__E
0c00d440   gomp_barrier_handle_tasks
0c00d9a0   ti_sdo_ipc_Ipc_procSyncStart__I
0c00dee0   ti_sdo_ipc_notifyDrivers_NotifyDriverShm_Instance_init__F
0c00e3c0   ti_sysbios_knl_Semaphore_pend__E
0c00e8a0   ti_sdo_ipc_gates_GatePeterson_Instance_init__F
0c00ed40   ti_sdo_ipc_nsremote_NameServerRemoteNotify_swiFxn__I
0c00f3e0   dwt
0c00f5e4   main
0c00f660   ti_sysbios_knl_Task_Module_startup__E
0c00f660   ti_sysbios_knl_Task_Module_startup__F
0c00fae0   _printfi
0c0103a0   ti_sdo_ipc_GateMP_setRegion0Reserved__E
0c0103a0   ti_sdo_ipc_GateMP_setRegion0Reserved__F
0c010800   ti_sdo_ipc_Ipc_procSyncFinish__I
0c010c60   ListMP_putTail
0c0114e0   ti_sdo_ipc_heaps_HeapMemMP_getStats__E
0c011920   ti_sdo_ipc_heaps_HeapMemMP_postInit__I
0c012180   ti_sdo_ipc_Notify_Instance_init__F
0c012580   Cppi_initDescriptor
0c012940   fputs
0c012d00   gomp_team_barrier_wait_end
0c013480   ti_sdo_ipc_SharedRegion_reserveMemory__E
0c013480   ti_sdo_ipc_SharedRegion_reserveMemory__F
0c013840   ti_sysbios_knl_Task_Instance_init__F
0c013c00   ti_sysbios_knl_Task_setPri__E
0c014360   HeapMemMP_sharedMemReq
0c0146e0   GateMP_sharedMemReq
0c014a20   Qmss_init
0c015080   strtoul
0c0153a0   gomp_thread_setspecific
0c0153a0   ti_omp_utils_ThreadLocal_setspecific__E
0c0156c0   GateMP_openByAddr
0c0159c0   ti_sdo_ipc_transports_TransportShm_openByAddr__E
0c0159c0   ti_sdo_ipc_transports_TransportShm_openByAddr__F
0c015cc0   ti_sysbios_family_c64p_Hwi_dispatchC__I
0c015fc0   SharedRegion_getEntry
0c0162a0   SharedRegion_getPtr
0c016b40   ti_sysbios_gates_GateMutexPri_enter__E
0c016e20   ti_sysbios_heaps_HeapMem_Instance_init__F
0c017100   ti_omp_utils_OpenMP_masterTask__I
0c0173c0   ti_sdo_ipc_notifyDrivers_NotifyDriverShm_isr__I
0c017680   ti_sysbios_knl_Task_exit__E
0c017940   NameServer_getLocal
0c017e80   initialize_env
0c018120   ti_sysbios_family_c66_tci66xx_CpIntc_Module_startup__E
0c018120   ti_sysbios_family_c66_tci66xx_CpIntc_Module_startup__F
0c0183c0   ti_sysbios_knl_Clock_workFunc__E
0c018660   Ipc_start
0c0188e0   SharedRegion_getSRPtr
0c019060   gomp_team_end
0c0192e0   ti_sdo_ipc_notifyDrivers_NotifyDriverShm_sharedMemReq__E
0c0192e0   ti_sdo_ipc_notifyDrivers_NotifyDriverShm_sharedMemReq__F
0c019560   ti_sysbios_knl_Clock_Instance_init__F
0c0197e0   xdc_runtime_Core_createObject__I
0c019a60   xdc_runtime_Error_raiseX__E
0c019a60   xdc_runtime_Error_raiseX__F
0c019ce0   ListMP_sharedMemReq
0c01a1a0   gomp_resolve_num_threads
0c01a400   ti_sdo_ipc_ListMP_Instance_finalize__F
0c01a660   ti_sdo_ipc_heaps_HeapMemMP_Instance_finalize__F
0c01a8c0   ti_sdo_ipc_notifyDrivers_NotifyDriverShm_disableEvent__E
0c01ab20   xdc_runtime_Startup_startMods__I
0c01ad80   Cppi_open
0c01afc0   __c6xabi_divull
0c01b680   fputc
0c01b8c0   ti_sysbios_family_c64p_Exception_internalHandler__I
0c01bb00   ti_sysbios_knl_Semaphore_post__E
0c01c180   setvbuf
0c01c3a0   gomp_thread_getspecific
0c01c3a0   ti_omp_utils_ThreadLocal_getspecific__E
0c01c5c0   ti_sdo_ipc_GateMP_start__E
0c01c5c0   ti_sdo_ipc_GateMP_start__F
0c01c7e0   ti_sysbios_family_c64p_Hwi_reconfig__E
0c01ca00   ti_sysbios_knl_Swi_run__I
0c01cc20   ti_sysbios_knl_Task_schedule__I
0c01ce40   ti_sysbios_knl_Task_startCore__E
0c01d060   GateMP_enter
0c01d260   GateMP_leave
0c01d460   ListMP_openByAddr
0c01da60   ti_sysbios_family_c64p_Hwi_dispatchAlways
0c01de60   cppi_internal_heap_add
0c01e060   ti_sdo_ipc_notifyDrivers_NotifyDriverShm_sendEvent__E
0c01e260   ti_sdo_ipc_transports_TransportShm_Instance_finalize__F
0c01e820   ti_sdo_ipc_GateMP_attach__E
0c01e820   ti_sdo_ipc_GateMP_attach__F
0c01ea00   ti_sdo_ipc_GateMP_getFreeResource__I
0c01ebe0   ti_sysbios_knl_Task_postInit__I
0c01edc0   ti_sysbios_timers_timer64_Timer_getFreq__E
0c01efa0   Cppi_initCfg
0c01f160   GOMP_parallel_end
0c01f320   HeapMemMP_openByAddr
0c01f860   ti_sdo_ipc_notifyDrivers_NotifyDriverShm_registerEvent__E
0c01fa20   ti_sysbios_knl_Swi_Instance_init__F
0c01fbe0   ti_sysbios_timers_timer64_Timer_setPeriodMicroSecs__E
0c01fda0   SharedRegion_getCacheLineSize
0c01ff40   SharedRegion_getHeap
0c0200e0   SharedRegion_isCacheEnabled
0c020280   __c6xabi_divul
0c020420   gomp_new_team
0c0205c0   sysExit
0c020760   ti_sdo_ipc_GateMP_openRegion0Reserved__E
0c020760   ti_sdo_ipc_GateMP_openRegion0Reserved__F
0c020900   ti_sdo_ipc_notifyDrivers_NotifyDriverShm_enableEvent__E
0c020aa0   ti_sdo_ipc_notifyDrivers_NotifyDriverShm_unregisterEvent__E
0c020c40   ti_sdo_ipc_nsremote_NameServerRemoteNotify_attach__E
0c020c40   ti_sdo_utils_NameServer_SetupProxy_attach__E
0c020de0   ti_sysbios_gates_GateMutex_enter__E
0c020f80   ti_sysbios_timers_timer64_Timer_start__E
0c021120   HOSTrename
0c0212a0   MultiProc_setLocalId
0c021420   Notify_intLineRegistered
0c0218a0   ti_sysbios_family_c64p_Exception_dispatch__E
0c021a20   ti_omp_utils_OpenMP_createThread__E
0c021ba0   ti_sdo_ipc_MessageQ_registerTransport__E
0c021ba0   ti_sdo_ipc_MessageQ_registerTransport__F
0c021d20   ti_sdo_ipc_Notify_Module_startup__E
0c021d20   ti_sdo_ipc_Notify_Module_startup__F
0c021ea0   ti_sdo_ipc_gates_GatePeterson_enter__E
0c022020   ti_sdo_utils_NameServer_Module_startup__E
0c022020   ti_sdo_utils_NameServer_Module_startup__F
0c0221a0   ti_sysbios_heaps_HeapBuf_Module_startup__E
0c0221a0   ti_sysbios_heaps_HeapBuf_Module_startup__F
0c022320   ti_sysbios_knl_Swi_schedule__I
0c0224a0   ti_sysbios_knl_Task_unblockI__E
0c022620   xdc_runtime_Text_putSite__E
0c022620   xdc_runtime_Text_putSite__F
0c022900   gomp_thread_key_delete
0c022900   ti_omp_utils_ThreadLocal_key_delete__E
0c022a60   ti_sdo_ipc_GateMP_createLocal__E
0c022a60   ti_sdo_ipc_GateMP_createLocal__F
0c022bc0   ti_sdo_ipc_MessageQ_unregisterTransport__E
0c022bc0   ti_sdo_ipc_MessageQ_unregisterTransport__F
0c022d20   ti_sdo_ipc_gates_GateHWSem_Instance_init__F
0c022e80   ti_sdo_ipc_transports_TransportShm_sharedMemReq__E
0c022e80   ti_sdo_ipc_transports_TransportShm_sharedMemReq__F
0c022fe0   ti_sdo_utils_NameServer_isRegistered__E
0c023140   ti_sdo_utils_NameServer_registerRemoteDriver__E
0c0232a0   ti_sdo_utils_NameServer_unregisterRemoteDriver__E
0c023400   CSL_chipReadReg
0c023540   GateMP_close
0c023680   Notify_attach
0c0237c0   _auto_init_elf
0c023a40   fseek
0c023cc0   gomp_barrier_wait_end
0c023e00   initialize_team
0c023f40   ti_sdo_ipc_Notify_exec__E
0c023f40   ti_sdo_ipc_Notify_exec__F
0c024080   ti_sysbios_family_c64p_Hwi_Module_startup__E
0c024080   ti_sysbios_family_c64p_Hwi_Module_startup__F
0c0241c0   ti_sysbios_family_c66_Cache_Module_startup__E
0c0241c0   ti_sysbios_family_c66_Cache_Module_startup__F
0c024300   ti_sysbios_gates_GateSwi_enter__E
0c024440   ti_sysbios_knl_Clock_Instance_finalize__F
0c024580   ti_sysbios_knl_Semaphore_Instance_init__F
0c0246c0   ti_sysbios_knl_Swi_post__E
0c024800   ti_sysbios_knl_Task_blockI__E
0c024940   ti_sysbios_knl_Task_yield__E
0c024a80   _closefile
0c024de0   init_Navigator
0c025020   ti_omp_utils_OpenMP_threadSpawnLoop__I
0c025140   ti_sdo_ipc_MessageQ_Module_startup__E
0c025140   ti_sdo_ipc_MessageQ_Module_startup__F
0c025260   ti_sdo_ipc_family_c647x_Interrupt_intRegister__E
0c025260   ti_sdo_ipc_notifyDrivers_NotifyDriverShm_InterruptProxy_intRegister__E
0c025380   ti_sdo_ipc_nsremote_NameServerRemoteNotify_Instance_finalize__F
0c0254a0   xdc_runtime_System_printfExtend__I
0c0255c0   _wrt_ok
0c0256c0   copy_in
0c0257c0   gomp_init_work_share
0c025bc0   ompBufferFree
0c025dc0   siu_ibl_download_core
0c025ec0   gomp_thread_key_create
0c025ec0   ti_omp_utils_ThreadLocal_key_create__E
0c025fc0   ti_sdo_ipc_Notify_Instance_finalize__F
0c0260c0   ti_sdo_ipc_Notify_Object__create__S
0c0261c0   ti_sdo_ipc_SharedRegion_attach__E
0c0261c0   ti_sdo_ipc_SharedRegion_attach__F
0c0262c0   ti_sdo_ipc_SharedRegion_clearReservedMemory__E
0c0262c0   ti_sdo_ipc_SharedRegion_clearReservedMemory__F
0c0263c0   ti_sdo_ipc_family_c647x_Interrupt_Module_startup__E
0c0263c0   ti_sdo_ipc_family_c647x_Interrupt_Module_startup__F
0c0264c0   ti_sdo_ipc_gates_GateHWSem_Module_startup__E
0c0264c0   ti_sdo_ipc_gates_GateHWSem_Module_startup__F
0c0265c0   ti_sdo_ipc_gates_GateMPSupportNull_enter__E
0c0266c0   ti_sdo_ipc_gates_GateMPSupportNull_leave__E
0c0267c0   ti_sdo_ipc_gates_GatePeterson_Object__create__S
0c0268c0   ti_sdo_ipc_nsremote_NameServerRemoteNotify_Object__create__S
0c0269c0   ti_sdo_ipc_MessageQ_SetupTransportProxy_attach__E
0c0269c0   ti_sdo_ipc_transports_TransportShmSetup_attach__E
0c026ac0   ti_sdo_ipc_transports_TransportShm_Object__create__S
0c026bc0   ti_sysbios_family_c64p_Hwi_Object__create__S
0c026cc0   ti_sysbios_gates_GateMutexPri_leave__E
0c026dc0   ti_sysbios_knl_Clock_startI__E
0c026ec0   ti_sysbios_knl_Swi_Object__create__S
0c026fc0   ti_sysbios_knl_Swi_restoreHwi__E
0c0270c0   ti_sysbios_knl_Task_Object__create__S
0c0271c0   xdc_runtime_Core_deleteObject__I
0c0272c0   xdc_runtime_Startup_exec__E
0c0272c0   xdc_runtime_Startup_exec__F
0c0273c0   xdc_runtime_Text_putMod__E
0c0273c0   xdc_runtime_Text_putMod__F
0c0274c0   xdc_runtime_Text_visitRope2__I
0c0275c0   HOSTgetenv
0c0276a0   HOSTlseek
0c027780   HOSTopen
0c027860   __c6xabi_divi
0c027860   __divi
0c027a20   atoi
0c027b00   close
0c027be0   __TI_zero_init
0c027cc0   exit
0c027da0   ltoa
0c027e80   memset
0c027f60   printf
0c028040   queue_pop_elem_wait
0c028120   realloc
0c028200   ti_omp_utils_OpenMP_mainTaskExit__E
0c028200   ti_omp_utils_OpenMP_mainTaskExit__F
0c0282e0   ti_sdo_ipc_GateMP_Object__create__S
0c0283c0   ti_sdo_ipc_ListMP_Object__create__S
0c0284a0   ti_sdo_ipc_family_c647x_Interrupt_intShmStub__I
0c028580   ti_sdo_ipc_Notify_SetupProxy_attach__E
0c028580   ti_sdo_ipc_family_c647x_NotifySetup_attach__E
0c028660   ti_sdo_ipc_gates_GateHWSem_enter__E
0c028740   ti_sdo_ipc_heaps_HeapMemMP_Object__create__S
0c028820   ti_sdo_ipc_notifyDrivers_NotifyDriverShm_Object__create__S
0c028900   ti_sysbios_family_c64p_Hwi_Instance_finalize__F
0c0289e0   ti_sysbios_family_c64p_Hwi_Instance_init__F
0c028ac0   ti_sysbios_knl_Clock_start__E
0c028ba0   ti_sysbios_hal_Timer_TimerProxy_startup__E
0c028ba0   ti_sysbios_hal_Timer_startup__E
0c028ba0   ti_sysbios_timers_timer64_Timer_startup__E
0c028c80   xdc_runtime_Error_print__E
0c028c80   xdc_runtime_Error_print__F
0c028d60   xdc_runtime_Memory_alloc__E
0c028d60   xdc_runtime_Memory_alloc__F
0c028e40   xdc_runtime_knl_GateThread_Object__create__S
0c028f20   Cppi_close
0c028fe0   Cppi_exit
0c0290a0   HOSTread
0c029160   HOSTwrite
0c029220   HeapMemMP_create
0c0292e0   ListMP_create
0c0293a0   SharedRegion_getId
0c029460   __cxa_finalize
0c029520   __c6xabi_divu
0c029520   __divu
0c0295e0   _doflush
0c0296a0   cppi_internal_heap_release
0c029760   gomp_realloc
0c0298e0   pthread_mutex_lock
0c0299a0   pthread_mutex_unlock
0c029a60   pthread_once
0c029b20   ti_omp_utils_ThreadLocal_exitFxn__E
0c029b20   ti_omp_utils_ThreadLocal_exitFxn__F
0c029be0   ti_sdo_ipc_GateMP_getRegion0ReservedSize__E
0c029be0   ti_sdo_ipc_GateMP_getRegion0ReservedSize__F
0c029ca0   ti_sysbios_BIOS_errorRaiseHook__I
0c029d60   ti_sysbios_gates_GateAll_leave__E
0c029e20   ti_sysbios_heaps_HeapMem_getStats__E
0c029ee0   ti_sysbios_knl_Clock_logTick__E
0c029fa0   ti_sysbios_knl_Swi_Instance_finalize__F
0c02a060   ti_sysbios_knl_Task_allBlockedFunction__I
0c02a120   ti_sysbios_timers_timer64_Timer_stop__E
0c02a1e0   __TI_tls_init
0c02a2a0   vfprintf
0c02a360   xdc_runtime_System_formatNum__I
0c02a420   Create_Queue
0c02a4c0   HOSTunlink
0c02a560   Qmss_queueClose
0c02a600   Qmss_startCfg
0c02a740   __c6xabi_remu
0c02a740   __remu
0c02a7e0   _cleanup
0c02aa60   ti_sysbios_family_c64p_Hwi_plug__E
0c02ab00   cppi_internal_heap_malloc
0c02ac40   gomp_team_barrier_wake
0c02ace0   lseek
0c02ad80   memcpy
0c02aec0   queue_push_elem
0c02af60   strerror
0c02b000   ti_omp_utils_ThreadLocalStorage_createFxn__E
0c02b000   ti_omp_utils_ThreadLocalStorage_createFxn__F
0c02b0a0   ti_sdo_ipc_family_c647x_Interrupt_intUnregister__E
0c02b0a0   ti_sdo_ipc_notifyDrivers_NotifyDriverShm_InterruptProxy_intUnregister__E
0c02b140   ti_sdo_ipc_gates_GatePeterson_leave__E
0c02b1e0   ti_sdo_ipc_notifyDrivers_NotifyDriverShm_Instance_finalize__F
0c02b280   ti_sysbios_heaps_HeapMem_init__I
0c02b320   ti_sysbios_knl_Clock_Object__create__S
0c02b3c0   ti_sysbios_knl_Idle_run__E
0c02b460   ti_sysbios_knl_Task_deleteTerminatedTasksFunc__I
0c02b500   write
0c02b5a0   xdc_runtime_Assert_raise__I
0c02b640   xdc_runtime_SysMin_abort__E
0c02b640   xdc_runtime_SysMin_abort__F
0c02b640   xdc_runtime_System_SupportProxy_abort__E
0c02b6e0   xdc_runtime_SysMin_flush__E
0c02b6e0   xdc_runtime_SysMin_flush__F
0c02b6e0   xdc_runtime_System_SupportProxy_flush__E
0c02b6e0   xdc_runtime_System_flush__E
0c02b6e0   xdc_runtime_System_flush__F
0c02b780   xdc_runtime_SysMin_putch__E
0c02b780   xdc_runtime_SysMin_putch__F
0c02b780   xdc_runtime_System_SupportProxy_putch__E
0c02b820   HOSTclose
0c02b8a0   Qmss_getMemRegQueueHandle
0c02b920   Qmss_queueOpen
0c02b9a0   __TI_resource_lock
0c02ba20   __c6xabi_llshl
0c02baa0   ti_sysbios_family_c62_TaskSupport_swap__E
0c02baa0   ti_sysbios_knl_Task_SupportProxy_swap__E
0c02bb20   cppi_list_remove
0c02bba0   gomp_barrier_init
0c02bc20   gomp_new_icv
0c02be20   initialize_critical
0c02bea0   malloc
0c02bfa0   ompBufferAlloc
0c02c020   pthread_mutex_init
0c02c0a0   readmsg
0c02c1a0   ti_omp_utils_HeapOMP_Object__create__S
0c02c220   ti_omp_utils_HeapOMP_alloc__E
0c02c2a0   ti_omp_utils_OpenMP_exitThread__E
0c02c2a0   ti_omp_utils_OpenMP_exitThread__F
0c02c320   ti_omp_utils_OpenMP_setProcId__I
0c02c3a0   ti_sdo_ipc_gates_GateHWSem_Object__create__S
0c02c420   ti_sdo_ipc_gates_GateMPSupportNull_Object__create__S
0c02c4a0   ti_sdo_ipc_nsremote_NameServerRemoteNotify_detach__E
0c02c4a0   ti_sdo_utils_NameServer_SetupProxy_detach__E
0c02c520   ti_sdo_ipc_transports_TransportShm_swiFxn__I
0c02c5a0   ti_sdo_utils_List_Object__create__S
0c02c620   ti_sysbios_BIOS_exitFunc__I
0c02c6a0   ti_sysbios_BIOS_exit__E
0c02c720   ti_sysbios_family_c62_TaskSupport_start__E
0c02c720   ti_sysbios_knl_Task_SupportProxy_start__E
0c02c7a0   ti_sysbios_family_c64p_Exception_Module_startup__E
0c02c7a0   ti_sysbios_family_c64p_Exception_Module_startup__F
0c02c820   ti_sysbios_family_c64p_Hwi_eventMap__E
0c02c8a0   ti_sysbios_family_c66_Cache_invL1pAll__E
0c02c920   ti_sysbios_family_c66_Cache_wbInvAll__E
0c02c920   ti_sysbios_hal_Cache_CacheProxy_wbInvAll__E
0c02c920   ti_sysbios_hal_Cache_wbInvAll__E
0c02c9a0   ti_sysbios_gates_GateAll_Object__create__S
0c02ca20   ti_sysbios_gates_GateHwi_Object__create__S
0c02caa0   ti_sysbios_gates_GateMutexPri_Object__create__S
0c02cb20   ti_sysbios_gates_GateMutex_Object__create__S
0c02cba0   ti_sysbios_gates_GateSwi_Object__create__S
0c02cc20   ti_sysbios_gates_GateSwi_leave__E
0c02cca0   ti_sysbios_hal_Hwi_checkStack
0c02cd20   ti_sysbios_heaps_HeapMem_Object__create__S
0c02cda0   ti_sysbios_knl_Clock_Module_startup__E
0c02cda0   ti_sysbios_knl_Clock_Module_startup__F
0c02ce20   ti_sysbios_knl_Clock_doTick__I
0c02cea0   ti_sysbios_knl_Clock_getTicks__E
0c02cf20   ti_sysbios_knl_Queue_Object__create__S
0c02cfa0   ti_sysbios_knl_Semaphore_Object__create__S
0c02d020   ti_sysbios_knl_Semaphore_pendTimeout__I
0c02d0a0   ti_sysbios_knl_Swi_startup__E
0c02d120   ti_sysbios_knl_Task_restore__E
0c02d1a0   ti_sysbios_timers_timer64_Timer_getCount__E
0c02d1a0   ti_sysbios_timers_timer64_Timer_getExpiredCounts__E
0c02d220   ti_sysbios_timers_timer64_Timer_getPeriod__E
0c02d2a0   ti_sysbios_xdcruntime_GateThreadSupport_Object__create__S
0c02d320   writemsg
0c02d378   C$$IO$$
0c02d3a0   xdc_runtime_Core_assignLabel__I
0c02d420   xdc_runtime_Core_assignParams__I
0c02d4a0   xdc_runtime_SysMin_output__I
0c02d520   xdc_runtime_System_atexit__E
0c02d520   xdc_runtime_System_atexit__F
0c02d5a0   xdc_runtime_System_rtsExit__I
0c02d620   xdc_runtime_Text_printVisFxn__I
0c02d6a0   xdc_runtime_Text_xprintf__I
0c02d720   GateMP_Params_init
0c02d780   HeapMemMP_Params_init
0c02d840   Notify_numIntLines
0c02d8a0   Osal_cppiCsEnter
0c02d900   Osal_qmssCsEnter
0c02d960   __c6xabi_frcmpyd_div
0c02d9c0   __c6xabi_llshru
0c02da20   _subcull
0c02da80   cppi_list_add
0c02dba0   exit_Navigator
0c02dc00   gomp_barrier_wait
0c02dc60   gomp_free
0c02dcc0   gomp_init_task
0c02dd20   gomp_malloc
0c02dd80   gomp_team_barrier_wait
0c02de40   memccpy
0c02dea0   ompBufferMgmtInit
0c02df00   omp_set_num_threads
0c02df60   pthread_mutex_destroy
0c02dfc0   team_destructor
0c02e020   ti_omp_utils_OpenMP_mainTask__I
0c02e080   ti_omp_utils_ThreadLocalStorage_deleteFxn__E
0c02e080   ti_omp_utils_ThreadLocalStorage_deleteFxn__F
0c02e0e0   ti_sdo_ipc_GateMP_Object__delete__S
0c02e140   ti_sdo_ipc_ListMP_Object__delete__S
0c02e1a0   ti_sdo_ipc_Notify_SetupProxy_sharedMemReq__E
0c02e1a0   ti_sdo_ipc_family_c647x_NotifySetup_sharedMemReq__E
0c02e200   ti_sdo_ipc_gates_GateHWSem_leave__E
0c02e260   ti_sdo_ipc_gates_GatePeterson_Instance_finalize__F
0c02e2c0   ti_sdo_ipc_gates_GatePeterson_Object__delete__S
0c02e320   ti_sdo_ipc_GateMP_RemoteCustom1Proxy_sharedMemReq__E
0c02e320   ti_sdo_ipc_gates_GatePeterson_sharedMemReq__E
0c02e380   ti_sdo_ipc_heaps_HeapMemMP_Object__delete__S
0c02e3e0   ti_sdo_ipc_notifyDrivers_NotifyDriverShm_Object__delete__S
0c02e440   ti_sdo_ipc_notifyDrivers_NotifyDriverShm_setNotifyHandle__E
0c02e4a0   ti_sdo_ipc_nsremote_NameServerRemoteNotify_Object__delete__S
0c02e500   ti_sdo_ipc_MessageQ_SetupTransportProxy_sharedMemReq__E
0c02e500   ti_sdo_ipc_transports_TransportShmSetup_sharedMemReq__E
0c02e560   ti_sdo_ipc_transports_TransportShm_Object__delete__S
0c02e5c0   ti_sysbios_BIOS_registerRTSLock__I
0c02e620   ti_sysbios_family_c64p_EventCombiner_Module_startup__E
0c02e620   ti_sysbios_family_c64p_EventCombiner_Module_startup__F
0c02e680   ti_sysbios_family_c64p_EventCombiner_unused__E
0c02e680   ti_sysbios_family_c64p_EventCombiner_unused__F
0c02e6e0   ti_sysbios_family_c64p_Hwi_Object__delete__S
0c02e740   ti_sysbios_family_c66_tci66xx_CpIntc_unused__E
0c02e740   ti_sysbios_family_c66_tci66xx_CpIntc_unused__F
0c02e7a0   ti_sysbios_gates_GateAll_enter__E
0c02e800   ti_sysbios_gates_GateMutexPri_Object__delete__S
0c02e860   ti_sysbios_gates_GateMutex_Instance_init__F
0c02e8c0   ti_sysbios_gates_GateMutex_Object__delete__S
0c02e920   ti_sysbios_hal_Hwi_initStack
0c02e980   ti_sysbios_knl_Swi_Module_startup__E
0c02e980   ti_sysbios_knl_Swi_Module_startup__F
0c02e9e0   ti_sysbios_knl_Task_Object__delete__S
0c02ea40   ti_sysbios_knl_Task_enter__I
0c02eaa0   ti_sysbios_xdcruntime_GateThreadSupport_Object__delete__S
0c02eb00   remove
0c02eb00   unlink
0c02eb60   xdc_runtime_GateNull_Object__create__S
0c02ebc0   xdc_runtime_Memory_calloc__E
0c02ebc0   xdc_runtime_Memory_calloc__F
0c02ec20   xdc_runtime_Memory_valloc__E
0c02ec20   xdc_runtime_Memory_valloc__F
0c02ec80   xdc_runtime_SysMin_Module_startup__E
0c02ec80   xdc_runtime_SysMin_Module_startup__F
0c02ece0   xdc_runtime_SysMin_exit__E
0c02ece0   xdc_runtime_SysMin_exit__F
0c02ece0   xdc_runtime_System_SupportProxy_exit__E
0c02ed40   xdc_runtime_System_aprintf_va__E
0c02ed40   xdc_runtime_System_aprintf_va__F
0c02ed40   xdc_runtime_System_avprintf__E
0c02ed40   xdc_runtime_System_avprintf__F
0c02eda0   xdc_runtime_System_printf_va__E
0c02eda0   xdc_runtime_System_printf_va__F
0c02eda0   xdc_runtime_System_vprintf__E
0c02eda0   xdc_runtime_System_vprintf__F
0c02ee00   xdc_runtime_Text_cordText__E
0c02ee00   xdc_runtime_Text_cordText__F
0c02ee60   xdc_runtime_knl_GateThread_Object__delete__S
0c02eec0   GOMP_barrier
0c02ef00   GOMP_parallel_start
0c02ef40   Osal_cppiFree
0c02ef80   Osal_cppiMalloc
0c02efc0   Osal_qmssBeginMemAccess
0c02f000   Osal_qmssEndMemAccess
0c02f040   Qmss_getMemRegDescSize
0c02f080   Queue_empty
0c02f0c0   __TI_data_synch_WB
0c02f100   __TI_data_synch_WBINV
0c02f140   __TI_resource_unlock
0c02f180   __c6xabi_isinf
0c02f200   _args_main
0c02f240   _system_pre_init
0c02f280   ti_sysbios_family_c62_TaskSupport_buildTaskStack
0c02f2c0   ti_sysbios_family_xxx_Hwi_switchToIsrStack
0c02f300   free
0c02f380   gomp_barrier_destroy
0c02f3c0   gomp_barrier_reinit
0c02f400   gomp_end_task
0c02f440   gomp_error
0c02f480   gomp_fatal
0c02f4c0   gomp_fini_work_share
0c02f540   gomp_thread_create
0c02f600   omp_get_num_threads
0c02f640   pthread_self
0c02f680   rand
0c02f700   ti_omp_utils_HeapOMP_Handle__label__S
0c02f740   ti_omp_utils_HeapOMP_Object__delete__S
0c02f780   ti_omp_utils_HeapOMP_free__E
0c02f7c0   ti_omp_utils_ThreadLocalStorage_switchFxn__E
0c02f7c0   ti_omp_utils_ThreadLocalStorage_switchFxn__F
0c02f800   ti_omp_utils_ThreadLocal_createFxn__E
0c02f800   ti_omp_utils_ThreadLocal_createFxn__F
0c02f840   ti_sdo_ipc_family_c647x_Interrupt_intClear__E
0c02f840   ti_sdo_ipc_notifyDrivers_NotifyDriverShm_InterruptProxy_intClear__E
0c02f880   ti_sdo_ipc_family_c647x_Interrupt_intSend__E
0c02f880   ti_sdo_ipc_notifyDrivers_NotifyDriverShm_InterruptProxy_intSend__E
0c02f8c0   ti_sdo_ipc_gates_GateHWSem_Handle__label__S
0c02f900   ti_sdo_ipc_gates_GateHWSem_Object__delete__S
0c02f940   ti_sdo_ipc_gates_GateMPSupportNull_Handle__label__S
0c02f980   ti_sdo_ipc_gates_GateMPSupportNull_Object__delete__S
0c02f9c0   ti_sdo_ipc_gates_GatePeterson_Handle__label__S
0c02fa00   ti_sdo_ipc_heaps_HeapMemMP_Handle__label__S
0c02fa40   ti_sdo_ipc_notifyDrivers_NotifyDriverShm_Handle__label__S
0c02fa80   ti_sdo_ipc_notifyDrivers_NotifyDriverShm_disable__E
0c02fac0   ti_sdo_ipc_notifyDrivers_NotifyDriverShm_enable__E
0c02fb00   ti_sdo_ipc_nsremote_NameServerRemoteNotify_Handle__label__S
0c02fb40   ti_sdo_ipc_nsremote_NameServerRemoteNotify_sharedMemReq__E
0c02fb40   ti_sdo_utils_NameServer_SetupProxy_sharedMemReq__E
0c02fb80   ti_sdo_ipc_transports_TransportShm_Handle__label__S
0c02fbc0   ti_sdo_utils_NameServer_Module__startupDone__F
0c02fbc0   ti_sdo_utils_NameServer_Module__startupDone__S
0c02fc00   ti_sdo_utils_NameServer_Object__get__S
0c02fc40   ti_sysbios_BIOS_startFunc__I
0c02fc80   ti_sysbios_BIOS_start__E
0c02fcc0   ti_sysbios_family_c64p_Hwi_Module__startupDone__F
0c02fcc0   ti_sysbios_family_c64p_Hwi_Module__startupDone__S
0c02fd00   ti_sysbios_family_c64p_Hwi_disableInterrupt__E
0c02fd00   ti_sysbios_hal_Hwi_HwiProxy_disableInterrupt__E
0c02fd00   ti_sysbios_hal_Hwi_disableInterrupt__E
0c02fd40   ti_sysbios_family_c64p_Hwi_enableInterrupt__E
0c02fd40   ti_sysbios_hal_Hwi_HwiProxy_enableInterrupt__E
0c02fd40   ti_sysbios_hal_Hwi_enableInterrupt__E
0c02fd80   ti_sysbios_gates_GateAll_Handle__label__S
0c02fdc0   ti_sysbios_gates_GateAll_Object__delete__S
0c02fe00   ti_sysbios_gates_GateHwi_Handle__label__S
0c02fe40   ti_sysbios_gates_GateHwi_Object__delete__S
0c02fe80   ti_sysbios_gates_GateMutexPri_Handle__label__S
0c02fec0   ti_sysbios_gates_GateMutexPri_Instance_finalize__F
0c02ff00   ti_sysbios_gates_GateMutexPri_Instance_init__F
0c02ff40   ti_sysbios_gates_GateMutexPri_Object__destruct__S
0c02ff80   ti_sysbios_gates_GateMutex_Handle__label__S
0c02ffc0   ti_sysbios_gates_GateMutex_Instance_finalize__F
0c030000   ti_sysbios_gates_GateMutex_leave__E
0c030040   ti_sysbios_gates_GateSwi_Handle__label__S
0c030080   ti_sysbios_gates_GateSwi_Object__delete__S
0c0300c0   ti_sysbios_hal_Timer_Module__startupDone__F
0c0300c0   ti_sysbios_hal_Timer_Module__startupDone__S
0c030100   ti_sysbios_heaps_HeapMem_Handle__label__S
0c030140   ti_sysbios_heaps_HeapMem_Object__delete__S
0c030180   ti_sysbios_heaps_HeapMem_Object__get__S
0c0301c0   ti_sysbios_knl_Clock_Object__destruct__S
0c030200   ti_sysbios_knl_Semaphore_Instance_finalize__F
0c030240   ti_sysbios_knl_Semaphore_Object__destruct__S
0c030280   ti_sysbios_knl_Swi_Object__destruct__S
0c0302c0   ti_sysbios_knl_Swi_Object__get__S
0c030300   ti_sysbios_knl_Task_Object__get__S
0c030340   ti_sysbios_timers_timer64_Timer_Module__startupDone__F
0c030340   ti_sysbios_timers_timer64_Timer_Module__startupDone__S
0c030380   ti_sysbios_xdcruntime_GateThreadSupport_Instance_finalize__F
0c0303c0   ti_sysbios_xdcruntime_GateThreadSupport_Instance_init__F
0c030400   ti_sysbios_xdcruntime_GateThreadSupport_enter__E
0c030400   ti_sysbios_xdcruntime_GateThreadSupport_enter__F
0c030440   ti_sysbios_xdcruntime_GateThreadSupport_leave__E
0c030440   ti_sysbios_xdcruntime_GateThreadSupport_leave__F
0c030480   xdc_runtime_Error_check__E
0c030480   xdc_runtime_Error_check__F
0c0304c0   xdc_runtime_Error_init__E
0c0304c0   xdc_runtime_Error_init__F
0c030500   xdc_runtime_GateNull_Handle__label__S
0c030540   xdc_runtime_GateNull_Object__delete__S
0c030580   xdc_runtime_Gate_leaveSystem__E
0c030580   xdc_runtime_Gate_leaveSystem__F
0c0305c0   xdc_runtime_Memory_free__E
0c0305c0   xdc_runtime_Memory_free__F
0c030600   xdc_runtime_Registry_findById__E
0c030600   xdc_runtime_Registry_findById__F
0c030640   xdc_runtime_System_abort__E
0c030640   xdc_runtime_System_abort__F
0c030680   xdc_runtime_System_aprintf__E
0c0306c0   xdc_runtime_System_printf__E
0c030700   xdc_runtime_Text_ropeText__E
0c030700   xdc_runtime_Text_ropeText__F
0c030740   xdc_runtime_knl_GateThread_Handle__label__S
0c030780   xdc_runtime_knl_GateThread_Instance_finalize__F
0c0307c0   xdc_runtime_knl_GateThread_Instance_init__F
0c030800   Cppi_init
0c030820   GateMP_getDefaultRemote
0c030840   MultiProc_getBaseIdOfCluster
0c030860   MultiProc_getNumProcsInCluster
0c030880   MultiProc_self
0c0308a0   Osal_cppiBeginMemAccess
0c0308c0   Osal_cppiCsExit
0c0308e0   Osal_cppiEndMemAccess
0c030900   Osal_qmssCsExit
0c030920   Qmss_getQueueNumber
0c030940   Qmss_start
0c030960   __TI_data_synch_INV
0c030980   __c6xabi_errno_addr
0c0309a0   __c6xabi_negll
0c0309c0   __cxa_atexit
0c0309e0   __cxa_ia64_exit
0c030a00   __xdc__init
0c030a20   _nop
0c030ac0   _register_lock
0c030ae0   _register_unlock
0c030b00   ti_sysbios_family_c62_TaskSupport_glue
0c030b20   ti_sysbios_family_xxx_Hwi_switchToTaskStack
0c030b40   C$$EXIT
0c030b40   abort
0c030b60   atexit
0c030b80   cppi_list_get_head
0c030ba0   __TI_decompress_none
0c030bc0   __TI_decompress_rle24
0c030c00   getenv
0c030c40   gomp_dynamic_max_threads
0c030c60   gomp_init_affinity
0c030c80   gomp_init_num_threads
0c030ca0   gomp_init_thread_affinity
0c030d20   omp_get_thread_num
0c030d40   pthread_equal
0c030d60   ti_omp_utils_HeapOMP_Instance_init__F
0c030d80   ti_omp_utils_HeapOMP_getStats__E
0c030da0   ti_omp_utils_HeapOMP_isBlocking__E
0c030da0   ti_omp_utils_HeapOMP_isBlocking__F
0c030dc0   ti_omp_utils_OpenMP_useSharedHeap__E
0c030dc0   ti_omp_utils_OpenMP_useSharedHeap__F
0c030de0   ti_omp_utils_ThreadLocalStorage_registerFxn__E
0c030de0   ti_omp_utils_ThreadLocalStorage_registerFxn__F
0c030e00   ti_omp_utils_ThreadLocal_registerFxn__E
0c030e00   ti_omp_utils_ThreadLocal_registerFxn__F
0c030e20   ti_sdo_ipc_GateMP_Params__init__S
0c030e40   ti_sdo_ipc_GateMP_RemoteCustom1Proxy_Object__create__S
0c030e60   ti_sdo_ipc_GateMP_RemoteCustom1Proxy_Object__delete__S
0c030e80   ti_sdo_ipc_GateMP_RemoteCustom1Proxy_Params__init__S
0c030ea0   ti_sdo_ipc_GateMP_RemoteCustom1Proxy_Proxy__abstract__S
0c030ec0   ti_sdo_ipc_GateMP_RemoteCustom1Proxy_Proxy__delegate__S
0c030ee0   ti_sdo_ipc_GateMP_RemoteCustom2Proxy_Object__create__S
0c030f00   ti_sdo_ipc_GateMP_RemoteCustom2Proxy_Object__delete__S
0c030f20   ti_sdo_ipc_GateMP_RemoteCustom2Proxy_Params__init__S
0c030f40   ti_sdo_ipc_GateMP_RemoteCustom2Proxy_Proxy__abstract__S
0c030f60   ti_sdo_ipc_GateMP_RemoteCustom2Proxy_Proxy__delegate__S
0c030f80   ti_sdo_ipc_GateMP_RemoteSystemProxy_Object__create__S
0c030fa0   ti_sdo_ipc_GateMP_RemoteSystemProxy_Object__delete__S
0c030fc0   ti_sdo_ipc_GateMP_RemoteSystemProxy_Params__init__S
0c030fe0   ti_sdo_ipc_GateMP_RemoteSystemProxy_Proxy__abstract__S
0c031000   ti_sdo_ipc_GateMP_RemoteSystemProxy_Proxy__delegate__S
0c031020   ti_sdo_ipc_GateMP_getSharedAddr__E
0c031020   ti_sdo_ipc_GateMP_getSharedAddr__F
0c031040   ti_sdo_ipc_ListMP_Params__init__S
0c031060   ti_sdo_ipc_MessageQ_Object__get__S
0c031080   ti_sdo_ipc_Notify_Module_GateProxy_enter__E
0c0310a0   ti_sdo_ipc_Notify_Module_GateProxy_leave__E
0c0310c0   ti_sdo_ipc_family_c647x_Interrupt_intDisable__E
0c0310c0   ti_sdo_ipc_notifyDrivers_NotifyDriverShm_InterruptProxy_intDisable__E
0c0310e0   ti_sdo_ipc_family_c647x_Interrupt_intEnable__E
0c0310e0   ti_sdo_ipc_notifyDrivers_NotifyDriverShm_InterruptProxy_intEnable__E
0c031100   ti_sdo_ipc_Notify_SetupProxy_numIntLines__E
0c031100   ti_sdo_ipc_family_c647x_NotifySetup_numIntLines__E
0c031120   ti_sdo_ipc_gates_GateHWSem_Params__init__S
0c031140   ti_sdo_ipc_GateMP_RemoteSystemProxy_getReservedMask__E
0c031140   ti_sdo_ipc_gates_GateHWSem_getReservedMask__E
0c031160   ti_sdo_ipc_GateMP_RemoteSystemProxy_query__E
0c031160   ti_sdo_ipc_gates_GateHWSem_query__E
0c031160   ti_sdo_ipc_gates_GateHWSem_query__F
0c031180   ti_sdo_ipc_GateMP_RemoteSystemProxy_sharedMemReq__E
0c031180   ti_sdo_ipc_gates_GateHWSem_sharedMemReq__E
0c0311a0   ti_sdo_ipc_gates_GateMPSupportNull_Instance_init__F
0c0311c0   ti_sdo_ipc_gates_GateMPSupportNull_Params__init__S
0c0311e0   ti_sdo_ipc_GateMP_RemoteCustom2Proxy_getReservedMask__E
0c0311e0   ti_sdo_ipc_gates_GateMPSupportNull_getReservedMask__E
0c031200   ti_sdo_ipc_GateMP_RemoteCustom2Proxy_query__E
0c031200   ti_sdo_ipc_gates_GateMPSupportNull_query__E
0c031200   ti_sdo_ipc_gates_GateMPSupportNull_query__F
0c031220   ti_sdo_ipc_GateMP_RemoteCustom2Proxy_sharedMemReq__E
0c031220   ti_sdo_ipc_gates_GateMPSupportNull_sharedMemReq__E
0c031240   ti_sdo_ipc_gates_GatePeterson_Params__init__S
0c031260   ti_sdo_ipc_GateMP_RemoteCustom1Proxy_getReservedMask__E
0c031260   ti_sdo_ipc_gates_GatePeterson_getReservedMask__E
0c031280   ti_sdo_ipc_GateMP_RemoteCustom1Proxy_query__E
0c031280   ti_sdo_ipc_gates_GatePeterson_query__E
0c031280   ti_sdo_ipc_gates_GatePeterson_query__F
0c0312a0   ti_sdo_ipc_heaps_HeapMemMP_Params__init__S
0c0312c0   ti_sdo_ipc_heaps_HeapMemMP_isBlocking__E
0c0312c0   ti_sdo_ipc_heaps_HeapMemMP_isBlocking__F
0c0312e0   ti_sdo_ipc_notifyDrivers_NotifyDriverShm_Params__init__S
0c031300   ti_sdo_ipc_nsremote_NameServerRemoteNotify_Object__first__S
0c031320   ti_sdo_ipc_nsremote_NameServerRemoteNotify_Object__next__S
0c031340   ti_sdo_ipc_nsremote_NameServerRemoteNotify_Params__init__S
0c031360   ti_sdo_ipc_nsremote_NameServerRemoteNotify_cbFxn__I
0c031380   ti_sdo_ipc_MessageQ_SetupTransportProxy_isRegistered__E
0c031380   ti_sdo_ipc_transports_TransportShmSetup_isRegistered__E
0c0313a0   ti_sdo_ipc_transports_TransportShm_Params__init__S
0c0313c0   ti_sdo_ipc_transports_TransportShm_control__E
0c0313e0   ti_sdo_ipc_transports_TransportShm_getStatus__E
0c031400   ti_sdo_ipc_transports_TransportShm_notifyFxn__I
0c031420   ti_sdo_ipc_transports_TransportShm_setErrFxn__E
0c031420   ti_sdo_ipc_transports_TransportShm_setErrFxn__F
0c031440   ti_sdo_utils_List_Instance_init__F
0c031460   ti_sdo_utils_List_Object__destruct__S
0c031480   ti_sdo_utils_List_Object__get__S
0c0314a0   ti_sdo_utils_MultiProc_getClusterId__E
0c0314a0   ti_sdo_utils_MultiProc_getClusterId__F
0c0314c0   ti_sdo_utils_NameServer_Object__first__S
0c0314e0   ti_sdo_utils_NameServer_Object__next__S
0c031500   ti_sysbios_BIOS_RtsGateProxy_enter__E
0c031520   ti_sysbios_BIOS_RtsGateProxy_leave__E
0c031540   ti_sysbios_BIOS_getThreadType__E
0c031560   ti_sysbios_BIOS_setThreadType__E
0c031580   ti_sysbios_family_c62_TaskSupport_Module__startupDone__S
0c0315a0   ti_sysbios_family_c62_TaskSupport_getStackAlignment__E
0c0315a0   ti_sysbios_knl_Task_SupportProxy_getStackAlignment__E
0c0315c0   ti_sysbios_family_c64p_Hwi_Params__init__S
0c0315e0   ti_sysbios_family_c64p_Hwi_clearInterrupt__E
0c0315e0   ti_sysbios_hal_Hwi_HwiProxy_clearInterrupt__E
0c0315e0   ti_sysbios_hal_Hwi_clearInterrupt__E
0c031600   ti_sysbios_family_c64p_Hwi_getHandle__E
0c031620   ti_sysbios_family_c64p_Hwi_startup__E
0c031620   ti_sysbios_hal_Hwi_HwiProxy_startup__E
0c031620   ti_sysbios_hal_Hwi_startup__E
0c031640   ti_sysbios_family_c64p_Hwi_switchFromBootStack__E
0c031640   ti_sysbios_hal_Hwi_HwiProxy_switchFromBootStack__E
0c031640   ti_sysbios_hal_Hwi_switchFromBootStack__E
0c031660   ti_sysbios_family_c64p_Hwi_unPluggedInterrupt__I
0c031680   ti_sysbios_family_c64p_TimestampProvider_Module_startup__E
0c031680   ti_sysbios_family_c64p_TimestampProvider_Module_startup__F
0c0316a0   ti_sysbios_family_c64p_TimestampProvider_get32__E
0c0316a0   xdc_runtime_Timestamp_SupportProxy_get32__E
0c0316a0   xdc_runtime_Timestamp_get32__E
0c0316a0   xdc_runtime_Timestamp_get32__F
0c0316c0   ti_sysbios_family_c64p_tci6488_TimerSupport_enable__E
0c0316c0   ti_sysbios_timers_timer64_Timer_TimerSupportProxy_enable__E
0c0316e0   ti_sysbios_family_c66_Cache_inv__E
0c0316e0   ti_sysbios_hal_Cache_CacheProxy_inv__E
0c0316e0   ti_sysbios_hal_Cache_inv__E
0c031700   ti_sysbios_family_c66_Cache_wbInv__E
0c031700   ti_sysbios_hal_Cache_CacheProxy_wbInv__E
0c031700   ti_sysbios_hal_Cache_wbInv__E
0c031720   ti_sysbios_gates_GateAll_Instance_init__F
0c031740   ti_sysbios_gates_GateAll_query__E
0c031740   ti_sysbios_gates_GateAll_query__F
0c031760   ti_sysbios_gates_GateHwi_Instance_init__F
0c031780   ti_sysbios_gates_GateHwi_enter__E
0c0317a0   ti_sysbios_gates_GateHwi_leave__E
0c0317c0   ti_sysbios_gates_GateHwi_query__E
0c0317c0   ti_sysbios_gates_GateHwi_query__F
0c0317c0   xdc_runtime_Main_Module_GateProxy_query__E
0c0317c0   xdc_runtime_System_Module_GateProxy_query__E
0c0317e0   ti_sysbios_gates_GateMutexPri_query__E
0c0317e0   ti_sysbios_gates_GateMutexPri_query__F
0c0317e0   ti_sysbios_xdcruntime_GateProcessSupport_query__F
0c0317e0   ti_sysbios_xdcruntime_GateThreadSupport_query__E
0c0317e0   ti_sysbios_xdcruntime_GateThreadSupport_query__F
0c0317e0   xdc_runtime_knl_GateThread_Proxy_query__E
0c0317e0   xdc_runtime_knl_GateThread_query__E
0c0317e0   xdc_runtime_knl_GateThread_query__F
0c031800   ti_sysbios_BIOS_RtsGateProxy_query__E
0c031800   ti_sysbios_gates_GateMutex_query__E
0c031800   ti_sysbios_gates_GateMutex_query__F
0c031800   ti_sysbios_heaps_HeapMem_Module_GateProxy_query__E
0c031820   ti_sysbios_gates_GateSwi_Instance_init__F
0c031840   ti_sdo_ipc_Notify_Module_GateProxy_query__E
0c031840   ti_sysbios_gates_GateSwi_query__E
0c031840   ti_sysbios_gates_GateSwi_query__F
0c031860   ti_sysbios_hal_Hwi_HwiProxy_Module__startupDone__S
0c031880   ti_sysbios_hal_Hwi_Module_startup__E
0c031880   ti_sysbios_hal_Hwi_Module_startup__F
0c0318a0   ti_sysbios_hal_Timer_Module_startup__E
0c0318a0   ti_sysbios_hal_Timer_Module_startup__F
0c0318c0   ti_sysbios_hal_Timer_TimerProxy_Module__startupDone__S
0c0318e0   ti_sysbios_hal_Timer_TimerProxy_getExpiredCounts__E
0c031900   ti_sysbios_hal_Timer_TimerProxy_getPeriod__E
0c031920   ti_sysbios_hal_Timer_TimerProxy_setNextTick__E
0c031940   ti_sysbios_heaps_HeapBuf_Object__get__S
0c031960   ti_sysbios_heaps_HeapMem_Module_GateProxy_enter__E
0c031980   ti_sysbios_heaps_HeapMem_Module_GateProxy_leave__E
0c0319a0   ti_sysbios_heaps_HeapMem_isBlocking__E
0c0319c0   ti_sysbios_knl_Clock_Params__init__S
0c0319e0   ti_sysbios_knl_Idle_loop__E
0c031a00   ti_sysbios_knl_Queue_Instance_init__F
0c031a20   ti_sysbios_knl_Queue_Object__destruct__S
0c031a40   ti_sysbios_knl_Queue_Object__get__S
0c031a60   ti_sysbios_knl_Queue_empty__E
0c031a80   ti_sysbios_knl_Semaphore_Params__init__S
0c031aa0   ti_sysbios_knl_Swi_Params__init__S
0c031ac0   ti_sysbios_knl_Swi_disable__E
0c031ae0   ti_sysbios_knl_Task_Object__first__S
0c031b00   ti_sysbios_knl_Task_Object__next__S
0c031b20   ti_sysbios_knl_Task_Params__init__S
0c031b40   ti_sysbios_knl_Task_SupportProxy_Module__startupDone__S
0c031b60   ti_sysbios_knl_Task_disable__E
0c031b80   ti_sysbios_knl_Task_getHookContext__E
0c031ba0   ti_sysbios_knl_Task_getPri__E
0c031bc0   ti_sysbios_knl_Task_self__E
0c031be0   ti_sysbios_knl_Task_setHookContext__E
0c031c00   ti_sysbios_knl_Task_startup__E
0c031c20   ti_sysbios_timers_timer64_Timer_setNextTick__E
0c031c40   __TI_tls_block_size
0c031c60   __c6xabi_get_tp
0c031c80   xdc_runtime_GateNull_enter__E
0c031c80   xdc_runtime_GateNull_enter__F
0c031ca0   xdc_runtime_GateNull_leave__E
0c031ca0   xdc_runtime_GateNull_leave__F
0c031cc0   xdc_runtime_GateNull_query__E
0c031cc0   xdc_runtime_GateNull_query__F
0c031ce0   xdc_runtime_Gate_enterSystem__E
0c031ce0   xdc_runtime_Gate_enterSystem__F
0c031d40   xdc_runtime_Memory_HeapProxy_alloc__E
0c031d60   xdc_runtime_Memory_HeapProxy_free__E
0c031d80   xdc_runtime_Memory_getMaxDefaultTypeAlign__E
0c031d80   xdc_runtime_Memory_getMaxDefaultTypeAlign__F
0c031da0   xdc_runtime_Startup_Module__startupDone__S
0c031dc0   xdc_runtime_Startup_exec__I
0c031de0   xdc_runtime_Startup_reset__I
0c031e00   xdc_runtime_Startup_rtsDone__E
0c031e00   xdc_runtime_Startup_rtsDone__F
0c031e20   xdc_runtime_SysMin_ready__E
0c031e20   xdc_runtime_SysMin_ready__F
0c031e20   xdc_runtime_System_SupportProxy_ready__E
0c031e40   xdc_runtime_System_Module_GateProxy_enter__E
0c031e60   xdc_runtime_System_Module_GateProxy_leave__E
0c031e80   xdc_runtime_System_Module_startup__E
0c031e80   xdc_runtime_System_Module_startup__F
0c031ea0   xdc_runtime_System_exit__E
0c031ea0   xdc_runtime_System_exit__F
0c031ec0   xdc_runtime_System_lastFxn__I
0c031ee0   xdc_runtime_System_sprintf_va__E
0c031ee0   xdc_runtime_System_sprintf_va__F
0c031ee0   xdc_runtime_System_vsprintf__E
0c031ee0   xdc_runtime_System_vsprintf__F
0c031f00   xdc_runtime_Text_visitRope__I
0c031f20   xdc_runtime_knl_GateThread_Module__startupDone__S
0c031f40   xdc_runtime_knl_GateThread_Proxy_Object__create__S
0c031f60   xdc_runtime_knl_GateThread_Proxy_Object__delete__S
0c031f80   xdc_runtime_knl_GateThread_Proxy_enter__E
0c031fa0   xdc_runtime_knl_GateThread_Proxy_leave__E
0c031fc0   xdc_runtime_knl_GateThread_enter__E
0c031fc0   xdc_runtime_knl_GateThread_enter__F
0c031fe0   xdc_runtime_knl_GateThread_leave__E
0c031fe0   xdc_runtime_knl_GateThread_leave__F
0c032000   xdc_runtime_Text_charTab__A
0c034dd0   ti_sysbios_family_c66_Cache_marvalues__C
0c0357a0   xdc_runtime_Text_nodeTab__A
0c035948   _ctypes_
0c035b2c   ti_omp_utils_OpenMP_baseIdOfCluster__C
0c035b30   ti_sysbios_family_c66_tci66xx_CpIntc_sysIntToHostInt__A
0c035cf4   ti_omp_utils_OpenMP_cppiHwSem__C
0c035cf8   xdc_runtime_Startup_sfxnTab__A
0c035dd8   ti_sysbios_knl_Task_Object__PARAMS__C
0c035e14   ti_sdo_ipc_notifyDrivers_NotifyDriverShm_Module__FXNS__C
0c035e4c   ti_sdo_ipc_GateMP_Object__PARAMS__C
0c035e80   ti_sdo_ipc_notifyDrivers_NotifyDriverShm_Object__PARAMS__C
0c035eb4   ti_sdo_ipc_heaps_HeapMemMP_Object__PARAMS__C
0c035ee4   ti_sysbios_family_c64p_Hwi_Object__PARAMS__C
0c035f14   ti_omp_utils_OpenMP_masterFxn__C
0c035f18   ti_sysbios_knl_Task_hooks__A
0c035f74   ti_sdo_ipc_ListMP_Object__PARAMS__C
0c035fa0   ti_sdo_ipc_gates_GateHWSem_Module__FXNS__C
0c035fcc   ti_sdo_ipc_gates_GateMPSupportNull_Module__FXNS__C
0c035ff8   ti_sdo_ipc_gates_GatePeterson_Module__FXNS__C
0c036024   ti_omp_utils_HeapOMP_Module__FXNS__C
0c03604c   ti_sdo_ipc_heaps_HeapMemMP_Module__FXNS__C
0c036074   ti_sdo_ipc_nsremote_NameServerRemoteNotify_Module__FXNS__C
0c03609c   ti_sdo_ipc_transports_TransportShm_Module__FXNS__C
0c0360c4   ti_sdo_ipc_transports_TransportShm_Object__PARAMS__C
0c0360ec   ti_sysbios_heaps_HeapMem_Module__FXNS__C
0c036114   ti_sysbios_knl_Swi_Object__PARAMS__C
0c03613c   ti_omp_utils_OpenMP_mpaxIndex__C
0c036140   xdc_runtime_Startup_sfxnRts__A
0c036190   ti_sdo_ipc_gates_GateHWSem_Object__PARAMS__C
0c0361b4   ti_sdo_ipc_gates_GateMPSupportNull_Object__PARAMS__C
0c0361d8   ti_sdo_ipc_gates_GatePeterson_Object__PARAMS__C
0c0361fc   ti_sysbios_gates_GateAll_Module__FXNS__C
0c036220   ti_sysbios_gates_GateHwi_Module__FXNS__C
0c036244   ti_sysbios_gates_GateMutexPri_Module__FXNS__C
0c036268   ti_sysbios_gates_GateMutex_Module__FXNS__C
0c03628c   ti_sysbios_gates_GateSwi_Module__FXNS__C
0c0362b0   ti_sysbios_heaps_HeapMem_Object__PARAMS__C
0c0362d4   ti_sysbios_knl_Clock_Object__PARAMS__C
0c0362f8   ti_sysbios_knl_Semaphore_Object__PARAMS__C
0c03631c   xdc_runtime_GateNull_Module__FXNS__C
0c036340   xdc_runtime_knl_GateThread_Module__FXNS__C
0c0363cc   ti_omp_utils_HeapOMP_Object__DESC__C
0c0363ec   ti_omp_utils_HeapOMP_Object__PARAMS__C
0c03640c   ti_sdo_ipc_GateMP_Object__DESC__C
0c03642c   ti_sdo_ipc_ListMP_Object__DESC__C
0c03644c   ti_sdo_ipc_Notify_Object__DESC__C
0c03646c   ti_sdo_ipc_gates_GateHWSem_Object__DESC__C
0c03648c   ti_sdo_ipc_gates_GateMPSupportNull_Object__DESC__C
0c0364ac   ti_sdo_ipc_gates_GatePeterson_Object__DESC__C
0c0364cc   ti_sdo_ipc_heaps_HeapMemMP_Object__DESC__C
0c0364ec   ti_sdo_ipc_notifyDrivers_NotifyDriverShm_Object__DESC__C
0c03650c   ti_sdo_ipc_nsremote_NameServerRemoteNotify_Object__DESC__C
0c03652c   ti_sdo_ipc_nsremote_NameServerRemoteNotify_Object__PARAMS__C
0c03654c   ti_sdo_ipc_transports_TransportShm_Object__DESC__C
0c03656c   ti_sdo_utils_List_Object__DESC__C
0c03658c   ti_sysbios_family_c64p_Hwi_Object__DESC__C
0c0365ac   ti_sysbios_gates_GateAll_Object__DESC__C
0c0365cc   ti_sysbios_gates_GateHwi_Object__DESC__C
0c0365ec   ti_sysbios_gates_GateMutexPri_Object__DESC__C
0c03660c   ti_sysbios_gates_GateMutex_Object__DESC__C
0c03662c   ti_sysbios_gates_GateSwi_Object__DESC__C
0c03664c   ti_sysbios_heaps_HeapMem_Object__DESC__C
0c03666c   ti_sysbios_knl_Clock_Object__DESC__C
0c03668c   ti_sysbios_knl_Queue_Object__DESC__C
0c0366ac   ti_sysbios_knl_Semaphore_Object__DESC__C
0c0366cc   ti_sysbios_knl_Swi_Object__DESC__C
0c0366ec   ti_sysbios_knl_Task_Object__DESC__C
0c03670c   ti_sysbios_xdcruntime_GateThreadSupport_Object__DESC__C
0c03672c   xdc_runtime_GateNull_Object__DESC__C
0c03674c   xdc_runtime_knl_GateThread_Object__DESC__C
0c03676c   ti_sdo_ipc_Notify_Object__PARAMS__C
0c036784   ti_sdo_utils_List_Object__PARAMS__C
0c03679c   ti_sysbios_gates_GateAll_Object__PARAMS__C
0c0367b4   ti_sysbios_gates_GateHwi_Object__PARAMS__C
0c0367cc   ti_sysbios_gates_GateMutexPri_Object__PARAMS__C
0c0367e4   ti_sysbios_gates_GateMutex_Object__PARAMS__C
0c0367fc   ti_sysbios_gates_GateSwi_Object__PARAMS__C
0c036814   ti_sysbios_knl_Queue_Object__PARAMS__C
0c03682c   ti_sysbios_xdcruntime_GateThreadSupport_Object__PARAMS__C
0c036844   xdc_runtime_GateNull_Object__PARAMS__C
0c03685c   xdc_runtime_knl_GateThread_Object__PARAMS__C
0c036874   ti_sysbios_family_c66_Cache_initSize__C
0c036894   ti_omp_utils_OpenMP_mpaxRaddr__C
0c036898   ti_sdo_ipc_family_c647x_MultiProcSetup_procMap__A
0c0368a8   ti_sysbios_family_c64p_EventCombiner_EVTMASK__C
0c0368b8   xdc_runtime_Startup_firstFxns__A
0c0368e4   ti_omp_utils_OpenMP_noncachedMsmcAlias__C
0c0368e8   ti_sysbios_knl_Idle_coreList__A
0c0368f0   ti_sysbios_knl_Idle_coreList__C
0c0368f8   ti_sysbios_knl_Idle_funcList__A
0c036900   ti_sysbios_knl_Idle_funcList__C
0c036908   ti_sysbios_knl_Task_hooks__C
0c036910   xdc_runtime_Startup_firstFxns__C
0c036918   xdc_runtime_Startup_lastFxns__A
0c036920   xdc_runtime_Startup_lastFxns__C
0c036928   ti_omp_utils_OpenMP_ompHwSemMem__C
0c03692c   ti_omp_utils_OpenMP_ompHwSemMutex__C
0c036930   ti_omp_utils_OpenMP_ompHwSem__C
0c036934   ti_omp_utils_OpenMP_qmssDestQueueNum__C
0c036938   ti_omp_utils_OpenMP_qmssHwSem__C
0c03693c   ti_omp_utils_OpenMP_qmssMemRegion__C
0c036940   ti_omp_utils_OpenMP_qmssStartIndex__C
0c036944   ti_omp_utils_OpenMP_stackRegionId__C
0c036948   ti_omp_utils_OpenMP_stackSize__C
0c03694c   ti_omp_utils_OpenMP_threadPriority__C
0c036950   ti_omp_utils_ThreadLocal_A_invalidContext__C
0c036954   ti_omp_utils_ThreadLocal_A_invalidKey__C
0c036958   ti_omp_utils_ThreadLocal_Module__diagsEnabled__C
0c03695c   ti_omp_utils_ThreadLocal_Module__diagsIncluded__C
0c036960   ti_omp_utils_ThreadLocal_Module__diagsMask__C
0c036964   ti_sdo_ipc_GateMP_A_invalidClose__C
0c036968   ti_sdo_ipc_GateMP_A_invalidDelete__C
0c03696c   ti_sdo_ipc_GateMP_E_gateUnavailable__C
0c036970   ti_sdo_ipc_GateMP_E_localGate__C
0c036974   ti_sdo_ipc_GateMP_LM_create__C
0c036978   ti_sdo_ipc_GateMP_LM_delete__C
0c03697c   ti_sdo_ipc_GateMP_LM_enter__C
0c036980   ti_sdo_ipc_GateMP_LM_leave__C
0c036984   ti_sdo_ipc_GateMP_LM_open__C
0c036988   ti_sdo_ipc_GateMP_Module__diagsEnabled__C
0c03698c   ti_sdo_ipc_GateMP_Module__diagsIncluded__C
0c036990   ti_sdo_ipc_GateMP_Module__diagsMask__C
0c036994   ti_sdo_ipc_GateMP_Module__loggerFxn2__C
0c036998   ti_sdo_ipc_GateMP_Module__loggerFxn4__C
0c03699c   ti_sdo_ipc_GateMP_Module__loggerObj__C
0c0369a0   ti_sdo_ipc_Ipc_A_addrNotCacheAligned__C
0c0369a4   ti_sdo_ipc_Ipc_A_addrNotInSharedRegion__C
0c0369a8   ti_sdo_ipc_Ipc_A_internal__C
0c0369ac   ti_sdo_ipc_Ipc_A_invArgument__C
0c0369b0   ti_sdo_ipc_Ipc_A_invParam__C
0c0369b4   ti_sdo_ipc_Ipc_A_nullArgument__C
0c0369b8   ti_sdo_ipc_Ipc_A_nullPointer__C
0c0369bc   ti_sdo_ipc_Ipc_E_internal__C
0c0369c0   ti_sdo_ipc_Ipc_E_nameFailed__C
0c0369c4   ti_sdo_ipc_Ipc_E_versionMismatch__C
0c0369c8   ti_sdo_ipc_Ipc_Module__diagsEnabled__C
0c0369cc   ti_sdo_ipc_Ipc_Module__diagsIncluded__C
0c0369d0   ti_sdo_ipc_Ipc_Module__diagsMask__C
0c0369d4   ti_sdo_ipc_Ipc_numUserFxns__C
0c0369d8   ti_sdo_ipc_Ipc_procSync__C
0c0369dc   ti_sdo_ipc_Ipc_userFxns__C
0c0369e0   ti_sdo_ipc_ListMP_Module__diagsEnabled__C
0c0369e4   ti_sdo_ipc_ListMP_Module__diagsIncluded__C
0c0369e8   ti_sdo_ipc_ListMP_Module__diagsMask__C
0c0369ec   ti_sdo_ipc_MessageQ_A_invalidMsg__C
0c0369f0   ti_sdo_ipc_MessageQ_A_invalidObj__C
0c0369f4   ti_sdo_ipc_MessageQ_A_invalidQueueId__C
0c0369f8   ti_sdo_ipc_MessageQ_A_procIdInvalid__C
0c0369fc   ti_sdo_ipc_MessageQ_A_unregisteredTransport__C
0c036a00   ti_sdo_ipc_MessageQ_Instance_State_highList__O
0c036a04   ti_sdo_ipc_MessageQ_Instance_State_normalList__O
0c036a08   ti_sdo_ipc_MessageQ_LM_putLocal__C
0c036a0c   ti_sdo_ipc_MessageQ_Module__diagsEnabled__C
0c036a10   ti_sdo_ipc_MessageQ_Module__diagsIncluded__C
0c036a14   ti_sdo_ipc_MessageQ_Module__diagsMask__C
0c036a18   ti_sdo_ipc_MessageQ_Module__loggerFxn4__C
0c036a1c   ti_sdo_ipc_MessageQ_Module__loggerObj__C
0c036a20   ti_sdo_ipc_MessageQ_Object__count__C
0c036a24   ti_sdo_ipc_Notify_A_alreadyRegistered__C
0c036a28   ti_sdo_ipc_Notify_A_internal__C
0c036a2c   ti_sdo_ipc_Notify_A_invArgument__C
0c036a30   ti_sdo_ipc_Notify_A_notRegistered__C
0c036a34   ti_sdo_ipc_Notify_A_reservedEvent__C
0c036a38   ti_sdo_ipc_Notify_Module__diagsEnabled__C
0c036a3c   ti_sdo_ipc_Notify_Module__diagsIncluded__C
0c036a40   ti_sdo_ipc_Notify_Module__diagsMask__C
0c036a44   ti_sdo_ipc_Notify_Module__gateObj__C
0c036a48   ti_sdo_ipc_Notify_Object__heap__C
0c036a4c   ti_sdo_ipc_Notify_numEvents__C
0c036a50   ti_sdo_ipc_Notify_sendEventPollCount__C
0c036a54   ti_sdo_ipc_SharedRegion_A_addrOutOfRange__C
0c036a58   ti_sdo_ipc_SharedRegion_A_idTooLarge__C
0c036a5c   ti_sdo_ipc_SharedRegion_A_noHeap__C
0c036a60   ti_sdo_ipc_SharedRegion_A_region0Invalid__C
0c036a64   ti_sdo_ipc_SharedRegion_A_regionInvalid__C
0c036a68   ti_sdo_ipc_SharedRegion_A_reserveTooMuch__C
0c036a6c   ti_sdo_ipc_SharedRegion_INVALIDSRPTR__C
0c036a70   ti_sdo_ipc_SharedRegion_Module__diagsEnabled__C
0c036a74   ti_sdo_ipc_SharedRegion_Module__diagsIncluded__C
0c036a78   ti_sdo_ipc_SharedRegion_Module__diagsMask__C
0c036a7c   ti_sdo_ipc_SharedRegion_numOffsetBits__C
0c036a80   ti_sdo_ipc_SharedRegion_offsetMask__C
0c036a84   ti_sdo_ipc_family_c647x_Interrupt_INTERDSPINT__C
0c036a88   ti_sdo_ipc_family_c647x_Interrupt_IPCAR0__C
0c036a8c   ti_sdo_ipc_family_c647x_Interrupt_IPCGR0__C
0c036a90   ti_sdo_ipc_family_c647x_Interrupt_KICK0__C
0c036a94   ti_sdo_ipc_family_c647x_Interrupt_KICK1__C
0c036a98   ti_sdo_ipc_family_c647x_MultiProcSetup_procMap__C
0c036a9c   ti_sdo_ipc_family_c647x_NotifySetup_dspIntVectId__C
0c036aa0   ti_sdo_ipc_gates_GateHWSem_A_invSemNum__C
0c036aa4   ti_sdo_ipc_gates_GateHWSem_Module__diagsEnabled__C
0c036aa8   ti_sdo_ipc_gates_GateHWSem_Module__diagsIncluded__C
0c036aac   ti_sdo_ipc_gates_GateHWSem_Module__diagsMask__C
0c036ab0   ti_sdo_ipc_gates_GateHWSem_baseAddr__C
0c036ab4   ti_sdo_ipc_gates_GateHWSem_numSems__C
0c036ab8   ti_sdo_ipc_gates_GateHWSem_reservedMaskArr__A
0c036abc   ti_sdo_ipc_gates_GateHWSem_reservedMaskArr__C
0c036ac0   ti_sdo_ipc_gates_GateMPSupportNull_A_invalidAction__C
0c036ac4   ti_sdo_ipc_gates_GateMPSupportNull_Module__diagsEnabled__C
0c036ac8   ti_sdo_ipc_gates_GateMPSupportNull_Module__diagsIncluded__C
0c036acc   ti_sdo_ipc_gates_GateMPSupportNull_Module__diagsMask__C
0c036ad0   ti_sdo_ipc_gates_GateMPSupportNull_action__C
0c036ad4   ti_sdo_ipc_gates_GatePeterson_E_gateRemotelyOpened__C
0c036ad8   ti_sdo_ipc_gates_GatePeterson_Module__diagsEnabled__C
0c036adc   ti_sdo_ipc_gates_GatePeterson_Module__diagsIncluded__C
0c036ae0   ti_sdo_ipc_gates_GatePeterson_Module__diagsMask__C
0c036ae4   ti_sdo_ipc_gates_GatePeterson_numInstances__C
0c036ae8   ti_sdo_ipc_heaps_HeapMemMP_A_align__C
0c036aec   ti_sdo_ipc_heaps_HeapMemMP_A_heapSize__C
0c036af0   ti_sdo_ipc_heaps_HeapMemMP_A_invalidFree__C
0c036af4   ti_sdo_ipc_heaps_HeapMemMP_A_zeroBlock__C
0c036af8   ti_sdo_ipc_heaps_HeapMemMP_E_memory__C
0c036afc   ti_sdo_ipc_heaps_HeapMemMP_Module__diagsEnabled__C
0c036b00   ti_sdo_ipc_heaps_HeapMemMP_Module__diagsIncluded__C
0c036b04   ti_sdo_ipc_heaps_HeapMemMP_Module__diagsMask__C
0c036b08   ti_sdo_ipc_interfaces_IGateMPSupport_Interface__BASE__C
0c036b0c   ti_sdo_ipc_interfaces_IMessageQTransport_Interface__BASE__C
0c036b10   ti_sdo_ipc_interfaces_INotifyDriver_Interface__BASE__C
0c036b14   ti_sdo_ipc_notifyDrivers_NotifyDriverShm_Module__diagsEnabled__C
0c036b18   ti_sdo_ipc_notifyDrivers_NotifyDriverShm_Module__diagsIncluded__C
0c036b1c   ti_sdo_ipc_notifyDrivers_NotifyDriverShm_Module__diagsMask__C
0c036b20   ti_sdo_ipc_notifyDrivers_NotifyDriverShm_Object__heap__C
0c036b24   ti_sdo_ipc_nsremote_NameServerRemoteNotify_A_invalidValueLen__C
0c036b28   ti_sdo_ipc_nsremote_NameServerRemoteNotify_Instance_State_semMultiBlock__O
0c036b2c   ti_sdo_ipc_nsremote_NameServerRemoteNotify_Instance_State_semRemoteWait__O
0c036b30   ti_sdo_ipc_nsremote_NameServerRemoteNotify_Instance_State_swiObj__O
0c036b34   ti_sdo_ipc_nsremote_NameServerRemoteNotify_Module__diagsEnabled__C
0c036b38   ti_sdo_ipc_nsremote_NameServerRemoteNotify_Module__diagsIncluded__C
0c036b3c   ti_sdo_ipc_nsremote_NameServerRemoteNotify_Module__diagsMask__C
0c036b40   ti_sdo_ipc_nsremote_NameServerRemoteNotify_notifyEventId__C
0c036b44   ti_sdo_ipc_nsremote_NameServerRemoteNotify_timeout__C
0c036b48   ti_sdo_ipc_transports_TransportShmSetup_priority__C
0c036b4c   ti_sdo_ipc_transports_TransportShm_Instance_State_swiObj__O
0c036b50   ti_sdo_ipc_transports_TransportShm_Module__diagsEnabled__C
0c036b54   ti_sdo_ipc_transports_TransportShm_Module__diagsIncluded__C
0c036b58   ti_sdo_ipc_transports_TransportShm_Module__diagsMask__C
0c036b5c   ti_sdo_utils_INameServerRemote_Interface__BASE__C
0c036b60   ti_sdo_utils_MultiProc_A_invalidMultiProcId__C
0c036b64   ti_sdo_utils_MultiProc_Module__diagsEnabled__C
0c036b68   ti_sdo_utils_MultiProc_Module__diagsIncluded__C
0c036b6c   ti_sdo_utils_MultiProc_Module__diagsMask__C
0c036b70   ti_sdo_utils_NameServer_A_invArgument__C
0c036b74   ti_sdo_utils_NameServer_A_invalidLen__C
0c036b78   ti_sdo_utils_NameServer_E_entryExists__C
0c036b7c   ti_sdo_utils_NameServer_E_maxReached__C
0c036b80   ti_sdo_utils_NameServer_Instance_State_freeList__O
0c036b84   ti_sdo_utils_NameServer_Instance_State_nameList__O
0c036b88   ti_sdo_utils_NameServer_Module__diagsEnabled__C
0c036b8c   ti_sdo_utils_NameServer_Module__diagsIncluded__C
0c036b90   ti_sdo_utils_NameServer_Module__diagsMask__C
0c036b94   ti_sdo_utils_NameServer_Object__count__C
0c036b98   ti_sysbios_BIOS_Module__diagsEnabled__C
0c036b9c   ti_sysbios_BIOS_Module__diagsIncluded__C
0c036ba0   ti_sysbios_BIOS_Module__diagsMask__C
0c036ba4   ti_sysbios_BIOS_installedErrorHook__C
0c036ba8   ti_sysbios_family_c62_TaskSupport_stackAlignment__C
0c036bac   ti_sysbios_family_c64p_EventCombiner_E_unpluggedEvent__C
0c036bb0   ti_sysbios_family_c64p_Exception_E_exceptionMin__C
0c036bb4   ti_sysbios_family_c64p_Exception_exceptionHook__C
0c036bb8   ti_sysbios_family_c64p_Exception_externalHook__C
0c036bbc   ti_sysbios_family_c64p_Exception_internalHook__C
0c036bc0   ti_sysbios_family_c64p_Exception_nmiHook__C
0c036bc4   ti_sysbios_family_c64p_Hwi_E_alreadyDefined__C
0c036bc8   ti_sysbios_family_c64p_Hwi_E_handleNotFound__C
0c036bcc   ti_sysbios_family_c64p_Hwi_LD_end__C
0c036bd0   ti_sysbios_family_c64p_Hwi_LM_begin__C
0c036bd4   ti_sysbios_family_c64p_Hwi_Module__diagsEnabled__C
0c036bd8   ti_sysbios_family_c64p_Hwi_Module__diagsIncluded__C
0c036bdc   ti_sysbios_family_c64p_Hwi_Module__diagsMask__C
0c036be0   ti_sysbios_family_c64p_Hwi_Module__loggerFxn1__C
0c036be4   ti_sysbios_family_c64p_Hwi_Module__loggerFxn8__C
0c036be8   ti_sysbios_family_c64p_Hwi_Module__loggerObj__C
0c036bec   ti_sysbios_family_c66_Cache_atomicBlockSize__C
0c036bf0   ti_sysbios_family_c66_tci66xx_CpIntc_E_unpluggedSysInt__C
0c036bf4   ti_sysbios_family_c66_tci66xx_CpIntc_numStatusRegs__C
0c036bf8   ti_sysbios_family_c66_tci66xx_CpIntc_numSysInts__C
0c036bfc   ti_sysbios_family_c66_tci66xx_CpIntc_sysIntToHostInt__C
0c036c00   ti_sysbios_gates_GateMutexPri_A_badContext__C
0c036c04   ti_sysbios_gates_GateMutexPri_Instance_State_pendQ__O
0c036c08   ti_sysbios_gates_GateMutexPri_Module__diagsEnabled__C
0c036c0c   ti_sysbios_gates_GateMutexPri_Module__diagsIncluded__C
0c036c10   ti_sysbios_gates_GateMutexPri_Module__diagsMask__C
0c036c14   ti_sysbios_gates_GateMutex_A_badContext__C
0c036c18   ti_sysbios_gates_GateMutex_Instance_State_sem__O
0c036c1c   ti_sysbios_gates_GateMutex_Module__diagsEnabled__C
0c036c20   ti_sysbios_gates_GateMutex_Module__diagsIncluded__C
0c036c24   ti_sysbios_gates_GateMutex_Module__diagsMask__C
0c036c28   ti_sysbios_gates_GateSwi_A_badContext__C
0c036c2c   ti_sysbios_gates_GateSwi_Module__diagsEnabled__C
0c036c30   ti_sysbios_gates_GateSwi_Module__diagsIncluded__C
0c036c34   ti_sysbios_gates_GateSwi_Module__diagsMask__C
0c036c38   ti_sysbios_hal_Hwi_E_stackOverflow__C
0c036c3c   ti_sysbios_heaps_HeapBuf_Instance_State_freeList__O
0c036c40   ti_sysbios_heaps_HeapBuf_Object__count__C
0c036c44   ti_sysbios_heaps_HeapBuf_numConstructedHeaps__C
0c036c48   ti_sysbios_heaps_HeapMem_A_align__C
0c036c4c   ti_sysbios_heaps_HeapMem_A_heapSize__C
0c036c50   ti_sysbios_heaps_HeapMem_A_invalidFree__C
0c036c54   ti_sysbios_heaps_HeapMem_A_zeroBlock__C
0c036c58   ti_sysbios_heaps_HeapMem_E_memory__C
0c036c5c   ti_sysbios_heaps_HeapMem_Module__diagsEnabled__C
0c036c60   ti_sysbios_heaps_HeapMem_Module__diagsIncluded__C
0c036c64   ti_sysbios_heaps_HeapMem_Module__diagsMask__C
0c036c68   ti_sysbios_heaps_HeapMem_Module__gateObj__C
0c036c6c   ti_sysbios_heaps_HeapMem_Object__count__C
0c036c70   ti_sysbios_heaps_HeapMem_reqAlign__C
0c036c74   ti_sysbios_knl_Clock_A_badThreadType__C
0c036c78   ti_sysbios_knl_Clock_LM_begin__C
0c036c7c   ti_sysbios_knl_Clock_LM_tick__C
0c036c80   ti_sysbios_knl_Clock_LW_delayed__C
0c036c84   ti_sysbios_knl_Clock_Module_State_clockQ__O
0c036c88   ti_sysbios_knl_Clock_Module__diagsEnabled__C
0c036c8c   ti_sysbios_knl_Clock_Module__diagsIncluded__C
0c036c90   ti_sysbios_knl_Clock_Module__diagsMask__C
0c036c94   ti_sysbios_knl_Clock_Module__loggerFxn1__C
0c036c98   ti_sysbios_knl_Clock_Module__loggerFxn2__C
0c036c9c   ti_sysbios_knl_Clock_Module__loggerObj__C
0c036ca0   ti_sysbios_knl_Clock_tickMode__C
0c036ca4   ti_sysbios_knl_Clock_tickSource__C
0c036ca8   ti_sysbios_knl_Semaphore_A_badContext__C
0c036cac   ti_sysbios_knl_Semaphore_A_noEvents__C
0c036cb0   ti_sysbios_knl_Semaphore_A_overflow__C
0c036cb4   ti_sysbios_knl_Semaphore_Instance_State_pendQ__O
0c036cb8   ti_sysbios_knl_Semaphore_LM_pend__C
0c036cbc   ti_sysbios_knl_Semaphore_LM_post__C
0c036cc0   ti_sysbios_knl_Semaphore_Module__diagsEnabled__C
0c036cc4   ti_sysbios_knl_Semaphore_Module__diagsIncluded__C
0c036cc8   ti_sysbios_knl_Semaphore_Module__diagsMask__C
0c036ccc   ti_sysbios_knl_Semaphore_Module__loggerFxn2__C
0c036cd0   ti_sysbios_knl_Semaphore_Module__loggerFxn4__C
0c036cd4   ti_sysbios_knl_Semaphore_Module__loggerObj__C
0c036cd8   ti_sysbios_knl_Swi_A_badPriority__C
0c036cdc   ti_sysbios_knl_Swi_LD_end__C
0c036ce0   ti_sysbios_knl_Swi_LM_begin__C
0c036ce4   ti_sysbios_knl_Swi_LM_post__C
0c036ce8   ti_sysbios_knl_Swi_Module__diagsEnabled__C
0c036cec   ti_sysbios_knl_Swi_Module__diagsIncluded__C
0c036cf0   ti_sysbios_knl_Swi_Module__diagsMask__C
0c036cf4   ti_sysbios_knl_Swi_Module__loggerFxn1__C
0c036cf8   ti_sysbios_knl_Swi_Module__loggerFxn4__C
0c036cfc   ti_sysbios_knl_Swi_Module__loggerObj__C
0c036d00   ti_sysbios_knl_Swi_Object__count__C
0c036d04   ti_sysbios_knl_Task_A_badPriority__C
0c036d08   ti_sysbios_knl_Task_A_badTaskState__C
0c036d0c   ti_sysbios_knl_Task_A_badThreadType__C
0c036d10   ti_sysbios_knl_Task_A_noPendElem__C
0c036d14   ti_sysbios_knl_Task_E_deleteNotAllowed__C
0c036d18   ti_sysbios_knl_Task_LD_block__C
0c036d1c   ti_sysbios_knl_Task_LD_exit__C
0c036d20   ti_sysbios_knl_Task_LD_ready__C
0c036d24   ti_sysbios_knl_Task_LM_setPri__C
0c036d28   ti_sysbios_knl_Task_LM_switch__C
0c036d2c   ti_sysbios_knl_Task_LM_yield__C
0c036d30   ti_sysbios_knl_Task_Module_State_inactiveQ__O
0c036d34   ti_sysbios_knl_Task_Module_State_terminatedQ__O
0c036d38   ti_sysbios_knl_Task_Module__diagsEnabled__C
0c036d3c   ti_sysbios_knl_Task_Module__diagsIncluded__C
0c036d40   ti_sysbios_knl_Task_Module__diagsMask__C
0c036d44   ti_sysbios_knl_Task_Module__loggerFxn2__C
0c036d48   ti_sysbios_knl_Task_Module__loggerFxn4__C
0c036d4c   ti_sysbios_knl_Task_Module__loggerObj__C
0c036d50   ti_sysbios_knl_Task_Object__count__C
0c036d54   ti_sysbios_knl_Task_Object__heap__C
0c036d58   ti_sysbios_knl_Task_allBlockedFunc__C
0c036d5c   ti_sysbios_knl_Task_defaultStackHeap__C
0c036d60   ti_sysbios_knl_Task_defaultStackSize__C
0c036d64   ti_sysbios_knl_Task_numConstructedTasks__C
0c036d68   ti_sysbios_knl_Task_numPriorities__C
0c036d6c   ti_sysbios_timers_timer64_Timer_A_notAvailable__C
0c036d70   ti_sysbios_timers_timer64_Timer_E_cannotSupport__C
0c036d74   ti_sysbios_timers_timer64_Timer_Module__diagsEnabled__C
0c036d78   ti_sysbios_timers_timer64_Timer_Module__diagsIncluded__C
0c036d7c   ti_sysbios_timers_timer64_Timer_Module__diagsMask__C
0c036d80   ti_sysbios_timers_timer64_Timer_anyMask__C
0c036d84   ti_sysbios_timers_timer64_Timer_freqDivisor__C
0c036d88   ti_sysbios_timers_timer64_Timer_numLocalTimers__C
0c036d8c   ti_sysbios_timers_timer64_Timer_numTimerDevices__C
0c036d90   ti_sysbios_xdcruntime_GateThreadSupport_Instance_State_gate__O
0c036d94   xdc_runtime_Assert_E_assertFailed__C
0c036d98   xdc_runtime_Core_A_initializedParams__C
0c036d9c   xdc_runtime_Core_Module__diagsEnabled__C
0c036da0   xdc_runtime_Core_Module__diagsIncluded__C
0c036da4   xdc_runtime_Core_Module__diagsMask__C
0c036da8   xdc_runtime_Error_E_generic__C
0c036dac   xdc_runtime_Error_E_memory__C
0c036db0   xdc_runtime_Error_Module__diagsEnabled__C
0c036db4   xdc_runtime_Error_Module__diagsIncluded__C
0c036db8   xdc_runtime_Error_Module__diagsMask__C
0c036dbc   xdc_runtime_Error_Module__loggerFxn8__C
0c036dc0   xdc_runtime_Error_Module__loggerObj__C
0c036dc4   xdc_runtime_Error_policy__C
0c036dc8   xdc_runtime_Error_raiseHook__C
0c036dcc   xdc_runtime_IGateProvider_Interface__BASE__C
0c036dd0   xdc_runtime_IHeap_Interface__BASE__C
0c036dd4   xdc_runtime_IModule_Interface__BASE__C
0c036dd8   xdc_runtime_Log_L_error__C
0c036ddc   xdc_runtime_Memory_defaultHeapInstance__C
0c036de0   xdc_runtime_Startup_execImpl__C
0c036de4   xdc_runtime_Startup_maxPasses__C
0c036de8   xdc_runtime_Startup_sfxnRts__C
0c036dec   xdc_runtime_Startup_sfxnTab__C
0c036df0   xdc_runtime_SysMin_bufSize__C
0c036df4   xdc_runtime_SysMin_outputFunc__C
0c036df8   xdc_runtime_System_Module__gateObj__C
0c036dfc   xdc_runtime_System_extendFxn__C
0c036e00   xdc_runtime_System_maxAtexitHandlers__C
0c036e04   xdc_runtime_Text_charTab__C
0c036e08   xdc_runtime_Text_nameEmpty__C
0c036e0c   xdc_runtime_Text_nameStatic__C
0c036e10   xdc_runtime_Text_nameUnknown__C
0c036e14   xdc_runtime_Text_nodeTab__C
0c036e18   xdc_runtime_Text_visitRopeFxn__C
0c036e1c   ti_omp_utils_OpenMP_enableMemoryConsistency__C
0c036e20   ti_omp_utils_OpenMP_qmssInit__C
0c036e24   ti_omp_utils_ThreadLocal_Module__id__C
0c036e28   ti_sdo_ipc_GateMP_Module__id__C
0c036e2c   ti_sdo_ipc_GateMP_Module__loggerDefined__C
0c036e30   ti_sdo_ipc_Ipc_Module__id__C
0c036e34   ti_sdo_ipc_Ipc_generateSlaveDataForHost__C
0c036e38   ti_sdo_ipc_ListMP_Module__id__C
0c036e3c   ti_sdo_ipc_MessageQ_Module__id__C
0c036e40   ti_sdo_ipc_MessageQ_Module__loggerDefined__C
0c036e44   ti_sdo_ipc_Notify_Module__id__C
0c036e48   ti_sdo_ipc_Notify_numLines__C
0c036e4c   ti_sdo_ipc_Notify_reservedEvents__C
0c036e50   ti_sdo_ipc_SharedRegion_Module__id__C
0c036e54   ti_sdo_ipc_SharedRegion_numEntries__C
0c036e58   ti_sdo_ipc_SharedRegion_translate__C
0c036e5c   ti_sdo_ipc_family_c647x_Interrupt_enableKick__C
0c036e60   ti_sdo_ipc_gates_GateHWSem_Module__id__C
0c036e64   ti_sdo_ipc_gates_GateMPSupportNull_Module__id__C
0c036e68   ti_sdo_ipc_gates_GatePeterson_Module__id__C
0c036e6c   ti_sdo_ipc_heaps_HeapMemMP_Module__id__C
0c036e70   ti_sdo_ipc_notifyDrivers_NotifyDriverShm_Module__id__C
0c036e74   ti_sdo_ipc_nsremote_NameServerRemoteNotify_Module__id__C
0c036e78   ti_sdo_ipc_transports_TransportShm_Module__id__C
0c036e7c   ti_sdo_ipc_transports_TransportShm_notifyEventId__C
0c036e80   ti_sdo_utils_MultiProc_Module__id__C
0c036e84   ti_sdo_utils_MultiProc_numProcessors__C
0c036e88   ti_sdo_utils_MultiProc_numProcsInCluster__C
0c036e8c   ti_sdo_utils_NameServer_Module__id__C
0c036e90   ti_sysbios_BIOS_Module__id__C
0c036e94   ti_sysbios_family_c64p_EventCombiner_Module__id__C
0c036e98   ti_sysbios_family_c64p_Exception_Module__id__C
0c036e9c   ti_sysbios_family_c64p_Hwi_Module__id__C
0c036ea0   ti_sysbios_family_c64p_Hwi_Module__loggerDefined__C
0c036ea4   ti_sysbios_family_c66_tci66xx_CpIntc_Module__id__C
0c036ea8   ti_sysbios_gates_GateMutexPri_Module__id__C
0c036eac   ti_sysbios_gates_GateMutex_Module__id__C
0c036eb0   ti_sysbios_gates_GateSwi_Module__id__C
0c036eb4   ti_sysbios_hal_Hwi_Module__id__C
0c036eb8   ti_sysbios_heaps_HeapMem_Module__id__C
0c036ebc   ti_sysbios_knl_Clock_Module__id__C
0c036ec0   ti_sysbios_knl_Clock_Module__loggerDefined__C
0c036ec4   ti_sysbios_knl_Semaphore_Module__id__C
0c036ec8   ti_sysbios_knl_Semaphore_Module__loggerDefined__C
0c036ecc   ti_sysbios_knl_Swi_Module__id__C
0c036ed0   ti_sysbios_knl_Swi_Module__loggerDefined__C
0c036ed4   ti_sysbios_knl_Task_Module__id__C
0c036ed8   ti_sysbios_knl_Task_Module__loggerDefined__C
0c036edc   ti_sysbios_knl_Task_deleteTerminatedTasks__C
0c036ee0   ti_sysbios_knl_Task_initStackFlag__C
0c036ee4   ti_sysbios_timers_timer64_Timer_Module__id__C
0c036ee8   ti_sysbios_timers_timer64_Timer_startupNeeded__C
0c036eec   xdc_runtime_Core_Module__id__C
0c036ef0   xdc_runtime_Error_Module__loggerDefined__C
0c036ef4   xdc_runtime_Error_maxDepth__C
0c036ef8   xdc_runtime_Memory_Module__id__C
0c036efc   xdc_runtime_SysMin_flushAtExit__C
0c036f00   xdc_runtime_Text_charCnt__C
0c036f04   xdc_runtime_Text_isLoaded__C
0c036f08   xdc_runtime_Text_registryModsLastId__C
0c036f0c   xdc_runtime_Text_unnamedModsLastId__C
0c036f10   __TI_TLS_MAIN_THREAD_Base
0c036f10   errno
0c037000   ti_sysbios_family_c64p_Hwi0
0c037000   ti_sysbios_family_c64p_Hwi_int0
0c037020   ti_sysbios_family_c64p_Hwi_int1
0c037040   ti_sysbios_family_c64p_Hwi_int2
0c037060   ti_sysbios_family_c64p_Hwi_int3
0c037080   ti_sysbios_family_c64p_Hwi_int4
0c0370a0   ti_sysbios_family_c64p_Hwi_int5
0c0370c0   ti_sysbios_family_c64p_Hwi_int6
0c0370e0   ti_sysbios_family_c64p_Hwi_int7
0c037100   ti_sysbios_family_c64p_Hwi_int8
0c037120   ti_sysbios_family_c64p_Hwi_int9
0c037140   ti_sysbios_family_c64p_Hwi_int10
0c037160   ti_sysbios_family_c64p_Hwi_int11
0c037180   ti_sysbios_family_c64p_Hwi_int12
0c0371a0   ti_sysbios_family_c64p_Hwi_int13
0c0371c0   ti_sysbios_family_c64p_Hwi_int14
0c0371e0   ti_sysbios_family_c64p_Hwi_int15
0c0373e4   __TI_table_binit
0c0373e4   __binit__
0c0373e4   binit
0c037400   _c_int00
0c03870c   __TI_Handler_Table_Base
0c038718   __TI_Handler_Table_Limit
0c038750   __TI_CINIT_Base
0c038798   __TI_CINIT_Limit
0c0387b0   __TI_TLS_INIT_Base
0c0387c0   __TI_TLS_INIT_Limit
80080000   __TI_STATIC_BASE
80080000   qmssMallocCounter
80080004   qmssFreeCounter
80080008   cppiMallocCounter
8008000c   cppiFreeCounter
80080010   qmssLObjIsValid
80080018   omp_qmssGblCfgParams
80080138   omp_cppiGblCfgParams
800801b0   cppiLObj
800801b4   qmssLObj
800802d4   Ipc_sr0MemorySetup
a0325000   linkingRAM0
a0335000   eventDesc
a0337000   cpdmaCfg
a0337018   qmssInitConfig
a0337044   memInfo
a033705c   descCfg
a033708c   cppiHnd
a0337090   completionQueHnd
a0337094   eventQueHnd
a0337098   EventFreeDescHnd
a033709c   releaseHnd
a03370a0   release
a03370a4   runCount
a03370a8   isQMSSInitialized
a03370b0   gomp_thread_attr
a03370e8   gomp_thread_destructor
a03370ec   gomp_main_exit
a03370f0   BufferMgmt
a03370fc   gomp_tls_key
a0337100   queueFree
a0339100   qmssGObj
a03396d0   ThreadLocal_destructors
a0339710   gomp_cpu_affinity
a0339714   gomp_cpu_affinity_len
a0339718   gomp_remaining_threads_count
a033971c   gomp_remaining_threads_lock
a0339728   gomp_spin_count_var
a0339730   gomp_throttled_spin_count_var
a0339738   gomp_global_icv
a0339748   gomp_max_active_levels_var
a033974c   gomp_thread_limit_var
a0339750   gomp_available_cpus
a0339754   gomp_managed_threads
a0339770   ThreadLocal_usedKeys
a0339780   cppiObject
ffffffff   __TI_pprof_out_hndl
ffffffff   __TI_prof_data_size
ffffffff   __TI_prof_data_start
ffffffff   __c_args__
UNDEFED    __TI_INITARRAY_Base
UNDEFED    __TI_INITARRAY_Limit

[1555 symbols]
